---
triple:          'arm64-apple-darwin'
binary-path:     '/Users/dan/Interactive_Booleans/interactive_booleans'
relocations:
  - { offsetInCU: 0x3F, offset: 0x3F, size: 0x8, addend: 0x0, symName: _blackColor, symObjAddr: 0x2F704E, symBinAddr: 0x100058388, symSize: 0x0 }
  - { offsetInCU: 0x42EC, offset: 0x42EC, size: 0x8, addend: 0x0, symName: __ZN2sfmiIfEENS_7Vector2IT_EERKS3_S5_, symObjAddr: 0x1384, symBinAddr: 0x100002304, symSize: 0x58 }
  - { offsetInCU: 0x432F, offset: 0x432F, size: 0x8, addend: 0x0, symName: __ZN2sfplIfEENS_7Vector2IT_EERKS3_S5_, symObjAddr: 0x1430, symBinAddr: 0x1000023B0, symSize: 0x58 }
  - { offsetInCU: 0x4C2C, offset: 0x4C2C, size: 0x8, addend: 0x0, symName: _whiteColor, symObjAddr: 0x2F7052, symBinAddr: 0x10005838C, symSize: 0x0 }
  - { offsetInCU: 0x4C41, offset: 0x4C41, size: 0x8, addend: 0x0, symName: _greenColor, symObjAddr: 0x2F7056, symBinAddr: 0x100058390, symSize: 0x0 }
  - { offsetInCU: 0x4C56, offset: 0x4C56, size: 0x8, addend: 0x0, symName: _blueColor, symObjAddr: 0x2F705A, symBinAddr: 0x100058394, symSize: 0x0 }
  - { offsetInCU: 0x4C6B, offset: 0x4C6B, size: 0x8, addend: 0x0, symName: _redColor, symObjAddr: 0x2F705E, symBinAddr: 0x100058398, symSize: 0x0 }
  - { offsetInCU: 0x4C80, offset: 0x4C80, size: 0x8, addend: 0x0, symName: _greyColor, symObjAddr: 0x2F7062, symBinAddr: 0x10005839C, symSize: 0x0 }
  - { offsetInCU: 0x4C95, offset: 0x4C95, size: 0x8, addend: 0x0, symName: _yellowColor, symObjAddr: 0x2F7066, symBinAddr: 0x1000583A0, symSize: 0x0 }
  - { offsetInCU: 0x5579, offset: 0x5579, size: 0x8, addend: 0x0, symName: __ZN6spdlog7details2osL11folder_sepsE, symObjAddr: 0x4F0A0, symBinAddr: 0x10004F4D8, symSize: 0x0 }
  - { offsetInCU: 0x5586, offset: 0x5586, size: 0x8, addend: 0x0, symName: __ZN6spdlog7details2os17is_color_terminalEv, symObjAddr: 0x3AE8C, symBinAddr: 0x10003BE0C, symSize: 0x98 }
  - { offsetInCU: 0x55B1, offset: 0x55B1, size: 0x8, addend: 0x0, symName: __ZZN6spdlog7details2os17is_color_terminalEvE6result, symObjAddr: 0x50948, symBinAddr: 0x100058270, symSize: 0x0 }
  - { offsetInCU: 0x55D5, offset: 0x55D5, size: 0x8, addend: 0x0, symName: __ZN6spdlog7details2os9thread_idEv, symObjAddr: 0x46234, symBinAddr: 0x1000471B4, symSize: 0x88 }
  - { offsetInCU: 0x560B, offset: 0x560B, size: 0x8, addend: 0x0, symName: __ZN6spdlog7details2os9localtimeERKl, symObjAddr: 0xC4E8, symBinAddr: 0x10000D468, symSize: 0x30 }
  - { offsetInCU: 0x5646, offset: 0x5646, size: 0x8, addend: 0x0, symName: __ZN6spdlog7details2os6gmtimeERKl, symObjAddr: 0xC518, symBinAddr: 0x10000D498, symSize: 0x30 }
  - { offsetInCU: 0x5681, offset: 0x5681, size: 0x8, addend: 0x0, symName: __ZN6spdlog7details2os18utc_minutes_offsetERK2tm, symObjAddr: 0x212AC, symBinAddr: 0x10002222C, symSize: 0x50 }
  - { offsetInCU: 0x56DE, offset: 0x56DE, size: 0x8, addend: 0x0, symName: __ZN6spdlog7details2os6gmtimeEv, symObjAddr: 0x214C8, symBinAddr: 0x100022448, symSize: 0x44 }
  - { offsetInCU: 0x570A, offset: 0x570A, size: 0x8, addend: 0x0, symName: __ZN6spdlog7details2os3pidEv, symObjAddr: 0x21B14, symBinAddr: 0x100022A94, symSize: 0x3C }
  - { offsetInCU: 0x5728, offset: 0x5728, size: 0x8, addend: 0x0, symName: __ZN6spdlog7details2os11in_terminalEP7__sFILE, symObjAddr: 0x3AE3C, symBinAddr: 0x10003BDBC, symSize: 0x50 }
  - { offsetInCU: 0x5756, offset: 0x5756, size: 0x8, addend: 0x0, symName: __ZN6spdlog7details2os3nowEv, symObjAddr: 0x4611C, symBinAddr: 0x10004709C, symSize: 0x24 }
  - { offsetInCU: 0x5773, offset: 0x5773, size: 0x8, addend: 0x0, symName: __ZN6spdlog7details2os10_thread_idEv, symObjAddr: 0x462BC, symBinAddr: 0x10004723C, symSize: 0x30 }
  - { offsetInCU: 0x57AE, offset: 0x57AE, size: 0x8, addend: 0x0, symName: __ZN6spdlog7detailsL4daysE, symObjAddr: 0x50890, symBinAddr: 0x1000581B8, symSize: 0x0 }
  - { offsetInCU: 0x57C7, offset: 0x57C7, size: 0x8, addend: 0x0, symName: __ZN6spdlog7detailsL9full_daysE, symObjAddr: 0x508C8, symBinAddr: 0x1000581F0, symSize: 0x0 }
  - { offsetInCU: 0x57E0, offset: 0x57E0, size: 0x8, addend: 0x0, symName: __ZN6spdlog7detailsL6monthsE, symObjAddr: 0x4D8C8, symBinAddr: 0x100054FC0, symSize: 0x0 }
  - { offsetInCU: 0x57F9, offset: 0x57F9, size: 0x8, addend: 0x0, symName: __ZN6spdlog7detailsL11full_monthsE, symObjAddr: 0x4D968, symBinAddr: 0x100055060, symSize: 0x0 }
  - { offsetInCU: 0x5D7D, offset: 0x5D7D, size: 0x8, addend: 0x0, symName: __ZN6spdlog7details10fmt_helper12count_digitsImEEjT_, symObjAddr: 0x16EC0, symBinAddr: 0x100017E40, symSize: 0x24 }
  - { offsetInCU: 0x5DBD, offset: 0x5DBD, size: 0x8, addend: 0x0, symName: __ZN6spdlog7details10fmt_helper12count_digitsIjEEjT_, symObjAddr: 0x21B88, symBinAddr: 0x100022B08, symSize: 0x24 }
  - { offsetInCU: 0x5DFD, offset: 0x5DFD, size: 0x8, addend: 0x0, symName: __ZN6spdlog7details10fmt_helper12count_digitsIiEEjT_, symObjAddr: 0x22E30, symBinAddr: 0x100023DB0, symSize: 0x24 }
  - { offsetInCU: 0x5E3D, offset: 0x5E3D, size: 0x8, addend: 0x0, symName: __ZN6spdlog7details10fmt_helper18append_string_viewEN3fmt3v1017basic_string_viewIcEERNS3_19basic_memory_bufferIcLm250ENSt3__19allocatorIcEEEE, symObjAddr: 0x9730, symBinAddr: 0x10000A6B0, symSize: 0x74 }
  - { offsetInCU: 0x5E81, offset: 0x5E81, size: 0x8, addend: 0x0, symName: __ZN6spdlog7details10fmt_helper10append_intIiEEvT_RN3fmt3v1019basic_memory_bufferIcLm250ENSt3__19allocatorIcEEEE, symObjAddr: 0xA354, symBinAddr: 0x10000B2D4, symSize: 0xAC }
  - { offsetInCU: 0x5ECE, offset: 0x5ECE, size: 0x8, addend: 0x0, symName: __ZN6spdlog7details10fmt_helper4pad2EiRN3fmt3v1019basic_memory_bufferIcLm250ENSt3__19allocatorIcEEEE, symObjAddr: 0xA400, symBinAddr: 0x10000B380, symSize: 0x1D8 }
  - { offsetInCU: 0x6040, offset: 0x6040, size: 0x8, addend: 0x0, symName: __ZN6spdlog7details10fmt_helper13time_fractionINSt3__16chrono8durationIxNS3_5ratioILl1ELl1000EEEEEEET_NS4_10time_pointINS4_12system_clockENS5_IxNS6_ILl1ELl1000000EEEEEEE, symObjAddr: 0xA5D8, symBinAddr: 0x10000B558, symSize: 0x88 }
  - { offsetInCU: 0x6098, offset: 0x6098, size: 0x8, addend: 0x0, symName: __ZN6spdlog7details10fmt_helper4pad3IjEEvT_RN3fmt3v1019basic_memory_bufferIcLm250ENSt3__19allocatorIcEEEE, symObjAddr: 0xA660, symBinAddr: 0x10000B5E0, symSize: 0xD0 }
  - { offsetInCU: 0x60D7, offset: 0x60D7, size: 0x8, addend: 0x0, symName: __ZN6spdlog7details10fmt_helper10append_intIjEEvT_RN3fmt3v1019basic_memory_bufferIcLm250ENSt3__19allocatorIcEEEE, symObjAddr: 0xB2DC, symBinAddr: 0x10000C25C, symSize: 0xAC }
  - { offsetInCU: 0x6124, offset: 0x6124, size: 0x8, addend: 0x0, symName: __ZN6spdlog7details10fmt_helper10append_intImEEvT_RN3fmt3v1019basic_memory_bufferIcLm250ENSt3__19allocatorIcEEEE, symObjAddr: 0x16E14, symBinAddr: 0x100017D94, symSize: 0xAC }
  - { offsetInCU: 0x6171, offset: 0x6171, size: 0x8, addend: 0x0, symName: __ZN6spdlog7details10fmt_helper13time_fractionINSt3__16chrono8durationIxNS3_5ratioILl1ELl1000000EEEEEEET_NS4_10time_pointINS4_12system_clockES8_EE, symObjAddr: 0x1DBDC, symBinAddr: 0x10001EB5C, symSize: 0x88 }
  - { offsetInCU: 0x61C9, offset: 0x61C9, size: 0x8, addend: 0x0, symName: __ZN6spdlog7details10fmt_helper4pad6ImEEvT_RN3fmt3v1019basic_memory_bufferIcLm250ENSt3__19allocatorIcEEEE, symObjAddr: 0x1DC64, symBinAddr: 0x10001EBE4, symSize: 0x30 }
  - { offsetInCU: 0x6208, offset: 0x6208, size: 0x8, addend: 0x0, symName: __ZN6spdlog7details10fmt_helper8pad_uintImEEvT_jRN3fmt3v1019basic_memory_bufferIcLm250ENSt3__19allocatorIcEEEE, symObjAddr: 0x1DE54, symBinAddr: 0x10001EDD4, symSize: 0x80 }
  - { offsetInCU: 0x6271, offset: 0x6271, size: 0x8, addend: 0x0, symName: __ZN6spdlog7details10fmt_helper13time_fractionINSt3__16chrono8durationIxNS3_5ratioILl1ELl1000000000EEEEEEET_NS4_10time_pointINS4_12system_clockENS5_IxNS6_ILl1ELl1000000EEEEEEE, symObjAddr: 0x1E4F8, symBinAddr: 0x10001F478, symSize: 0x88 }
  - { offsetInCU: 0x62C9, offset: 0x62C9, size: 0x8, addend: 0x0, symName: __ZN6spdlog7details10fmt_helper4pad9ImEEvT_RN3fmt3v1019basic_memory_bufferIcLm250ENSt3__19allocatorIcEEEE, symObjAddr: 0x1E580, symBinAddr: 0x10001F500, symSize: 0x30 }
  - { offsetInCU: 0x6308, offset: 0x6308, size: 0x8, addend: 0x0, symName: __ZN6spdlog7details10fmt_helper10append_intIxEEvT_RN3fmt3v1019basic_memory_bufferIcLm250ENSt3__19allocatorIcEEEE, symObjAddr: 0x1EDB4, symBinAddr: 0x10001FD34, symSize: 0xAC }
  - { offsetInCU: 0x871C, offset: 0x871C, size: 0x8, addend: 0x0, symName: __ZN6spdlog7detailsL5to12hERK2tm, symObjAddr: 0x1C37C, symBinAddr: 0x10001D2FC, symSize: 0x50 }
  - { offsetInCU: 0x8748, offset: 0x8748, size: 0x8, addend: 0x0, symName: __ZN6spdlog7detailsL4ampmERK2tm, symObjAddr: 0x1F608, symBinAddr: 0x100020588, symSize: 0x4C }
  - { offsetInCU: 0x8774, offset: 0x8774, size: 0x8, addend: 0x0, symName: __ZN6spdlog7details23conditional_static_castIiiLi0EEET_T0_, symObjAddr: 0x21B74, symBinAddr: 0x100022AF4, symSize: 0x14 }
  - { offsetInCU: 0x9104, offset: 0x9104, size: 0x8, addend: 0x0, symName: __ZN6spdlog5levelL18level_string_viewsE, symObjAddr: 0x4D658, symBinAddr: 0x100054D50, symSize: 0x0 }
  - { offsetInCU: 0x911D, offset: 0x911D, size: 0x8, addend: 0x0, symName: __ZN6spdlog5levelL17short_level_namesE, symObjAddr: 0x50858, symBinAddr: 0x100058180, symSize: 0x0 }
  - { offsetInCU: 0x912A, offset: 0x912A, size: 0x8, addend: 0x0, symName: __ZN6spdlog5level14to_string_viewENS0_10level_enumE, symObjAddr: 0xA748, symBinAddr: 0x10000B6C8, symSize: 0x20 }
  - { offsetInCU: 0x9156, offset: 0x9156, size: 0x8, addend: 0x0, symName: __ZN6spdlog5level14to_short_c_strENS0_10level_enumE, symObjAddr: 0x167C8, symBinAddr: 0x100017748, symSize: 0x20 }
  - { offsetInCU: 0x959F, offset: 0x959F, size: 0x8, addend: 0x0, symName: __ZN6spdlog4infoIA35_cEEvRKT_, symObjAddr: 0x3894, symBinAddr: 0x100004814, symSize: 0x28 }
  - { offsetInCU: 0x95D0, offset: 0x95D0, size: 0x8, addend: 0x0, symName: __ZN6spdlog18default_logger_rawEv, symObjAddr: 0x3A94, symBinAddr: 0x100004A14, symSize: 0x18 }
  - { offsetInCU: 0xE6F6, offset: 0xE6F6, size: 0x8, addend: 0x0, symName: __ZNSt3__16chronomiB8ue170006IxNS_5ratioILl1ELl1000EEExS3_EENS_11common_typeIJNS0_8durationIT_T0_EENS5_IT1_T2_EEEE4typeERKS8_RKSB_, symObjAddr: 0xB118, symBinAddr: 0x10000C098, symSize: 0x70 }
  - { offsetInCU: 0xE9E2, offset: 0xE9E2, size: 0x8, addend: 0x0, symName: __ZNSt3__16chronomiB8ue170006IxNS_5ratioILl1ELl1000000EEExS3_EENS_11common_typeIJNS0_8durationIT_T0_EENS5_IT1_T2_EEEE4typeERKS8_RKSB_, symObjAddr: 0x1DC94, symBinAddr: 0x10001EC14, symSize: 0x70 }
  - { offsetInCU: 0xEA9A, offset: 0xEA9A, size: 0x8, addend: 0x0, symName: __ZNSt3__16chronomiB8ue170006IxNS_5ratioILl1ELl1000000000EEExS3_EENS_11common_typeIJNS0_8durationIT_T0_EENS5_IT1_T2_EEEE4typeERKS8_RKSB_, symObjAddr: 0x1E5C8, symBinAddr: 0x10001F548, symSize: 0x70 }
  - { offsetInCU: 0xEBEE, offset: 0xEBEE, size: 0x8, addend: 0x0, symName: __ZNSt3__16chrono13duration_castB8ue170006INS0_8durationIxNS_5ratioILl1ELl1EEEEExNS3_ILl1ELl1000000EEEEENS_9enable_ifIXsr13__is_durationIT_EE5valueES8_E4typeERKNS2_IT0_T1_EE, symObjAddr: 0xA280, symBinAddr: 0x10000B200, symSize: 0x30 }
  - { offsetInCU: 0xEC35, offset: 0xEC35, size: 0x8, addend: 0x0, symName: __ZNSt3__16chrononeB8ue170006IxNS_5ratioILl1ELl1EEExS3_EEbRKNS0_8durationIT_T0_EERKNS4_IT1_T2_EE, symObjAddr: 0xA2B0, symBinAddr: 0x10000B230, symSize: 0x34 }
  - { offsetInCU: 0xEC96, offset: 0xEC96, size: 0x8, addend: 0x0, symName: __ZNSt3__16chronoeqB8ue170006IxNS_5ratioILl1ELl1EEExS3_EEbRKNS0_8durationIT_T0_EERKNS4_IT1_T2_EE, symObjAddr: 0xA8B8, symBinAddr: 0x10000B838, symSize: 0x34 }
  - { offsetInCU: 0xED34, offset: 0xED34, size: 0x8, addend: 0x0, symName: __ZNSt3__16chrono13duration_castB8ue170006INS0_8durationIxNS_5ratioILl1ELl1000EEEEExNS3_ILl1ELl1000000EEEEENS_9enable_ifIXsr13__is_durationIT_EE5valueES8_E4typeERKNS2_IT0_T1_EE, symObjAddr: 0xB188, symBinAddr: 0x10000C108, symSize: 0x30 }
  - { offsetInCU: 0xED7B, offset: 0xED7B, size: 0x8, addend: 0x0, symName: __ZNSt3__16chrono13duration_castB8ue170006INS0_8durationIxNS_5ratioILl1ELl1000EEEEExNS3_ILl1ELl1EEEEENS_9enable_ifIXsr13__is_durationIT_EE5valueES8_E4typeERKNS2_IT0_T1_EE, symObjAddr: 0xB1B8, symBinAddr: 0x10000C138, symSize: 0x30 }
  - { offsetInCU: 0xEDC2, offset: 0xEDC2, size: 0x8, addend: 0x0, symName: __ZNSt3__16chrono13duration_castB8ue170006INS0_8durationIxNS_5ratioILl1ELl1000000EEEEExS4_EENS_9enable_ifIXsr13__is_durationIT_EE5valueES7_E4typeERKNS2_IT0_T1_EE, symObjAddr: 0x1DD04, symBinAddr: 0x10001EC84, symSize: 0x30 }
  - { offsetInCU: 0xEE09, offset: 0xEE09, size: 0x8, addend: 0x0, symName: __ZNSt3__16chrono13duration_castB8ue170006INS0_8durationIxNS_5ratioILl1ELl1000000EEEEExNS3_ILl1ELl1EEEEENS_9enable_ifIXsr13__is_durationIT_EE5valueES8_E4typeERKNS2_IT0_T1_EE, symObjAddr: 0x1DD34, symBinAddr: 0x10001ECB4, symSize: 0x30 }
  - { offsetInCU: 0xEE9B, offset: 0xEE9B, size: 0x8, addend: 0x0, symName: __ZNSt3__16chrono13duration_castB8ue170006INS0_8durationIxNS_5ratioILl1ELl1000000000EEEEExNS3_ILl1ELl1000000EEEEENS_9enable_ifIXsr13__is_durationIT_EE5valueES8_E4typeERKNS2_IT0_T1_EE, symObjAddr: 0x1E638, symBinAddr: 0x10001F5B8, symSize: 0x30 }
  - { offsetInCU: 0xEEE2, offset: 0xEEE2, size: 0x8, addend: 0x0, symName: __ZNSt3__16chrono13duration_castB8ue170006INS0_8durationIxNS_5ratioILl1ELl1000000000EEEEExNS3_ILl1ELl1EEEEENS_9enable_ifIXsr13__is_durationIT_EE5valueES8_E4typeERKNS2_IT0_T1_EE, symObjAddr: 0x1E668, symBinAddr: 0x10001F5E8, symSize: 0x30 }
  - { offsetInCU: 0xEF29, offset: 0xEF29, size: 0x8, addend: 0x0, symName: __ZNSt3__16chronogeB8ue170006IxNS_5ratioILl1ELl1000000EEExNS2_ILl1ELl1EEEEEbRKNS0_8durationIT_T0_EERKNS5_IT1_T2_EE, symObjAddr: 0x21220, symBinAddr: 0x1000221A0, symSize: 0x34 }
  - { offsetInCU: 0xEF8A, offset: 0xEF8A, size: 0x8, addend: 0x0, symName: __ZNSt3__16chronomiB8ue170006INS0_12system_clockENS0_8durationIxNS_5ratioILl1ELl1000000EEEEES6_EENS_11common_typeIJT0_T1_EE4typeERKNS0_10time_pointIT_S8_EERKNSC_ISD_S9_EE, symObjAddr: 0x21254, symBinAddr: 0x1000221D4, symSize: 0x58 }
  - { offsetInCU: 0xEFE2, offset: 0xEFE2, size: 0x8, addend: 0x0, symName: __ZNSt3__16chronoltB8ue170006IxNS_5ratioILl1ELl1000000EEExNS2_ILl1ELl1EEEEEbRKNS0_8durationIT_T0_EERKNS5_IT1_T2_EE, symObjAddr: 0x212FC, symBinAddr: 0x10002227C, symSize: 0x34 }
  - { offsetInCU: 0xF043, offset: 0xF043, size: 0x8, addend: 0x0, symName: __ZNSt3__16chronoltB8ue170006IxNS_5ratioILl1ELl1000000EEExS3_EEbRKNS0_8durationIT_T0_EERKNS4_IT1_T2_EE, symObjAddr: 0x256A4, symBinAddr: 0x100026624, symSize: 0x34 }
  - { offsetInCU: 0x1A98D, offset: 0x1A98D, size: 0x8, addend: 0x0, symName: __ZNSt3__119piecewise_constructE, symObjAddr: 0x4F0A2, symBinAddr: 0x10004F4DA, symSize: 0x0 }
  - { offsetInCU: 0x47A63, offset: 0x47A63, size: 0x8, addend: 0x0, symName: __ZNSt3__117__cxx_atomic_loadB8ue170006IiEET_PKNS_22__cxx_atomic_base_implIS1_EENS_12memory_orderE, symObjAddr: 0x3F744, symBinAddr: 0x1000406C4, symSize: 0x80 }
  - { offsetInCU: 0x47AC0, offset: 0x47AC0, size: 0x8, addend: 0x0, symName: __ZNSt3__117__cxx_atomic_loadB8ue170006IbEET_PKNS_22__cxx_atomic_base_implIS1_EENS_12memory_orderE, symObjAddr: 0x3FAE0, symBinAddr: 0x100040A60, symSize: 0x84 }
  - { offsetInCU: 0x47B1D, offset: 0x47B1D, size: 0x8, addend: 0x0, symName: __ZNSt3__17advanceB8ue170006IPN6spdlog7details14log_msg_bufferEllvEEvRT_T0_, symObjAddr: 0x40254, symBinAddr: 0x1000411D4, symSize: 0x38 }
  - { offsetInCU: 0x48B90, offset: 0x48B90, size: 0x8, addend: 0x0, symName: __ZNSt3__124__put_character_sequenceB8ue170006IcNS_11char_traitsIcEEEERNS_13basic_ostreamIT_T0_EES7_PKS4_m, symObjAddr: 0x49F60, symBinAddr: 0x10004AEE0, symSize: 0x1EC }
  - { offsetInCU: 0x4AA99, offset: 0x4AA99, size: 0x8, addend: 0x0, symName: __ZNSt3__111make_uniqueB8ue170006I7AndGateJEEENS_11__unique_ifIT_E15__unique_singleEDpOT0_, symObjAddr: 0xDD0, symBinAddr: 0x100001D50, symSize: 0x64 }
  - { offsetInCU: 0x4AAC7, offset: 0x4AAC7, size: 0x8, addend: 0x0, symName: __ZNSt3__111make_uniqueB8ue170006I4BulbJRA5_KcN2sf7Vector2IfEEEEENS_11__unique_ifIT_E15__unique_singleEDpOT0_, symObjAddr: 0xF28, symBinAddr: 0x100001EA8, symSize: 0xE8 }
  - { offsetInCU: 0x4AB20, offset: 0x4AB20, size: 0x8, addend: 0x0, symName: __ZNSt3__1lsB8ue170006INS_11char_traitsIcEEEERNS_13basic_ostreamIcT_EES6_PKc, symObjAddr: 0x10FC, symBinAddr: 0x10000207C, symSize: 0x48 }
  - { offsetInCU: 0x4AB66, offset: 0x4AB66, size: 0x8, addend: 0x0, symName: __ZNSt3__14endlB8ue170006IcNS_11char_traitsIcEEEERNS_13basic_ostreamIT_T0_EES7_, symObjAddr: 0x1170, symBinAddr: 0x1000020F0, symSize: 0x58 }
  - { offsetInCU: 0x4ABA6, offset: 0x4ABA6, size: 0x8, addend: 0x0, symName: __ZNSt3__1neB8ue170006IPNS_10unique_ptrI9ComponentNS_14default_deleteIS2_EEEEEEbRKNS_11__wrap_iterIT_EESB_, symObjAddr: 0x12E8, symBinAddr: 0x100002268, symSize: 0x34 }
  - { offsetInCU: 0x4ABE9, offset: 0x4ABE9, size: 0x8, addend: 0x0, symName: __ZNSt3__1neB8ue170006IPNS_10unique_ptrI4BulbNS_14default_deleteIS2_EEEEEEbRKNS_11__wrap_iterIT_EESB_, symObjAddr: 0x14E8, symBinAddr: 0x100002468, symSize: 0x34 }
  - { offsetInCU: 0x4AC2C, offset: 0x4AC2C, size: 0x8, addend: 0x0, symName: __ZNSt3__1plB8ue170006IcNS_11char_traitsIcEENS_9allocatorIcEEEENS_12basic_stringIT_T0_T1_EEPKS6_OS9_, symObjAddr: 0x1554, symBinAddr: 0x1000024D4, symSize: 0x44 }
  - { offsetInCU: 0x4EA59, offset: 0x4EA59, size: 0x8, addend: 0x0, symName: __ZNSt3__119__libcpp_deallocateB8ue170006EPvmm, symObjAddr: 0x1974, symBinAddr: 0x1000028F4, symSize: 0x60 }
  - { offsetInCU: 0x4EABE, offset: 0x4EABE, size: 0x8, addend: 0x0, symName: __ZNSt3__124__is_overaligned_for_newB8ue170006Em, symObjAddr: 0x19E0, symBinAddr: 0x100002960, symSize: 0x20 }
  - { offsetInCU: 0x4EAED, offset: 0x4EAED, size: 0x8, addend: 0x0, symName: __ZNSt3__127__do_deallocate_handle_sizeB8ue170006IJSt11align_val_tEEEvPvmDpT_, symObjAddr: 0x1A00, symBinAddr: 0x100002980, symSize: 0x30 }
  - { offsetInCU: 0x4EB43, offset: 0x4EB43, size: 0x8, addend: 0x0, symName: __ZNSt3__127__do_deallocate_handle_sizeB8ue170006IJEEEvPvmDpT_, symObjAddr: 0x1A30, symBinAddr: 0x1000029B0, symSize: 0x28 }
  - { offsetInCU: 0x4EB83, offset: 0x4EB83, size: 0x8, addend: 0x0, symName: __ZNSt3__124__libcpp_operator_deleteB8ue170006IJPvSt11align_val_tEEEvDpT_, symObjAddr: 0x1A58, symBinAddr: 0x1000029D8, symSize: 0x2C }
  - { offsetInCU: 0x4EBD0, offset: 0x4EBD0, size: 0x8, addend: 0x0, symName: __ZNSt3__124__libcpp_operator_deleteB8ue170006IJPvEEEvDpT_, symObjAddr: 0x1A84, symBinAddr: 0x100002A04, symSize: 0x24 }
  - { offsetInCU: 0x4EC07, offset: 0x4EC07, size: 0x8, addend: 0x0, symName: __ZNSt3__1eqB8ue170006IPNS_10unique_ptrI9ComponentNS_14default_deleteIS2_EEEEEEbRKNS_11__wrap_iterIT_EESB_, symObjAddr: 0x1C84, symBinAddr: 0x100002C04, symSize: 0x48 }
  - { offsetInCU: 0x4EC4A, offset: 0x4EC4A, size: 0x8, addend: 0x0, symName: __ZNSt3__1eqB8ue170006IPNS_10unique_ptrI4BulbNS_14default_deleteIS2_EEEEEEbRKNS_11__wrap_iterIT_EESB_, symObjAddr: 0x1CE4, symBinAddr: 0x100002C64, symSize: 0x48 }
  - { offsetInCU: 0x4EC8D, offset: 0x4EC8D, size: 0x8, addend: 0x0, symName: __ZNSt3__112__to_addressB8ue170006IN2sf6VertexEEEPT_S4_, symObjAddr: 0x2200, symBinAddr: 0x100003180, symSize: 0x14 }
  - { offsetInCU: 0x4ECF5, offset: 0x4ECF5, size: 0x8, addend: 0x0, symName: __ZNSt3__118__constexpr_strlenB8ue170006EPKc, symObjAddr: 0x298C, symBinAddr: 0x10000390C, symSize: 0x24 }
  - { offsetInCU: 0x4ED21, offset: 0x4ED21, size: 0x8, addend: 0x0, symName: __ZNSt3__112__to_addressB8ue170006INS_10unique_ptrI9ComponentNS_14default_deleteIS2_EEEEEEPT_S7_, symObjAddr: 0x2EC0, symBinAddr: 0x100003E40, symSize: 0x14 }
  - { offsetInCU: 0x4ED56, offset: 0x4ED56, size: 0x8, addend: 0x0, symName: __ZNSt3__112__to_addressB8ue170006INS_10unique_ptrI4BulbNS_14default_deleteIS2_EEEEEEPT_S7_, symObjAddr: 0x34F0, symBinAddr: 0x100004470, symSize: 0x14 }
  - { offsetInCU: 0x4ED8B, offset: 0x4ED8B, size: 0x8, addend: 0x0, symName: __ZNSt3__111make_sharedB8ue170006IN6spdlog5sinks21ansicolor_stdout_sinkINS1_7details13console_mutexEEEJEvEENS_10shared_ptrIT_EEDpOT0_, symObjAddr: 0x40B0, symBinAddr: 0x100005030, symSize: 0x38 }
  - { offsetInCU: 0x4EDBA, offset: 0x4EDBA, size: 0x8, addend: 0x0, symName: __ZNSt3__111make_sharedB8ue170006IN6spdlog6loggerEJRPKcNS_10shared_ptrINS1_5sinks21ansicolor_stdout_sinkINS1_7details13console_mutexEEEEEEvEENS6_IT_EEDpOT0_, symObjAddr: 0x40E8, symBinAddr: 0x100005068, symSize: 0x48 }
  - { offsetInCU: 0x4F04E, offset: 0x4F04E, size: 0x8, addend: 0x0, symName: __ZNSt3__111make_uniqueB8ue170006IN6spdlog7details14full_formatterEJNS2_12padding_infoEEEENS_11__unique_ifIT_E15__unique_singleEDpOT0_, symObjAddr: 0x5368, symBinAddr: 0x1000062E8, symSize: 0x7C }
  - { offsetInCU: 0x4F092, offset: 0x4F092, size: 0x8, addend: 0x0, symName: __ZNSt3__112__to_addressB8ue170006INS_10unique_ptrIN6spdlog7details14flag_formatterENS_14default_deleteIS4_EEEEEEPT_S9_, symObjAddr: 0x6298, symBinAddr: 0x100007218, symSize: 0x14 }
  - { offsetInCU: 0x4F0C7, offset: 0x4F0C7, size: 0x8, addend: 0x0, symName: __ZNSt3__13maxB8ue170006ImEERKT_S3_S3_, symObjAddr: 0x68E4, symBinAddr: 0x100007864, symSize: 0x2C }
  - { offsetInCU: 0x4F10A, offset: 0x4F10A, size: 0x8, addend: 0x0, symName: __ZNSt3__13minB8ue170006ImEERKT_S3_S3_, symObjAddr: 0x6910, symBinAddr: 0x100007890, symSize: 0x2C }
  - { offsetInCU: 0x4F339, offset: 0x4F339, size: 0x8, addend: 0x0, symName: __ZNSt3__13minB8ue170006ImNS_6__lessIvvEEEERKT_S5_S5_T0_, symObjAddr: 0x699C, symBinAddr: 0x10000791C, symSize: 0x54 }
  - { offsetInCU: 0x4F43D, offset: 0x4F43D, size: 0x8, addend: 0x0, symName: __ZNSt3__120__throw_length_errorB8ue170006EPKc, symObjAddr: 0x6A78, symBinAddr: 0x1000079F8, symSize: 0x64 }
  - { offsetInCU: 0x4F467, offset: 0x4F467, size: 0x8, addend: 0x0, symName: __ZNSt3__13maxB8ue170006ImNS_6__lessIvvEEEERKT_S5_S5_T0_, symObjAddr: 0x6BBC, symBinAddr: 0x100007B3C, symSize: 0x54 }
  - { offsetInCU: 0x4F4C1, offset: 0x4F4C1, size: 0x8, addend: 0x0, symName: __ZNSt3__119__allocate_at_leastB8ue170006INS_9allocatorINS_10unique_ptrIN6spdlog7details14flag_formatterENS_14default_deleteIS5_EEEEEEEENS_19__allocation_resultINS_16allocator_traitsIT_E7pointerEEERSC_m, symObjAddr: 0x6D20, symBinAddr: 0x100007CA0, symSize: 0x40 }
  - { offsetInCU: 0x4F504, offset: 0x4F504, size: 0x8, addend: 0x0, symName: __ZNSt3__117__libcpp_allocateB8ue170006Emm, symObjAddr: 0x6EA4, symBinAddr: 0x100007E24, symSize: 0x60 }
  - { offsetInCU: 0x4F55E, offset: 0x4F55E, size: 0x8, addend: 0x0, symName: __ZNSt3__121__libcpp_operator_newB8ue170006IJmSt11align_val_tEEEPvDpT_, symObjAddr: 0x6F04, symBinAddr: 0x100007E84, symSize: 0x2C }
  - { offsetInCU: 0x4F5AE, offset: 0x4F5AE, size: 0x8, addend: 0x0, symName: __ZNSt3__121__libcpp_operator_newB8ue170006IJmEEEPvDpT_, symObjAddr: 0x6F30, symBinAddr: 0x100007EB0, symSize: 0x24 }
  - { offsetInCU: 0x4F5E9, offset: 0x4F5E9, size: 0x8, addend: 0x0, symName: __ZNSt3__142__uninitialized_allocator_move_if_noexceptB8ue170006INS_9allocatorINS_10unique_ptrIN6spdlog7details14flag_formatterENS_14default_deleteIS5_EEEEEENS_16reverse_iteratorIPS8_EESC_SC_EET2_RT_T0_T1_SD_, symObjAddr: 0x7070, symBinAddr: 0x100007FF0, symSize: 0x12C }
  - { offsetInCU: 0x4F689, offset: 0x4F689, size: 0x8, addend: 0x0, symName: __ZNSt3__14swapB8ue170006IPNS_10unique_ptrIN6spdlog7details14flag_formatterENS_14default_deleteIS4_EEEEEENS_9enable_ifIXaasr21is_move_constructibleIT_EE5valuesr18is_move_assignableISA_EE5valueEvE4typeERSA_SD_, symObjAddr: 0x71E8, symBinAddr: 0x100008168, symSize: 0x3C }
  - { offsetInCU: 0x4F6DA, offset: 0x4F6DA, size: 0x8, addend: 0x0, symName: __ZNSt3__122__make_exception_guardB8ue170006INS_29_AllocatorDestroyRangeReverseINS_9allocatorINS_10unique_ptrIN6spdlog7details14flag_formatterENS_14default_deleteIS6_EEEEEENS_16reverse_iteratorIPS9_EEEEEENS_28__exception_guard_exceptionsIT_EESG_, symObjAddr: 0x7318, symBinAddr: 0x100008298, symSize: 0x4C }
  - { offsetInCU: 0x4F710, offset: 0x4F710, size: 0x8, addend: 0x0, symName: __ZNSt3__1neB8ue170006IPNS_10unique_ptrIN6spdlog7details14flag_formatterENS_14default_deleteIS4_EEEES8_EEbRKNS_16reverse_iteratorIT_EERKNS9_IT0_EE, symObjAddr: 0x73A8, symBinAddr: 0x100008328, symSize: 0x48 }
  - { offsetInCU: 0x4F75C, offset: 0x4F75C, size: 0x8, addend: 0x0, symName: __ZNSt3__112__to_addressB8ue170006INS_16reverse_iteratorIPNS_10unique_ptrIN6spdlog7details14flag_formatterENS_14default_deleteIS5_EEEEEEvEEu7__decayIDTclsr19__to_address_helperIT_EE6__callclsr3stdE7declvalIRKSB_EEEEESD_, symObjAddr: 0x73F0, symBinAddr: 0x100008370, symSize: 0x24 }
  - { offsetInCU: 0x4F7BD, offset: 0x4F7BD, size: 0x8, addend: 0x0, symName: __ZNSt3__119__allocator_destroyB8ue170006INS_9allocatorINS_10unique_ptrIN6spdlog7details14flag_formatterENS_14default_deleteIS5_EEEEEENS_16reverse_iteratorINSA_IPS8_EEEESD_EEvRT_T0_T1_, symObjAddr: 0x76A0, symBinAddr: 0x100008620, symSize: 0x70 }
  - { offsetInCU: 0x4F822, offset: 0x4F822, size: 0x8, addend: 0x0, symName: __ZNSt3__1neB8ue170006INS_16reverse_iteratorIPNS_10unique_ptrIN6spdlog7details14flag_formatterENS_14default_deleteIS5_EEEEEESA_EEbRKNS1_IT_EERKNS1_IT0_EE, symObjAddr: 0x774C, symBinAddr: 0x1000086CC, symSize: 0x60 }
  - { offsetInCU: 0x4F86E, offset: 0x4F86E, size: 0x8, addend: 0x0, symName: __ZNSt3__112__to_addressB8ue170006INS_16reverse_iteratorINS1_IPNS_10unique_ptrIN6spdlog7details14flag_formatterENS_14default_deleteIS5_EEEEEEEEvEEu7__decayIDTclsr19__to_address_helperIT_EE6__callclsr3stdE7declvalIRKSC_EEEEESE_, symObjAddr: 0x77D8, symBinAddr: 0x100008758, symSize: 0x24 }
  - { offsetInCU: 0x4F8CE, offset: 0x4F8CE, size: 0x8, addend: 0x0, symName: __ZNSt3__120uninitialized_copy_nB8ue170006IPcmS1_EET1_T_T0_S2_, symObjAddr: 0x86D8, symBinAddr: 0x100009658, symSize: 0x40 }
  - { offsetInCU: 0x4F966, offset: 0x4F966, size: 0x8, addend: 0x0, symName: __ZNSt3__122__uninitialized_copy_nB8ue170006IcPcmS1_NS_22__unreachable_sentinelEEENS_4pairIT0_T2_EES4_T1_S5_T3_, symObjAddr: 0x8794, symBinAddr: 0x100009714, symSize: 0xD4 }
  - { offsetInCU: 0x4FA14, offset: 0x4FA14, size: 0x8, addend: 0x0, symName: __ZNSt3__1neB8ue170006IPcEEbRKT_NS_22__unreachable_sentinelE, symObjAddr: 0x8868, symBinAddr: 0x1000097E8, symSize: 0x18 }
  - { offsetInCU: 0x4FA51, offset: 0x4FA51, size: 0x8, addend: 0x0, symName: __ZNSt3__19__destroyB8ue170006IPcEET_S2_S2_, symObjAddr: 0x8880, symBinAddr: 0x100009800, symSize: 0x5C }
  - { offsetInCU: 0x4FB69, offset: 0x4FB69, size: 0x8, addend: 0x0, symName: __ZNSt3__112__destroy_atB8ue170006IcLi0EEEvPT_, symObjAddr: 0x8918, symBinAddr: 0x100009898, symSize: 0x10 }
  - { offsetInCU: 0x4FBD3, offset: 0x4FBD3, size: 0x8, addend: 0x0, symName: __ZNSt3__17launderB8ue170006INS_4pairIKNS_12basic_stringIcNS_11char_traitsIcEENS_9allocatorIcEEEES7_EEEEPT_SB_, symObjAddr: 0x9488, symBinAddr: 0x10000A408, symSize: 0x24 }
  - { offsetInCU: 0x4FC0A, offset: 0x4FC0A, size: 0x8, addend: 0x0, symName: __ZNSt3__19__launderB8ue170006INS_4pairIKNS_12basic_stringIcNS_11char_traitsIcEENS_9allocatorIcEEEES7_EEEEPT_SB_, symObjAddr: 0x94AC, symBinAddr: 0x10000A42C, symSize: 0x14 }
  - { offsetInCU: 0x4FC41, offset: 0x4FC41, size: 0x8, addend: 0x0, symName: __ZNSt3__1neB8ue170006ERKNS_20__map_const_iteratorINS_21__tree_const_iteratorINS_12__value_typeINS_12basic_stringIcNS_11char_traitsIcEENS_9allocatorIcEEEES8_EEPNS_11__tree_nodeIS9_PvEElEEEESH_, symObjAddr: 0x9684, symBinAddr: 0x10000A604, symSize: 0x30 }
  - { offsetInCU: 0x4FC7E, offset: 0x4FC7E, size: 0x8, addend: 0x0, symName: __ZNSt3__116__tree_prev_iterB8ue170006IPNS_16__tree_node_baseIPvEEPNS_15__tree_end_nodeIS4_EEEET_T0_, symObjAddr: 0x9918, symBinAddr: 0x10000A898, symSize: 0xA4 }
  - { offsetInCU: 0x4FCCA, offset: 0x4FCCA, size: 0x8, addend: 0x0, symName: __ZNSt3__110__tree_maxB8ue170006IPNS_16__tree_node_baseIPvEEEET_S5_, symObjAddr: 0x99BC, symBinAddr: 0x10000A93C, symSize: 0x40 }
  - { offsetInCU: 0x4FCFF, offset: 0x4FCFF, size: 0x8, addend: 0x0, symName: __ZNSt3__120__tree_is_left_childB8ue170006IPNS_16__tree_node_baseIPvEEEEbT_, symObjAddr: 0x99FC, symBinAddr: 0x10000A97C, symSize: 0x2C }
  - { offsetInCU: 0x4FD34, offset: 0x4FD34, size: 0x8, addend: 0x0, symName: __ZNSt3__1neB8ue170006ERKNS_21__tree_const_iteratorINS_12__value_typeINS_12basic_stringIcNS_11char_traitsIcEENS_9allocatorIcEEEES7_EEPNS_11__tree_nodeIS8_PvEElEESF_, symObjAddr: 0x9A88, symBinAddr: 0x10000AA08, symSize: 0x34 }
  - { offsetInCU: 0x4FD71, offset: 0x4FD71, size: 0x8, addend: 0x0, symName: __ZNSt3__1eqB8ue170006ERKNS_21__tree_const_iteratorINS_12__value_typeINS_12basic_stringIcNS_11char_traitsIcEENS_9allocatorIcEEEES7_EEPNS_11__tree_nodeIS8_PvEElEESF_, symObjAddr: 0x9ABC, symBinAddr: 0x10000AA3C, symSize: 0x30 }
  - { offsetInCU: 0x4FDE1, offset: 0x4FDE1, size: 0x8, addend: 0x0, symName: __ZNSt3__17launderB8ue170006IKNS_4pairIKNS_12basic_stringIcNS_11char_traitsIcEENS_9allocatorIcEEEES7_EEEEPT_SC_, symObjAddr: 0x9B68, symBinAddr: 0x10000AAE8, symSize: 0x24 }
  - { offsetInCU: 0x4FE18, offset: 0x4FE18, size: 0x8, addend: 0x0, symName: __ZNSt3__19__launderB8ue170006IKNS_4pairIKNS_12basic_stringIcNS_11char_traitsIcEENS_9allocatorIcEEEES7_EEEEPT_SC_, symObjAddr: 0x9B8C, symBinAddr: 0x10000AB0C, symSize: 0x14 }
  - { offsetInCU: 0x4FE4F, offset: 0x4FE4F, size: 0x8, addend: 0x0, symName: __ZNSt3__120uninitialized_copy_nB8ue170006IPKcmPcEET1_T_T0_S4_, symObjAddr: 0x9DC4, symBinAddr: 0x10000AD44, symSize: 0x40 }
  - { offsetInCU: 0x4FEC0, offset: 0x4FEC0, size: 0x8, addend: 0x0, symName: __ZNSt3__122__uninitialized_copy_nB8ue170006IcPKcmPcNS_22__unreachable_sentinelEEENS_4pairIT0_T2_EES6_T1_S7_T3_, symObjAddr: 0x9E04, symBinAddr: 0x10000AD84, symSize: 0xC4 }
  - { offsetInCU: 0x50042, offset: 0x50042, size: 0x8, addend: 0x0, symName: __ZNSt3__112__to_addressB8ue170006IKcEEPT_S3_, symObjAddr: 0x9FAC, symBinAddr: 0x10000AF2C, symSize: 0x14 }
  - { offsetInCU: 0x500AA, offset: 0x500AA, size: 0x8, addend: 0x0, symName: __ZNSt3__116__tree_next_iterB8ue170006IPNS_15__tree_end_nodeIPNS_16__tree_node_baseIPvEEEES5_EET_T0_, symObjAddr: 0xA0B0, symBinAddr: 0x10000B030, symSize: 0x80 }
  - { offsetInCU: 0x500E8, offset: 0x500E8, size: 0x8, addend: 0x0, symName: __ZNSt3__110__tree_minB8ue170006IPNS_16__tree_node_baseIPvEEEET_S5_, symObjAddr: 0xA130, symBinAddr: 0x10000B0B0, symSize: 0x40 }
  - { offsetInCU: 0x5011D, offset: 0x5011D, size: 0x8, addend: 0x0, symName: __ZNSt3__113back_inserterB8ue170006IN3fmt3v1019basic_memory_bufferIcLm250ENS_9allocatorIcEEEEEENS_20back_insert_iteratorIT_EERS8_, symObjAddr: 0xACF0, symBinAddr: 0x10000BC70, symSize: 0x2C }
  - { offsetInCU: 0x50185, offset: 0x50185, size: 0x8, addend: 0x0, symName: __ZNSt3__17launderB8ue170006INS_4pairIKcNS_10unique_ptrIN6spdlog21custom_flag_formatterENS_14default_deleteIS5_EEEEEEEEPT_SB_, symObjAddr: 0xBE18, symBinAddr: 0x10000CD98, symSize: 0x24 }
  - { offsetInCU: 0x501BC, offset: 0x501BC, size: 0x8, addend: 0x0, symName: __ZNSt3__19__launderB8ue170006INS_4pairIKcNS_10unique_ptrIN6spdlog21custom_flag_formatterENS_14default_deleteIS5_EEEEEEEEPT_SB_, symObjAddr: 0xBE3C, symBinAddr: 0x10000CDBC, symSize: 0x14 }
  - { offsetInCU: 0x501F3, offset: 0x501F3, size: 0x8, addend: 0x0, symName: __ZNSt3__1neB8ue170006IPNS_10unique_ptrIN6spdlog7details14flag_formatterENS_14default_deleteIS4_EEEEEEbRKNS_11__wrap_iterIT_EESD_, symObjAddr: 0xC454, symBinAddr: 0x10000D3D4, symSize: 0x34 }
  - { offsetInCU: 0x50236, offset: 0x50236, size: 0x8, addend: 0x0, symName: __ZNSt3__1eqB8ue170006IPNS_10unique_ptrIN6spdlog7details14flag_formatterENS_14default_deleteIS4_EEEEEEbRKNS_11__wrap_iterIT_EESD_, symObjAddr: 0xC5CC, symBinAddr: 0x10000D54C, symSize: 0x48 }
  - { offsetInCU: 0x50279, offset: 0x50279, size: 0x8, addend: 0x0, symName: __ZNSt3__1neB8ue170006ERKNS_25__hash_map_const_iteratorINS_21__hash_const_iteratorIPNS_11__hash_nodeINS_17__hash_value_typeIcNS_10unique_ptrIN6spdlog21custom_flag_formatterENS_14default_deleteIS6_EEEEEEPvEEEEEESH_, symObjAddr: 0xC6D4, symBinAddr: 0x10000D654, symSize: 0x30 }
  - { offsetInCU: 0x502B6, offset: 0x502B6, size: 0x8, addend: 0x0, symName: __ZNSt3__111make_uniqueB8ue170006IN6spdlog17pattern_formatterEJRKNS_12basic_stringIcNS_11char_traitsIcEENS_9allocatorIcEEEERKNS1_17pattern_time_typeESA_NS_13unordered_mapIcNS_10unique_ptrINS1_21custom_flag_formatterENS_14default_deleteISG_EEEENS_4hashIcEENS_8equal_toIcEENS6_INS_4pairIKcSJ_EEEEEEEEENS_11__unique_ifIT_E15__unique_singleEDpOT0_, symObjAddr: 0xC850, symBinAddr: 0x10000D7D0, symSize: 0x15C }
  - { offsetInCU: 0x50339, offset: 0x50339, size: 0x8, addend: 0x0, symName: __ZNSt3__1neB8ue170006ERKNS_21__hash_const_iteratorIPNS_11__hash_nodeINS_17__hash_value_typeIcNS_10unique_ptrIN6spdlog21custom_flag_formatterENS_14default_deleteIS5_EEEEEEPvEEEESF_, symObjAddr: 0xCBA4, symBinAddr: 0x10000DB24, symSize: 0x34 }
  - { offsetInCU: 0x50376, offset: 0x50376, size: 0x8, addend: 0x0, symName: __ZNSt3__1eqB8ue170006ERKNS_21__hash_const_iteratorIPNS_11__hash_nodeINS_17__hash_value_typeIcNS_10unique_ptrIN6spdlog21custom_flag_formatterENS_14default_deleteIS5_EEEEEEPvEEEESF_, symObjAddr: 0xCBD8, symBinAddr: 0x10000DB58, symSize: 0x30 }
  - { offsetInCU: 0x503E6, offset: 0x503E6, size: 0x8, addend: 0x0, symName: __ZNSt3__17launderB8ue170006IKNS_4pairIKcNS_10unique_ptrIN6spdlog21custom_flag_formatterENS_14default_deleteIS5_EEEEEEEEPT_SC_, symObjAddr: 0xCC70, symBinAddr: 0x10000DBF0, symSize: 0x24 }
  - { offsetInCU: 0x5041D, offset: 0x5041D, size: 0x8, addend: 0x0, symName: __ZNSt3__19__launderB8ue170006IKNS_4pairIKcNS_10unique_ptrIN6spdlog21custom_flag_formatterENS_14default_deleteIS5_EEEEEEEEPT_SC_, symObjAddr: 0xCC94, symBinAddr: 0x10000DC14, symSize: 0x14 }
  - { offsetInCU: 0x5048C, offset: 0x5048C, size: 0x8, addend: 0x0, symName: __ZNSt3__116forward_as_tupleB8ue170006IJRKcEEENS_5tupleIJDpOT_EEES6_, symObjAddr: 0xD1C8, symBinAddr: 0x10000E148, symSize: 0x2C }
  - { offsetInCU: 0x504C7, offset: 0x504C7, size: 0x8, addend: 0x0, symName: __ZNSt3__116forward_as_tupleB8ue170006IJEEENS_5tupleIJDpOT_EEES4_, symObjAddr: 0xD1F4, symBinAddr: 0x10000E174, symSize: 0x4 }
  - { offsetInCU: 0x504EC, offset: 0x504EC, size: 0x8, addend: 0x0, symName: __ZNSt3__116__constrain_hashB8ue170006Emm, symObjAddr: 0xD2A8, symBinAddr: 0x10000E228, symSize: 0x98 }
  - { offsetInCU: 0x50526, offset: 0x50526, size: 0x8, addend: 0x0, symName: __ZNSt3__116__is_hash_power2B8ue170006Em, symObjAddr: 0xD5C8, symBinAddr: 0x10000E548, symSize: 0x50 }
  - { offsetInCU: 0x5057C, offset: 0x5057C, size: 0x8, addend: 0x0, symName: __ZNSt3__13getB8ue170006ILm0EJRKcEEERNS_13tuple_elementIXT_ENS_5tupleIJDpT0_EEEE4typeERS7_, symObjAddr: 0xDD28, symBinAddr: 0x10000ECA8, symSize: 0x24 }
  - { offsetInCU: 0x505C1, offset: 0x505C1, size: 0x8, addend: 0x0, symName: __ZNSt3__116__next_hash_pow2B8ue170006Em, symObjAddr: 0xE338, symBinAddr: 0x10000F2B8, symSize: 0x6C }
  - { offsetInCU: 0x505ED, offset: 0x505ED, size: 0x8, addend: 0x0, symName: __ZNSt3__112__libcpp_clzB8ue170006Em, symObjAddr: 0xE4FC, symBinAddr: 0x10000F47C, symSize: 0x1C }
  - { offsetInCU: 0x50673, offset: 0x50673, size: 0x8, addend: 0x0, symName: __ZNSt3__1neB8ue170006IPKcEEbRKNS_11__wrap_iterIT_EES7_, symObjAddr: 0xF204, symBinAddr: 0x100010184, symSize: 0x34 }
  - { offsetInCU: 0x506B6, offset: 0x506B6, size: 0x8, addend: 0x0, symName: __ZNSt3__111make_uniqueB8ue170006IN6spdlog7details19aggregate_formatterEJEEENS_11__unique_ifIT_E15__unique_singleEDpOT0_, symObjAddr: 0x12534, symBinAddr: 0x1000134B4, symSize: 0x50 }
  - { offsetInCU: 0x506E4, offset: 0x506E4, size: 0x8, addend: 0x0, symName: __ZNSt3__1eqB8ue170006IPKcEEbRKNS_11__wrap_iterIT_EES7_, symObjAddr: 0x12870, symBinAddr: 0x1000137F0, symSize: 0x48 }
  - { offsetInCU: 0x50727, offset: 0x50727, size: 0x8, addend: 0x0, symName: __ZNSt3__1neB8ue170006ERKNS_19__hash_map_iteratorINS_15__hash_iteratorIPNS_11__hash_nodeINS_17__hash_value_typeIcNS_10unique_ptrIN6spdlog21custom_flag_formatterENS_14default_deleteIS6_EEEEEEPvEEEEEESH_, symObjAddr: 0x12CBC, symBinAddr: 0x100013C3C, symSize: 0x30 }
  - { offsetInCU: 0x50764, offset: 0x50764, size: 0x8, addend: 0x0, symName: __ZNSt3__111make_uniqueB8ue170006IN6spdlog7details14full_formatterEJRNS2_12padding_infoEEEENS_11__unique_ifIT_E15__unique_singleEDpOT0_, symObjAddr: 0x12DB0, symBinAddr: 0x100013D30, symSize: 0x7C }
  - { offsetInCU: 0x507A8, offset: 0x507A8, size: 0x8, addend: 0x0, symName: __ZNSt3__111make_uniqueB8ue170006IN6spdlog7details14name_formatterINS2_13scoped_padderEEEJRNS2_12padding_infoEEEENS_11__unique_ifIT_E15__unique_singleEDpOT0_, symObjAddr: 0x12E2C, symBinAddr: 0x100013DAC, symSize: 0x7C }
  - { offsetInCU: 0x507EC, offset: 0x507EC, size: 0x8, addend: 0x0, symName: __ZNSt3__111make_uniqueB8ue170006IN6spdlog7details15level_formatterINS2_13scoped_padderEEEJRNS2_12padding_infoEEEENS_11__unique_ifIT_E15__unique_singleEDpOT0_, symObjAddr: 0x12F08, symBinAddr: 0x100013E88, symSize: 0x7C }
  - { offsetInCU: 0x50830, offset: 0x50830, size: 0x8, addend: 0x0, symName: __ZNSt3__111make_uniqueB8ue170006IN6spdlog7details21short_level_formatterINS2_13scoped_padderEEEJRNS2_12padding_infoEEEENS_11__unique_ifIT_E15__unique_singleEDpOT0_, symObjAddr: 0x12FE4, symBinAddr: 0x100013F64, symSize: 0x7C }
  - { offsetInCU: 0x50874, offset: 0x50874, size: 0x8, addend: 0x0, symName: __ZNSt3__111make_uniqueB8ue170006IN6spdlog7details11t_formatterINS2_13scoped_padderEEEJRNS2_12padding_infoEEEENS_11__unique_ifIT_E15__unique_singleEDpOT0_, symObjAddr: 0x130C0, symBinAddr: 0x100014040, symSize: 0x7C }
  - { offsetInCU: 0x508B8, offset: 0x508B8, size: 0x8, addend: 0x0, symName: __ZNSt3__111make_uniqueB8ue170006IN6spdlog7details11v_formatterINS2_13scoped_padderEEEJRNS2_12padding_infoEEEENS_11__unique_ifIT_E15__unique_singleEDpOT0_, symObjAddr: 0x1319C, symBinAddr: 0x10001411C, symSize: 0x7C }
  - { offsetInCU: 0x508FC, offset: 0x508FC, size: 0x8, addend: 0x0, symName: __ZNSt3__111make_uniqueB8ue170006IN6spdlog7details11a_formatterINS2_13scoped_padderEEEJRNS2_12padding_infoEEEENS_11__unique_ifIT_E15__unique_singleEDpOT0_, symObjAddr: 0x13278, symBinAddr: 0x1000141F8, symSize: 0x7C }
  - { offsetInCU: 0x50940, offset: 0x50940, size: 0x8, addend: 0x0, symName: __ZNSt3__111make_uniqueB8ue170006IN6spdlog7details11A_formatterINS2_13scoped_padderEEEJRNS2_12padding_infoEEEENS_11__unique_ifIT_E15__unique_singleEDpOT0_, symObjAddr: 0x13354, symBinAddr: 0x1000142D4, symSize: 0x7C }
  - { offsetInCU: 0x50984, offset: 0x50984, size: 0x8, addend: 0x0, symName: __ZNSt3__111make_uniqueB8ue170006IN6spdlog7details11b_formatterINS2_13scoped_padderEEEJRNS2_12padding_infoEEEENS_11__unique_ifIT_E15__unique_singleEDpOT0_, symObjAddr: 0x13430, symBinAddr: 0x1000143B0, symSize: 0x7C }
  - { offsetInCU: 0x509C8, offset: 0x509C8, size: 0x8, addend: 0x0, symName: __ZNSt3__111make_uniqueB8ue170006IN6spdlog7details11B_formatterINS2_13scoped_padderEEEJRNS2_12padding_infoEEEENS_11__unique_ifIT_E15__unique_singleEDpOT0_, symObjAddr: 0x1350C, symBinAddr: 0x10001448C, symSize: 0x7C }
  - { offsetInCU: 0x50A0C, offset: 0x50A0C, size: 0x8, addend: 0x0, symName: __ZNSt3__111make_uniqueB8ue170006IN6spdlog7details11c_formatterINS2_13scoped_padderEEEJRNS2_12padding_infoEEEENS_11__unique_ifIT_E15__unique_singleEDpOT0_, symObjAddr: 0x135E8, symBinAddr: 0x100014568, symSize: 0x7C }
  - { offsetInCU: 0x50A50, offset: 0x50A50, size: 0x8, addend: 0x0, symName: __ZNSt3__111make_uniqueB8ue170006IN6spdlog7details11C_formatterINS2_13scoped_padderEEEJRNS2_12padding_infoEEEENS_11__unique_ifIT_E15__unique_singleEDpOT0_, symObjAddr: 0x136C4, symBinAddr: 0x100014644, symSize: 0x7C }
  - { offsetInCU: 0x50A94, offset: 0x50A94, size: 0x8, addend: 0x0, symName: __ZNSt3__111make_uniqueB8ue170006IN6spdlog7details11Y_formatterINS2_13scoped_padderEEEJRNS2_12padding_infoEEEENS_11__unique_ifIT_E15__unique_singleEDpOT0_, symObjAddr: 0x137A0, symBinAddr: 0x100014720, symSize: 0x7C }
  - { offsetInCU: 0x50AD8, offset: 0x50AD8, size: 0x8, addend: 0x0, symName: __ZNSt3__111make_uniqueB8ue170006IN6spdlog7details11D_formatterINS2_13scoped_padderEEEJRNS2_12padding_infoEEEENS_11__unique_ifIT_E15__unique_singleEDpOT0_, symObjAddr: 0x1387C, symBinAddr: 0x1000147FC, symSize: 0x7C }
  - { offsetInCU: 0x50B1C, offset: 0x50B1C, size: 0x8, addend: 0x0, symName: __ZNSt3__111make_uniqueB8ue170006IN6spdlog7details11m_formatterINS2_13scoped_padderEEEJRNS2_12padding_infoEEEENS_11__unique_ifIT_E15__unique_singleEDpOT0_, symObjAddr: 0x13958, symBinAddr: 0x1000148D8, symSize: 0x7C }
  - { offsetInCU: 0x50B60, offset: 0x50B60, size: 0x8, addend: 0x0, symName: __ZNSt3__111make_uniqueB8ue170006IN6spdlog7details11d_formatterINS2_13scoped_padderEEEJRNS2_12padding_infoEEEENS_11__unique_ifIT_E15__unique_singleEDpOT0_, symObjAddr: 0x13A34, symBinAddr: 0x1000149B4, symSize: 0x7C }
  - { offsetInCU: 0x50BA4, offset: 0x50BA4, size: 0x8, addend: 0x0, symName: __ZNSt3__111make_uniqueB8ue170006IN6spdlog7details11H_formatterINS2_13scoped_padderEEEJRNS2_12padding_infoEEEENS_11__unique_ifIT_E15__unique_singleEDpOT0_, symObjAddr: 0x13B10, symBinAddr: 0x100014A90, symSize: 0x7C }
  - { offsetInCU: 0x50BE8, offset: 0x50BE8, size: 0x8, addend: 0x0, symName: __ZNSt3__111make_uniqueB8ue170006IN6spdlog7details11I_formatterINS2_13scoped_padderEEEJRNS2_12padding_infoEEEENS_11__unique_ifIT_E15__unique_singleEDpOT0_, symObjAddr: 0x13BEC, symBinAddr: 0x100014B6C, symSize: 0x7C }
  - { offsetInCU: 0x50C2C, offset: 0x50C2C, size: 0x8, addend: 0x0, symName: __ZNSt3__111make_uniqueB8ue170006IN6spdlog7details11M_formatterINS2_13scoped_padderEEEJRNS2_12padding_infoEEEENS_11__unique_ifIT_E15__unique_singleEDpOT0_, symObjAddr: 0x13CC8, symBinAddr: 0x100014C48, symSize: 0x7C }
  - { offsetInCU: 0x50C70, offset: 0x50C70, size: 0x8, addend: 0x0, symName: __ZNSt3__111make_uniqueB8ue170006IN6spdlog7details11S_formatterINS2_13scoped_padderEEEJRNS2_12padding_infoEEEENS_11__unique_ifIT_E15__unique_singleEDpOT0_, symObjAddr: 0x13DA4, symBinAddr: 0x100014D24, symSize: 0x7C }
  - { offsetInCU: 0x50CB4, offset: 0x50CB4, size: 0x8, addend: 0x0, symName: __ZNSt3__111make_uniqueB8ue170006IN6spdlog7details11e_formatterINS2_13scoped_padderEEEJRNS2_12padding_infoEEEENS_11__unique_ifIT_E15__unique_singleEDpOT0_, symObjAddr: 0x13E80, symBinAddr: 0x100014E00, symSize: 0x7C }
  - { offsetInCU: 0x50CF8, offset: 0x50CF8, size: 0x8, addend: 0x0, symName: __ZNSt3__111make_uniqueB8ue170006IN6spdlog7details11f_formatterINS2_13scoped_padderEEEJRNS2_12padding_infoEEEENS_11__unique_ifIT_E15__unique_singleEDpOT0_, symObjAddr: 0x13F5C, symBinAddr: 0x100014EDC, symSize: 0x7C }
  - { offsetInCU: 0x50D3C, offset: 0x50D3C, size: 0x8, addend: 0x0, symName: __ZNSt3__111make_uniqueB8ue170006IN6spdlog7details11F_formatterINS2_13scoped_padderEEEJRNS2_12padding_infoEEEENS_11__unique_ifIT_E15__unique_singleEDpOT0_, symObjAddr: 0x14038, symBinAddr: 0x100014FB8, symSize: 0x7C }
  - { offsetInCU: 0x50D80, offset: 0x50D80, size: 0x8, addend: 0x0, symName: __ZNSt3__111make_uniqueB8ue170006IN6spdlog7details11E_formatterINS2_13scoped_padderEEEJRNS2_12padding_infoEEEENS_11__unique_ifIT_E15__unique_singleEDpOT0_, symObjAddr: 0x14114, symBinAddr: 0x100015094, symSize: 0x7C }
  - { offsetInCU: 0x50DC4, offset: 0x50DC4, size: 0x8, addend: 0x0, symName: __ZNSt3__111make_uniqueB8ue170006IN6spdlog7details11p_formatterINS2_13scoped_padderEEEJRNS2_12padding_infoEEEENS_11__unique_ifIT_E15__unique_singleEDpOT0_, symObjAddr: 0x141F0, symBinAddr: 0x100015170, symSize: 0x7C }
  - { offsetInCU: 0x50E08, offset: 0x50E08, size: 0x8, addend: 0x0, symName: __ZNSt3__111make_uniqueB8ue170006IN6spdlog7details11r_formatterINS2_13scoped_padderEEEJRNS2_12padding_infoEEEENS_11__unique_ifIT_E15__unique_singleEDpOT0_, symObjAddr: 0x142CC, symBinAddr: 0x10001524C, symSize: 0x7C }
  - { offsetInCU: 0x50E4C, offset: 0x50E4C, size: 0x8, addend: 0x0, symName: __ZNSt3__111make_uniqueB8ue170006IN6spdlog7details11R_formatterINS2_13scoped_padderEEEJRNS2_12padding_infoEEEENS_11__unique_ifIT_E15__unique_singleEDpOT0_, symObjAddr: 0x143A8, symBinAddr: 0x100015328, symSize: 0x7C }
  - { offsetInCU: 0x50E90, offset: 0x50E90, size: 0x8, addend: 0x0, symName: __ZNSt3__111make_uniqueB8ue170006IN6spdlog7details11T_formatterINS2_13scoped_padderEEEJRNS2_12padding_infoEEEENS_11__unique_ifIT_E15__unique_singleEDpOT0_, symObjAddr: 0x14484, symBinAddr: 0x100015404, symSize: 0x7C }
  - { offsetInCU: 0x50ED4, offset: 0x50ED4, size: 0x8, addend: 0x0, symName: __ZNSt3__111make_uniqueB8ue170006IN6spdlog7details11z_formatterINS2_13scoped_padderEEEJRNS2_12padding_infoEEEENS_11__unique_ifIT_E15__unique_singleEDpOT0_, symObjAddr: 0x14560, symBinAddr: 0x1000154E0, symSize: 0x7C }
  - { offsetInCU: 0x50F18, offset: 0x50F18, size: 0x8, addend: 0x0, symName: __ZNSt3__111make_uniqueB8ue170006IN6spdlog7details13pid_formatterINS2_13scoped_padderEEEJRNS2_12padding_infoEEEENS_11__unique_ifIT_E15__unique_singleEDpOT0_, symObjAddr: 0x1463C, symBinAddr: 0x1000155BC, symSize: 0x7C }
  - { offsetInCU: 0x50F5C, offset: 0x50F5C, size: 0x8, addend: 0x0, symName: __ZNSt3__111make_uniqueB8ue170006IN6spdlog7details21color_start_formatterEJRNS2_12padding_infoEEEENS_11__unique_ifIT_E15__unique_singleEDpOT0_, symObjAddr: 0x14718, symBinAddr: 0x100015698, symSize: 0x7C }
  - { offsetInCU: 0x50FA0, offset: 0x50FA0, size: 0x8, addend: 0x0, symName: __ZNSt3__111make_uniqueB8ue170006IN6spdlog7details20color_stop_formatterEJRNS2_12padding_infoEEEENS_11__unique_ifIT_E15__unique_singleEDpOT0_, symObjAddr: 0x147F4, symBinAddr: 0x100015774, symSize: 0x7C }
  - { offsetInCU: 0x50FE4, offset: 0x50FE4, size: 0x8, addend: 0x0, symName: __ZNSt3__111make_uniqueB8ue170006IN6spdlog7details25source_location_formatterINS2_13scoped_padderEEEJRNS2_12padding_infoEEEENS_11__unique_ifIT_E15__unique_singleEDpOT0_, symObjAddr: 0x148D0, symBinAddr: 0x100015850, symSize: 0x7C }
  - { offsetInCU: 0x51028, offset: 0x51028, size: 0x8, addend: 0x0, symName: __ZNSt3__111make_uniqueB8ue170006IN6spdlog7details24short_filename_formatterINS2_13scoped_padderEEEJRNS2_12padding_infoEEEENS_11__unique_ifIT_E15__unique_singleEDpOT0_, symObjAddr: 0x149AC, symBinAddr: 0x10001592C, symSize: 0x7C }
  - { offsetInCU: 0x5106C, offset: 0x5106C, size: 0x8, addend: 0x0, symName: __ZNSt3__111make_uniqueB8ue170006IN6spdlog7details25source_filename_formatterINS2_13scoped_padderEEEJRNS2_12padding_infoEEEENS_11__unique_ifIT_E15__unique_singleEDpOT0_, symObjAddr: 0x14A88, symBinAddr: 0x100015A08, symSize: 0x7C }
  - { offsetInCU: 0x510B0, offset: 0x510B0, size: 0x8, addend: 0x0, symName: __ZNSt3__111make_uniqueB8ue170006IN6spdlog7details24source_linenum_formatterINS2_13scoped_padderEEEJRNS2_12padding_infoEEEENS_11__unique_ifIT_E15__unique_singleEDpOT0_, symObjAddr: 0x14B64, symBinAddr: 0x100015AE4, symSize: 0x7C }
  - { offsetInCU: 0x510F4, offset: 0x510F4, size: 0x8, addend: 0x0, symName: __ZNSt3__111make_uniqueB8ue170006IN6spdlog7details25source_funcname_formatterINS2_13scoped_padderEEEJRNS2_12padding_infoEEEENS_11__unique_ifIT_E15__unique_singleEDpOT0_, symObjAddr: 0x14C40, symBinAddr: 0x100015BC0, symSize: 0x7C }
  - { offsetInCU: 0x51138, offset: 0x51138, size: 0x8, addend: 0x0, symName: __ZNSt3__111make_uniqueB8ue170006IN6spdlog7details12ch_formatterEJcEEENS_11__unique_ifIT_E15__unique_singleEDpOT0_, symObjAddr: 0x14D1C, symBinAddr: 0x100015C9C, symSize: 0x70 }
  - { offsetInCU: 0x5117C, offset: 0x5117C, size: 0x8, addend: 0x0, symName: __ZNSt3__111make_uniqueB8ue170006IN6spdlog7details17elapsed_formatterINS2_13scoped_padderENS_6chrono8durationIxNS_5ratioILl1ELl1000000000EEEEEEEJRNS2_12padding_infoEEEENS_11__unique_ifIT_E15__unique_singleEDpOT0_, symObjAddr: 0x14DEC, symBinAddr: 0x100015D6C, symSize: 0x7C }
  - { offsetInCU: 0x511C0, offset: 0x511C0, size: 0x8, addend: 0x0, symName: __ZNSt3__111make_uniqueB8ue170006IN6spdlog7details17elapsed_formatterINS2_13scoped_padderENS_6chrono8durationIxNS_5ratioILl1ELl1000000EEEEEEEJRNS2_12padding_infoEEEENS_11__unique_ifIT_E15__unique_singleEDpOT0_, symObjAddr: 0x14EC8, symBinAddr: 0x100015E48, symSize: 0x7C }
  - { offsetInCU: 0x51204, offset: 0x51204, size: 0x8, addend: 0x0, symName: __ZNSt3__111make_uniqueB8ue170006IN6spdlog7details17elapsed_formatterINS2_13scoped_padderENS_6chrono8durationIxNS_5ratioILl1ELl1000EEEEEEEJRNS2_12padding_infoEEEENS_11__unique_ifIT_E15__unique_singleEDpOT0_, symObjAddr: 0x14FA4, symBinAddr: 0x100015F24, symSize: 0x7C }
  - { offsetInCU: 0x51248, offset: 0x51248, size: 0x8, addend: 0x0, symName: __ZNSt3__111make_uniqueB8ue170006IN6spdlog7details17elapsed_formatterINS2_13scoped_padderENS_6chrono8durationIxNS_5ratioILl1ELl1EEEEEEEJRNS2_12padding_infoEEEENS_11__unique_ifIT_E15__unique_singleEDpOT0_, symObjAddr: 0x15080, symBinAddr: 0x100016000, symSize: 0x7C }
  - { offsetInCU: 0x5128C, offset: 0x5128C, size: 0x8, addend: 0x0, symName: __ZNSt3__111make_uniqueB8ue170006IN6spdlog7details13mdc_formatterINS2_13scoped_padderEEEJRNS2_12padding_infoEEEENS_11__unique_ifIT_E15__unique_singleEDpOT0_, symObjAddr: 0x1515C, symBinAddr: 0x1000160DC, symSize: 0x7C }
  - { offsetInCU: 0x512D0, offset: 0x512D0, size: 0x8, addend: 0x0, symName: __ZNSt3__1neB8ue170006ERKNS_15__hash_iteratorIPNS_11__hash_nodeINS_17__hash_value_typeIcNS_10unique_ptrIN6spdlog21custom_flag_formatterENS_14default_deleteIS5_EEEEEEPvEEEESF_, symObjAddr: 0x15468, symBinAddr: 0x1000163E8, symSize: 0x34 }
  - { offsetInCU: 0x5130D, offset: 0x5130D, size: 0x8, addend: 0x0, symName: __ZNSt3__1eqB8ue170006ERKNS_15__hash_iteratorIPNS_11__hash_nodeINS_17__hash_value_typeIcNS_10unique_ptrIN6spdlog21custom_flag_formatterENS_14default_deleteIS5_EEEEEEPvEEEESF_, symObjAddr: 0x1549C, symBinAddr: 0x10001641C, symSize: 0x30 }
  - { offsetInCU: 0x5137D, offset: 0x5137D, size: 0x8, addend: 0x0, symName: __ZNSt3__13maxB8ue170006INS_6chrono8durationIxNS_5ratioILl1ELl1000000EEEEEEERKT_S8_S8_, symObjAddr: 0x255B4, symBinAddr: 0x100026534, symSize: 0x2C }
  - { offsetInCU: 0x513C0, offset: 0x513C0, size: 0x8, addend: 0x0, symName: __ZNSt3__13maxB8ue170006INS_6chrono8durationIxNS_5ratioILl1ELl1000000EEEEENS_6__lessIvvEEEERKT_SA_SA_T0_, symObjAddr: 0x2561C, symBinAddr: 0x10002659C, symSize: 0x54 }
  - { offsetInCU: 0x5141A, offset: 0x5141A, size: 0x8, addend: 0x0, symName: __ZNSt3__111make_uniqueB8ue170006IN6spdlog7details14name_formatterINS2_18null_scoped_padderEEEJRNS2_12padding_infoEEEENS_11__unique_ifIT_E15__unique_singleEDpOT0_, symObjAddr: 0x27704, symBinAddr: 0x100028684, symSize: 0x7C }
  - { offsetInCU: 0x5145E, offset: 0x5145E, size: 0x8, addend: 0x0, symName: __ZNSt3__111make_uniqueB8ue170006IN6spdlog7details15level_formatterINS2_18null_scoped_padderEEEJRNS2_12padding_infoEEEENS_11__unique_ifIT_E15__unique_singleEDpOT0_, symObjAddr: 0x277E0, symBinAddr: 0x100028760, symSize: 0x7C }
  - { offsetInCU: 0x514A2, offset: 0x514A2, size: 0x8, addend: 0x0, symName: __ZNSt3__111make_uniqueB8ue170006IN6spdlog7details21short_level_formatterINS2_18null_scoped_padderEEEJRNS2_12padding_infoEEEENS_11__unique_ifIT_E15__unique_singleEDpOT0_, symObjAddr: 0x278BC, symBinAddr: 0x10002883C, symSize: 0x7C }
  - { offsetInCU: 0x514E6, offset: 0x514E6, size: 0x8, addend: 0x0, symName: __ZNSt3__111make_uniqueB8ue170006IN6spdlog7details11t_formatterINS2_18null_scoped_padderEEEJRNS2_12padding_infoEEEENS_11__unique_ifIT_E15__unique_singleEDpOT0_, symObjAddr: 0x27998, symBinAddr: 0x100028918, symSize: 0x7C }
  - { offsetInCU: 0x5152A, offset: 0x5152A, size: 0x8, addend: 0x0, symName: __ZNSt3__111make_uniqueB8ue170006IN6spdlog7details11v_formatterINS2_18null_scoped_padderEEEJRNS2_12padding_infoEEEENS_11__unique_ifIT_E15__unique_singleEDpOT0_, symObjAddr: 0x27A74, symBinAddr: 0x1000289F4, symSize: 0x7C }
  - { offsetInCU: 0x5156E, offset: 0x5156E, size: 0x8, addend: 0x0, symName: __ZNSt3__111make_uniqueB8ue170006IN6spdlog7details11a_formatterINS2_18null_scoped_padderEEEJRNS2_12padding_infoEEEENS_11__unique_ifIT_E15__unique_singleEDpOT0_, symObjAddr: 0x27B50, symBinAddr: 0x100028AD0, symSize: 0x7C }
  - { offsetInCU: 0x515B2, offset: 0x515B2, size: 0x8, addend: 0x0, symName: __ZNSt3__111make_uniqueB8ue170006IN6spdlog7details11A_formatterINS2_18null_scoped_padderEEEJRNS2_12padding_infoEEEENS_11__unique_ifIT_E15__unique_singleEDpOT0_, symObjAddr: 0x27C2C, symBinAddr: 0x100028BAC, symSize: 0x7C }
  - { offsetInCU: 0x515F6, offset: 0x515F6, size: 0x8, addend: 0x0, symName: __ZNSt3__111make_uniqueB8ue170006IN6spdlog7details11b_formatterINS2_18null_scoped_padderEEEJRNS2_12padding_infoEEEENS_11__unique_ifIT_E15__unique_singleEDpOT0_, symObjAddr: 0x27D08, symBinAddr: 0x100028C88, symSize: 0x7C }
  - { offsetInCU: 0x5163A, offset: 0x5163A, size: 0x8, addend: 0x0, symName: __ZNSt3__111make_uniqueB8ue170006IN6spdlog7details11B_formatterINS2_18null_scoped_padderEEEJRNS2_12padding_infoEEEENS_11__unique_ifIT_E15__unique_singleEDpOT0_, symObjAddr: 0x27DE4, symBinAddr: 0x100028D64, symSize: 0x7C }
  - { offsetInCU: 0x5167E, offset: 0x5167E, size: 0x8, addend: 0x0, symName: __ZNSt3__111make_uniqueB8ue170006IN6spdlog7details11c_formatterINS2_18null_scoped_padderEEEJRNS2_12padding_infoEEEENS_11__unique_ifIT_E15__unique_singleEDpOT0_, symObjAddr: 0x27EC0, symBinAddr: 0x100028E40, symSize: 0x7C }
  - { offsetInCU: 0x516C2, offset: 0x516C2, size: 0x8, addend: 0x0, symName: __ZNSt3__111make_uniqueB8ue170006IN6spdlog7details11C_formatterINS2_18null_scoped_padderEEEJRNS2_12padding_infoEEEENS_11__unique_ifIT_E15__unique_singleEDpOT0_, symObjAddr: 0x27F9C, symBinAddr: 0x100028F1C, symSize: 0x7C }
  - { offsetInCU: 0x51706, offset: 0x51706, size: 0x8, addend: 0x0, symName: __ZNSt3__111make_uniqueB8ue170006IN6spdlog7details11Y_formatterINS2_18null_scoped_padderEEEJRNS2_12padding_infoEEEENS_11__unique_ifIT_E15__unique_singleEDpOT0_, symObjAddr: 0x28078, symBinAddr: 0x100028FF8, symSize: 0x7C }
  - { offsetInCU: 0x5174A, offset: 0x5174A, size: 0x8, addend: 0x0, symName: __ZNSt3__111make_uniqueB8ue170006IN6spdlog7details11D_formatterINS2_18null_scoped_padderEEEJRNS2_12padding_infoEEEENS_11__unique_ifIT_E15__unique_singleEDpOT0_, symObjAddr: 0x28154, symBinAddr: 0x1000290D4, symSize: 0x7C }
  - { offsetInCU: 0x5178E, offset: 0x5178E, size: 0x8, addend: 0x0, symName: __ZNSt3__111make_uniqueB8ue170006IN6spdlog7details11m_formatterINS2_18null_scoped_padderEEEJRNS2_12padding_infoEEEENS_11__unique_ifIT_E15__unique_singleEDpOT0_, symObjAddr: 0x28230, symBinAddr: 0x1000291B0, symSize: 0x7C }
  - { offsetInCU: 0x517D2, offset: 0x517D2, size: 0x8, addend: 0x0, symName: __ZNSt3__111make_uniqueB8ue170006IN6spdlog7details11d_formatterINS2_18null_scoped_padderEEEJRNS2_12padding_infoEEEENS_11__unique_ifIT_E15__unique_singleEDpOT0_, symObjAddr: 0x2830C, symBinAddr: 0x10002928C, symSize: 0x7C }
  - { offsetInCU: 0x51816, offset: 0x51816, size: 0x8, addend: 0x0, symName: __ZNSt3__111make_uniqueB8ue170006IN6spdlog7details11H_formatterINS2_18null_scoped_padderEEEJRNS2_12padding_infoEEEENS_11__unique_ifIT_E15__unique_singleEDpOT0_, symObjAddr: 0x283E8, symBinAddr: 0x100029368, symSize: 0x7C }
  - { offsetInCU: 0x5185A, offset: 0x5185A, size: 0x8, addend: 0x0, symName: __ZNSt3__111make_uniqueB8ue170006IN6spdlog7details11I_formatterINS2_18null_scoped_padderEEEJRNS2_12padding_infoEEEENS_11__unique_ifIT_E15__unique_singleEDpOT0_, symObjAddr: 0x284C4, symBinAddr: 0x100029444, symSize: 0x7C }
  - { offsetInCU: 0x5189E, offset: 0x5189E, size: 0x8, addend: 0x0, symName: __ZNSt3__111make_uniqueB8ue170006IN6spdlog7details11M_formatterINS2_18null_scoped_padderEEEJRNS2_12padding_infoEEEENS_11__unique_ifIT_E15__unique_singleEDpOT0_, symObjAddr: 0x285A0, symBinAddr: 0x100029520, symSize: 0x7C }
  - { offsetInCU: 0x518E2, offset: 0x518E2, size: 0x8, addend: 0x0, symName: __ZNSt3__111make_uniqueB8ue170006IN6spdlog7details11S_formatterINS2_18null_scoped_padderEEEJRNS2_12padding_infoEEEENS_11__unique_ifIT_E15__unique_singleEDpOT0_, symObjAddr: 0x2867C, symBinAddr: 0x1000295FC, symSize: 0x7C }
  - { offsetInCU: 0x51926, offset: 0x51926, size: 0x8, addend: 0x0, symName: __ZNSt3__111make_uniqueB8ue170006IN6spdlog7details11e_formatterINS2_18null_scoped_padderEEEJRNS2_12padding_infoEEEENS_11__unique_ifIT_E15__unique_singleEDpOT0_, symObjAddr: 0x28758, symBinAddr: 0x1000296D8, symSize: 0x7C }
  - { offsetInCU: 0x5196A, offset: 0x5196A, size: 0x8, addend: 0x0, symName: __ZNSt3__111make_uniqueB8ue170006IN6spdlog7details11f_formatterINS2_18null_scoped_padderEEEJRNS2_12padding_infoEEEENS_11__unique_ifIT_E15__unique_singleEDpOT0_, symObjAddr: 0x28834, symBinAddr: 0x1000297B4, symSize: 0x7C }
  - { offsetInCU: 0x519AE, offset: 0x519AE, size: 0x8, addend: 0x0, symName: __ZNSt3__111make_uniqueB8ue170006IN6spdlog7details11F_formatterINS2_18null_scoped_padderEEEJRNS2_12padding_infoEEEENS_11__unique_ifIT_E15__unique_singleEDpOT0_, symObjAddr: 0x28910, symBinAddr: 0x100029890, symSize: 0x7C }
  - { offsetInCU: 0x519F2, offset: 0x519F2, size: 0x8, addend: 0x0, symName: __ZNSt3__111make_uniqueB8ue170006IN6spdlog7details11E_formatterINS2_18null_scoped_padderEEEJRNS2_12padding_infoEEEENS_11__unique_ifIT_E15__unique_singleEDpOT0_, symObjAddr: 0x289EC, symBinAddr: 0x10002996C, symSize: 0x7C }
  - { offsetInCU: 0x51A36, offset: 0x51A36, size: 0x8, addend: 0x0, symName: __ZNSt3__111make_uniqueB8ue170006IN6spdlog7details11p_formatterINS2_18null_scoped_padderEEEJRNS2_12padding_infoEEEENS_11__unique_ifIT_E15__unique_singleEDpOT0_, symObjAddr: 0x28AC8, symBinAddr: 0x100029A48, symSize: 0x7C }
  - { offsetInCU: 0x51A7A, offset: 0x51A7A, size: 0x8, addend: 0x0, symName: __ZNSt3__111make_uniqueB8ue170006IN6spdlog7details11r_formatterINS2_18null_scoped_padderEEEJRNS2_12padding_infoEEEENS_11__unique_ifIT_E15__unique_singleEDpOT0_, symObjAddr: 0x28BA4, symBinAddr: 0x100029B24, symSize: 0x7C }
  - { offsetInCU: 0x51ABE, offset: 0x51ABE, size: 0x8, addend: 0x0, symName: __ZNSt3__111make_uniqueB8ue170006IN6spdlog7details11R_formatterINS2_18null_scoped_padderEEEJRNS2_12padding_infoEEEENS_11__unique_ifIT_E15__unique_singleEDpOT0_, symObjAddr: 0x28C80, symBinAddr: 0x100029C00, symSize: 0x7C }
  - { offsetInCU: 0x51B02, offset: 0x51B02, size: 0x8, addend: 0x0, symName: __ZNSt3__111make_uniqueB8ue170006IN6spdlog7details11T_formatterINS2_18null_scoped_padderEEEJRNS2_12padding_infoEEEENS_11__unique_ifIT_E15__unique_singleEDpOT0_, symObjAddr: 0x28D5C, symBinAddr: 0x100029CDC, symSize: 0x7C }
  - { offsetInCU: 0x51B46, offset: 0x51B46, size: 0x8, addend: 0x0, symName: __ZNSt3__111make_uniqueB8ue170006IN6spdlog7details11z_formatterINS2_18null_scoped_padderEEEJRNS2_12padding_infoEEEENS_11__unique_ifIT_E15__unique_singleEDpOT0_, symObjAddr: 0x28E38, symBinAddr: 0x100029DB8, symSize: 0x7C }
  - { offsetInCU: 0x51B8A, offset: 0x51B8A, size: 0x8, addend: 0x0, symName: __ZNSt3__111make_uniqueB8ue170006IN6spdlog7details13pid_formatterINS2_18null_scoped_padderEEEJRNS2_12padding_infoEEEENS_11__unique_ifIT_E15__unique_singleEDpOT0_, symObjAddr: 0x28F14, symBinAddr: 0x100029E94, symSize: 0x7C }
  - { offsetInCU: 0x51BCE, offset: 0x51BCE, size: 0x8, addend: 0x0, symName: __ZNSt3__111make_uniqueB8ue170006IN6spdlog7details25source_location_formatterINS2_18null_scoped_padderEEEJRNS2_12padding_infoEEEENS_11__unique_ifIT_E15__unique_singleEDpOT0_, symObjAddr: 0x28FF0, symBinAddr: 0x100029F70, symSize: 0x7C }
  - { offsetInCU: 0x51C12, offset: 0x51C12, size: 0x8, addend: 0x0, symName: __ZNSt3__111make_uniqueB8ue170006IN6spdlog7details24short_filename_formatterINS2_18null_scoped_padderEEEJRNS2_12padding_infoEEEENS_11__unique_ifIT_E15__unique_singleEDpOT0_, symObjAddr: 0x290CC, symBinAddr: 0x10002A04C, symSize: 0x7C }
  - { offsetInCU: 0x51C56, offset: 0x51C56, size: 0x8, addend: 0x0, symName: __ZNSt3__111make_uniqueB8ue170006IN6spdlog7details25source_filename_formatterINS2_18null_scoped_padderEEEJRNS2_12padding_infoEEEENS_11__unique_ifIT_E15__unique_singleEDpOT0_, symObjAddr: 0x291A8, symBinAddr: 0x10002A128, symSize: 0x7C }
  - { offsetInCU: 0x51C9A, offset: 0x51C9A, size: 0x8, addend: 0x0, symName: __ZNSt3__111make_uniqueB8ue170006IN6spdlog7details24source_linenum_formatterINS2_18null_scoped_padderEEEJRNS2_12padding_infoEEEENS_11__unique_ifIT_E15__unique_singleEDpOT0_, symObjAddr: 0x29284, symBinAddr: 0x10002A204, symSize: 0x7C }
  - { offsetInCU: 0x51CDE, offset: 0x51CDE, size: 0x8, addend: 0x0, symName: __ZNSt3__111make_uniqueB8ue170006IN6spdlog7details25source_funcname_formatterINS2_18null_scoped_padderEEEJRNS2_12padding_infoEEEENS_11__unique_ifIT_E15__unique_singleEDpOT0_, symObjAddr: 0x29360, symBinAddr: 0x10002A2E0, symSize: 0x7C }
  - { offsetInCU: 0x51D22, offset: 0x51D22, size: 0x8, addend: 0x0, symName: __ZNSt3__111make_uniqueB8ue170006IN6spdlog7details17elapsed_formatterINS2_18null_scoped_padderENS_6chrono8durationIxNS_5ratioILl1ELl1000000000EEEEEEEJRNS2_12padding_infoEEEENS_11__unique_ifIT_E15__unique_singleEDpOT0_, symObjAddr: 0x2943C, symBinAddr: 0x10002A3BC, symSize: 0x7C }
  - { offsetInCU: 0x51D66, offset: 0x51D66, size: 0x8, addend: 0x0, symName: __ZNSt3__111make_uniqueB8ue170006IN6spdlog7details17elapsed_formatterINS2_18null_scoped_padderENS_6chrono8durationIxNS_5ratioILl1ELl1000000EEEEEEEJRNS2_12padding_infoEEEENS_11__unique_ifIT_E15__unique_singleEDpOT0_, symObjAddr: 0x29518, symBinAddr: 0x10002A498, symSize: 0x7C }
  - { offsetInCU: 0x51DAA, offset: 0x51DAA, size: 0x8, addend: 0x0, symName: __ZNSt3__111make_uniqueB8ue170006IN6spdlog7details17elapsed_formatterINS2_18null_scoped_padderENS_6chrono8durationIxNS_5ratioILl1ELl1000EEEEEEEJRNS2_12padding_infoEEEENS_11__unique_ifIT_E15__unique_singleEDpOT0_, symObjAddr: 0x295F4, symBinAddr: 0x10002A574, symSize: 0x7C }
  - { offsetInCU: 0x51DEE, offset: 0x51DEE, size: 0x8, addend: 0x0, symName: __ZNSt3__111make_uniqueB8ue170006IN6spdlog7details17elapsed_formatterINS2_18null_scoped_padderENS_6chrono8durationIxNS_5ratioILl1ELl1EEEEEEEJRNS2_12padding_infoEEEENS_11__unique_ifIT_E15__unique_singleEDpOT0_, symObjAddr: 0x296D0, symBinAddr: 0x10002A650, symSize: 0x7C }
  - { offsetInCU: 0x51E32, offset: 0x51E32, size: 0x8, addend: 0x0, symName: __ZNSt3__111make_uniqueB8ue170006IN6spdlog7details13mdc_formatterINS2_18null_scoped_padderEEEJRNS2_12padding_infoEEEENS_11__unique_ifIT_E15__unique_singleEDpOT0_, symObjAddr: 0x297AC, symBinAddr: 0x10002A72C, symSize: 0x7C }
  - { offsetInCU: 0x51E76, offset: 0x51E76, size: 0x8, addend: 0x0, symName: __ZNSt3__115allocate_sharedB8ue170006IN6spdlog5sinks21ansicolor_stdout_sinkINS1_7details13console_mutexEEENS_9allocatorIS6_EEJEvEENS_10shared_ptrIT_EERKT0_DpOT1_, symObjAddr: 0x390B4, symBinAddr: 0x10003A034, symSize: 0x90 }
  - { offsetInCU: 0x521DA, offset: 0x521DA, size: 0x8, addend: 0x0, symName: __ZNSt3__111make_uniqueB8ue170006IN6spdlog17pattern_formatterEJEEENS_11__unique_ifIT_E15__unique_singleEDpOT0_, symObjAddr: 0x3A950, symBinAddr: 0x10003B8D0, symSize: 0xD4 }
  - { offsetInCU: 0x52208, offset: 0x52208, size: 0x8, addend: 0x0, symName: __ZNSt3__16any_ofB8ue170006IPKPKcZZN6spdlog7details2os17is_color_terminalEvENKUlvE_clEvEUlS2_E_EEbT_SA_T0_, symObjAddr: 0x3B000, symBinAddr: 0x10003BF80, symSize: 0x9C }
  - { offsetInCU: 0x52263, offset: 0x52263, size: 0x8, addend: 0x0, symName: __ZNSt3__120__throw_out_of_rangeB8ue170006EPKc, symObjAddr: 0x3B1F0, symBinAddr: 0x10003C170, symSize: 0x64 }
  - { offsetInCU: 0x52350, offset: 0x52350, size: 0x8, addend: 0x0, symName: __ZNSt3__115allocate_sharedB8ue170006IN6spdlog6loggerENS_9allocatorIS2_EEJRPKcNS_10shared_ptrINS1_5sinks21ansicolor_stdout_sinkINS1_7details13console_mutexEEEEEEvEENS8_IT_EERKT0_DpOT1_, symObjAddr: 0x3BA20, symBinAddr: 0x10003C9A0, symSize: 0xA0 }
  - { offsetInCU: 0x526DF, offset: 0x526DF, size: 0x8, addend: 0x0, symName: __ZNSt3__18distanceB8ue170006IPKNS_10shared_ptrIN6spdlog5sinks4sinkEEEEENS_15iterator_traitsIT_E15difference_typeES9_S9_, symObjAddr: 0x3CD28, symBinAddr: 0x10003DCA8, symSize: 0x2C }
  - { offsetInCU: 0x52722, offset: 0x52722, size: 0x8, addend: 0x0, symName: __ZNSt3__110__distanceB8ue170006IPKNS_10shared_ptrIN6spdlog5sinks4sinkEEEEENS_15iterator_traitsIT_E15difference_typeES9_S9_NS_26random_access_iterator_tagE, symObjAddr: 0x3CED4, symBinAddr: 0x10003DE54, symSize: 0x28 }
  - { offsetInCU: 0x52770, offset: 0x52770, size: 0x8, addend: 0x0, symName: __ZNSt3__122__make_exception_guardB8ue170006INS_6vectorINS_10shared_ptrIN6spdlog5sinks4sinkEEENS_9allocatorIS6_EEE16__destroy_vectorEEENS_28__exception_guard_exceptionsIT_EESC_, symObjAddr: 0x3CEFC, symBinAddr: 0x10003DE7C, symSize: 0x40 }
  - { offsetInCU: 0x527A5, offset: 0x527A5, size: 0x8, addend: 0x0, symName: __ZNSt3__119__allocate_at_leastB8ue170006INS_9allocatorINS_10shared_ptrIN6spdlog5sinks4sinkEEEEEEENS_19__allocation_resultINS_16allocator_traitsIT_E7pointerEEERSA_m, symObjAddr: 0x3D1E4, symBinAddr: 0x10003E164, symSize: 0x40 }
  - { offsetInCU: 0x527E8, offset: 0x527E8, size: 0x8, addend: 0x0, symName: __ZNSt3__112__to_addressB8ue170006INS_10shared_ptrIN6spdlog5sinks4sinkEEEEEPT_S7_, symObjAddr: 0x3D508, symBinAddr: 0x10003E488, symSize: 0x14 }
  - { offsetInCU: 0x5281D, offset: 0x5281D, size: 0x8, addend: 0x0, symName: __ZNSt3__130__uninitialized_allocator_copyB8ue170006INS_9allocatorINS_10shared_ptrIN6spdlog5sinks4sinkEEEEEPKS6_S9_PS6_EET2_RT_T0_T1_SB_, symObjAddr: 0x3D5B8, symBinAddr: 0x10003E538, symSize: 0x80 }
  - { offsetInCU: 0x528BA, offset: 0x528BA, size: 0x8, addend: 0x0, symName: __ZNSt3__114__unwrap_rangeB8ue170006IPKNS_10shared_ptrIN6spdlog5sinks4sinkEEES7_EENS_4pairIT0_S9_EET_SB_, symObjAddr: 0x3D6A8, symBinAddr: 0x10003E628, symSize: 0x60 }
  - { offsetInCU: 0x52906, offset: 0x52906, size: 0x8, addend: 0x0, symName: __ZNSt3__135__uninitialized_allocator_copy_implB8ue170006INS_9allocatorINS_10shared_ptrIN6spdlog5sinks4sinkEEEEEPKS6_S9_PS6_EET2_RT_T0_T1_SB_, symObjAddr: 0x3D708, symBinAddr: 0x10003E688, symSize: 0xF4 }
  - { offsetInCU: 0x529A4, offset: 0x529A4, size: 0x8, addend: 0x0, symName: __ZNSt3__113__unwrap_iterB8ue170006IPNS_10shared_ptrIN6spdlog5sinks4sinkEEENS_18__unwrap_iter_implIS6_Lb1EEELi0EEEDTclsrT0_8__unwrapclsr3stdE7declvalIT_EEEESA_, symObjAddr: 0x3D7FC, symBinAddr: 0x10003E77C, symSize: 0x24 }
  - { offsetInCU: 0x529E8, offset: 0x529E8, size: 0x8, addend: 0x0, symName: __ZNSt3__113__rewrap_iterB8ue170006IPNS_10shared_ptrIN6spdlog5sinks4sinkEEES6_NS_18__unwrap_iter_implIS6_Lb1EEEEET_S9_T0_, symObjAddr: 0x3D820, symBinAddr: 0x10003E7A0, symSize: 0x3C }
  - { offsetInCU: 0x52A3D, offset: 0x52A3D, size: 0x8, addend: 0x0, symName: __ZNSt3__19make_pairB8ue170006IPKNS_10shared_ptrIN6spdlog5sinks4sinkEEES7_EENS_4pairINS_18__unwrap_ref_decayIT_E4typeENS9_IT0_E4typeEEEOSA_OSD_, symObjAddr: 0x3D85C, symBinAddr: 0x10003E7DC, symSize: 0x38 }
  - { offsetInCU: 0x52A8C, offset: 0x52A8C, size: 0x8, addend: 0x0, symName: __ZNSt3__113__unwrap_iterB8ue170006IPKNS_10shared_ptrIN6spdlog5sinks4sinkEEENS_18__unwrap_iter_implIS7_Lb1EEELi0EEEDTclsrT0_8__unwrapclsr3stdE7declvalIT_EEEESB_, symObjAddr: 0x3D894, symBinAddr: 0x10003E814, symSize: 0x24 }
  - { offsetInCU: 0x52BF7, offset: 0x52BF7, size: 0x8, addend: 0x0, symName: __ZNSt3__112__to_addressB8ue170006IKNS_10shared_ptrIN6spdlog5sinks4sinkEEEEEPT_S8_, symObjAddr: 0x3D94C, symBinAddr: 0x10003E8CC, symSize: 0x14 }
  - { offsetInCU: 0x52C2C, offset: 0x52C2C, size: 0x8, addend: 0x0, symName: __ZNSt3__122__make_exception_guardB8ue170006INS_29_AllocatorDestroyRangeReverseINS_9allocatorINS_10shared_ptrIN6spdlog5sinks4sinkEEEEEPS7_EEEENS_28__exception_guard_exceptionsIT_EESC_, symObjAddr: 0x3D960, symBinAddr: 0x10003E8E0, symSize: 0x4C }
  - { offsetInCU: 0x52C62, offset: 0x52C62, size: 0x8, addend: 0x0, symName: __ZNSt3__134__libcpp_atomic_refcount_incrementB8ue170006IlEET_RS1_, symObjAddr: 0x3DC28, symBinAddr: 0x10003EBA8, symSize: 0x30 }
  - { offsetInCU: 0x52C98, offset: 0x52C98, size: 0x8, addend: 0x0, symName: __ZNSt3__119__allocator_destroyB8ue170006INS_9allocatorINS_10shared_ptrIN6spdlog5sinks4sinkEEEEENS_16reverse_iteratorIPS6_EESA_EEvRT_T0_T1_, symObjAddr: 0x3DD10, symBinAddr: 0x10003EC90, symSize: 0x70 }
  - { offsetInCU: 0x52CFB, offset: 0x52CFB, size: 0x8, addend: 0x0, symName: __ZNSt3__1neB8ue170006IPNS_10shared_ptrIN6spdlog5sinks4sinkEEES6_EEbRKNS_16reverse_iteratorIT_EERKNS7_IT0_EE, symObjAddr: 0x3DDB4, symBinAddr: 0x10003ED34, symSize: 0x48 }
  - { offsetInCU: 0x52D47, offset: 0x52D47, size: 0x8, addend: 0x0, symName: __ZNSt3__112__to_addressB8ue170006INS_16reverse_iteratorIPNS_10shared_ptrIN6spdlog5sinks4sinkEEEEEvEEu7__decayIDTclsr19__to_address_helperIT_EE6__callclsr3stdE7declvalIRKS9_EEEEESB_, symObjAddr: 0x3DE28, symBinAddr: 0x10003EDA8, symSize: 0x24 }
  - { offsetInCU: 0x52DFA, offset: 0x52DFA, size: 0x8, addend: 0x0, symName: __ZNSt3__112__to_addressB8ue170006IN6spdlog7details14log_msg_bufferEEEPT_S5_, symObjAddr: 0x3EB98, symBinAddr: 0x10003FB18, symSize: 0x14 }
  - { offsetInCU: 0x52E2F, offset: 0x52E2F, size: 0x8, addend: 0x0, symName: __ZNSt3__111make_sharedB8ue170006IN6spdlog6loggerEJRS2_EvEENS_10shared_ptrIT_EEDpOT0_, symObjAddr: 0x3EDBC, symBinAddr: 0x10003FD3C, symSize: 0x40 }
  - { offsetInCU: 0x52E74, offset: 0x52E74, size: 0x8, addend: 0x0, symName: __ZNSt3__115allocate_sharedB8ue170006IN6spdlog6loggerENS_9allocatorIS2_EEJRS2_EvEENS_10shared_ptrIT_EERKT0_DpOT1_, symObjAddr: 0x3EE14, symBinAddr: 0x10003FD94, symSize: 0x98 }
  - { offsetInCU: 0x52EEF, offset: 0x52EEF, size: 0x8, addend: 0x0, symName: __ZNSt3__130__uninitialized_allocator_copyB8ue170006INS_9allocatorINS_10shared_ptrIN6spdlog5sinks4sinkEEEEEPS6_S8_S8_EET2_RT_T0_T1_S9_, symObjAddr: 0x3F464, symBinAddr: 0x1000403E4, symSize: 0x80 }
  - { offsetInCU: 0x52F8C, offset: 0x52F8C, size: 0x8, addend: 0x0, symName: __ZNSt3__114__unwrap_rangeB8ue170006IPNS_10shared_ptrIN6spdlog5sinks4sinkEEES6_EENS_4pairIT0_S8_EET_SA_, symObjAddr: 0x3F4E4, symBinAddr: 0x100040464, symSize: 0x60 }
  - { offsetInCU: 0x52FD8, offset: 0x52FD8, size: 0x8, addend: 0x0, symName: __ZNSt3__135__uninitialized_allocator_copy_implB8ue170006INS_9allocatorINS_10shared_ptrIN6spdlog5sinks4sinkEEEEEPS6_S8_S8_EET2_RT_T0_T1_S9_, symObjAddr: 0x3F544, symBinAddr: 0x1000404C4, symSize: 0xF4 }
  - { offsetInCU: 0x53076, offset: 0x53076, size: 0x8, addend: 0x0, symName: __ZNSt3__19make_pairB8ue170006IPNS_10shared_ptrIN6spdlog5sinks4sinkEEES6_EENS_4pairINS_18__unwrap_ref_decayIT_E4typeENS8_IT0_E4typeEEEOS9_OSC_, symObjAddr: 0x3F638, symBinAddr: 0x1000405B8, symSize: 0x38 }
  - { offsetInCU: 0x5319A, offset: 0x5319A, size: 0x8, addend: 0x0, symName: __ZNSt3__118__cxx_atomic_storeB8ue170006IbEEvPNS_22__cxx_atomic_base_implIT_EES2_NS_12memory_orderE, symObjAddr: 0x3FBA4, symBinAddr: 0x100040B24, symSize: 0x90 }
  - { offsetInCU: 0x531EB, offset: 0x531EB, size: 0x8, addend: 0x0, symName: __ZNSt3__18distanceB8ue170006IPN6spdlog7details14log_msg_bufferEEENS_15iterator_traitsIT_E15difference_typeES6_S6_, symObjAddr: 0x3FE9C, symBinAddr: 0x100040E1C, symSize: 0x2C }
  - { offsetInCU: 0x5322E, offset: 0x5322E, size: 0x8, addend: 0x0, symName: __ZNSt3__14nextB8ue170006IPN6spdlog7details14log_msg_bufferEEENS_9enable_ifIXsr29__has_input_iterator_categoryIT_EE5valueES6_E4typeES6_NS_15iterator_traitsIS6_E15difference_typeE, symObjAddr: 0x3FEC8, symBinAddr: 0x100040E48, symSize: 0x34 }
  - { offsetInCU: 0x53271, offset: 0x53271, size: 0x8, addend: 0x0, symName: __ZNSt3__14copyB8ue170006IPN6spdlog7details14log_msg_bufferES4_EET0_T_S6_S5_, symObjAddr: 0x3FEFC, symBinAddr: 0x100040E7C, symSize: 0x40 }
  - { offsetInCU: 0x532CB, offset: 0x532CB, size: 0x8, addend: 0x0, symName: __ZNSt3__16__copyB8ue170006INS_17_ClassicAlgPolicyEPN6spdlog7details14log_msg_bufferES5_S5_EENS_4pairIT0_T2_EES7_T1_S8_, symObjAddr: 0x3FFC8, symBinAddr: 0x100040F48, symSize: 0x44 }
  - { offsetInCU: 0x53337, offset: 0x53337, size: 0x8, addend: 0x0, symName: __ZNSt3__121__convert_to_integralB8ue170006El, symObjAddr: 0x4028C, symBinAddr: 0x10004120C, symSize: 0x14 }
  - { offsetInCU: 0x53364, offset: 0x53364, size: 0x8, addend: 0x0, symName: __ZNSt3__19__advanceB8ue170006IPN6spdlog7details14log_msg_bufferEEEvRT_NS_15iterator_traitsIS5_E15difference_typeENS_26random_access_iterator_tagE, symObjAddr: 0x402A0, symBinAddr: 0x100041220, symSize: 0x30 }
  - { offsetInCU: 0x533AE, offset: 0x533AE, size: 0x8, addend: 0x0, symName: __ZNSt3__130__uninitialized_allocator_copyB8ue170006INS_9allocatorIN6spdlog7details14log_msg_bufferEEEPS4_S6_S6_EET2_RT_T0_T1_S7_, symObjAddr: 0x4030C, symBinAddr: 0x10004128C, symSize: 0x80 }
  - { offsetInCU: 0x5344B, offset: 0x5344B, size: 0x8, addend: 0x0, symName: __ZNSt3__114__unwrap_rangeB8ue170006IPN6spdlog7details14log_msg_bufferES4_EENS_4pairIT0_S6_EET_S8_, symObjAddr: 0x40404, symBinAddr: 0x100041384, symSize: 0x60 }
  - { offsetInCU: 0x53497, offset: 0x53497, size: 0x8, addend: 0x0, symName: __ZNSt3__135__uninitialized_allocator_copy_implB8ue170006INS_9allocatorIN6spdlog7details14log_msg_bufferEEEPS4_S6_S6_EET2_RT_T0_T1_S7_, symObjAddr: 0x40464, symBinAddr: 0x1000413E4, symSize: 0xF4 }
  - { offsetInCU: 0x53535, offset: 0x53535, size: 0x8, addend: 0x0, symName: __ZNSt3__113__unwrap_iterB8ue170006IPN6spdlog7details14log_msg_bufferENS_18__unwrap_iter_implIS4_Lb1EEELi0EEEDTclsrT0_8__unwrapclsr3stdE7declvalIT_EEEES8_, symObjAddr: 0x40558, symBinAddr: 0x1000414D8, symSize: 0x24 }
  - { offsetInCU: 0x53579, offset: 0x53579, size: 0x8, addend: 0x0, symName: __ZNSt3__113__rewrap_iterB8ue170006IPN6spdlog7details14log_msg_bufferES4_NS_18__unwrap_iter_implIS4_Lb1EEEEET_S7_T0_, symObjAddr: 0x4057C, symBinAddr: 0x1000414FC, symSize: 0x3C }
  - { offsetInCU: 0x535CE, offset: 0x535CE, size: 0x8, addend: 0x0, symName: __ZNSt3__19make_pairB8ue170006IPN6spdlog7details14log_msg_bufferES4_EENS_4pairINS_18__unwrap_ref_decayIT_E4typeENS6_IT0_E4typeEEEOS7_OSA_, symObjAddr: 0x405B8, symBinAddr: 0x100041538, symSize: 0x38 }
  - { offsetInCU: 0x536F1, offset: 0x536F1, size: 0x8, addend: 0x0, symName: __ZNSt3__122__make_exception_guardB8ue170006INS_29_AllocatorDestroyRangeReverseINS_9allocatorIN6spdlog7details14log_msg_bufferEEEPS5_EEEENS_28__exception_guard_exceptionsIT_EESA_, symObjAddr: 0x40660, symBinAddr: 0x1000415E0, symSize: 0x4C }
  - { offsetInCU: 0x53728, offset: 0x53728, size: 0x8, addend: 0x0, symName: __ZNSt3__119__allocator_destroyB8ue170006INS_9allocatorIN6spdlog7details14log_msg_bufferEEENS_16reverse_iteratorIPS4_EES8_EEvRT_T0_T1_, symObjAddr: 0x40AF8, symBinAddr: 0x100041A78, symSize: 0x70 }
  - { offsetInCU: 0x5378B, offset: 0x5378B, size: 0x8, addend: 0x0, symName: __ZNSt3__1neB8ue170006IPN6spdlog7details14log_msg_bufferES4_EEbRKNS_16reverse_iteratorIT_EERKNS5_IT0_EE, symObjAddr: 0x40B9C, symBinAddr: 0x100041B1C, symSize: 0x48 }
  - { offsetInCU: 0x537D7, offset: 0x537D7, size: 0x8, addend: 0x0, symName: __ZNSt3__112__to_addressB8ue170006INS_16reverse_iteratorIPN6spdlog7details14log_msg_bufferEEEvEEu7__decayIDTclsr19__to_address_helperIT_EE6__callclsr3stdE7declvalIRKS7_EEEEES9_, symObjAddr: 0x40BE4, symBinAddr: 0x100041B64, symSize: 0x24 }
  - { offsetInCU: 0x5388A, offset: 0x5388A, size: 0x8, addend: 0x0, symName: __ZNSt3__123__dispatch_copy_or_moveB8ue170006INS_17_ClassicAlgPolicyENS_11__copy_loopIS1_EENS_14__copy_trivialEPN6spdlog7details14log_msg_bufferES8_S8_EENS_4pairIT2_T4_EESA_T3_SB_, symObjAddr: 0x40D88, symBinAddr: 0x100041D08, symSize: 0x44 }
  - { offsetInCU: 0x53908, offset: 0x53908, size: 0x8, addend: 0x0, symName: __ZNSt3__121__unwrap_and_dispatchB8ue170006INS_10__overloadINS_11__copy_loopINS_17_ClassicAlgPolicyEEENS_14__copy_trivialEEEPN6spdlog7details14log_msg_bufferESA_SA_Li0EEENS_4pairIT0_T2_EESC_T1_SD_, symObjAddr: 0x40DCC, symBinAddr: 0x100041D4C, symSize: 0xB4 }
  - { offsetInCU: 0x539F1, offset: 0x539F1, size: 0x8, addend: 0x0, symName: __ZNSt3__114__rewrap_rangeB8ue170006IPN6spdlog7details14log_msg_bufferES4_EET_S5_T0_, symObjAddr: 0x40F08, symBinAddr: 0x100041E88, symSize: 0x2C }
  - { offsetInCU: 0x53A3D, offset: 0x53A3D, size: 0x8, addend: 0x0, symName: __ZNSt3__119__allocate_at_leastB8ue170006INS_9allocatorIN6spdlog7details14log_msg_bufferEEEEENS_19__allocation_resultINS_16allocator_traitsIT_E7pointerEEERS8_m, symObjAddr: 0x411B8, symBinAddr: 0x100042138, symSize: 0x40 }
  - { offsetInCU: 0x53A80, offset: 0x53A80, size: 0x8, addend: 0x0, symName: __ZNSt3__110__distanceB8ue170006IPN6spdlog7details14log_msg_bufferEEENS_15iterator_traitsIT_E15difference_typeES6_S6_NS_26random_access_iterator_tagE, symObjAddr: 0x413B8, symBinAddr: 0x100042338, symSize: 0x28 }
  - { offsetInCU: 0x53ACE, offset: 0x53ACE, size: 0x8, addend: 0x0, symName: __ZNSt3__1neB8ue170006IPNS_10shared_ptrIN6spdlog5sinks4sinkEEEEEbRKNS_11__wrap_iterIT_EESB_, symObjAddr: 0x41440, symBinAddr: 0x1000423C0, symSize: 0x34 }
  - { offsetInCU: 0x53B11, offset: 0x53B11, size: 0x8, addend: 0x0, symName: __ZNSt3__1eqB8ue170006IPNS_10shared_ptrIN6spdlog5sinks4sinkEEEEEbRKNS_11__wrap_iterIT_EESB_, symObjAddr: 0x418B8, symBinAddr: 0x100042838, symSize: 0x48 }
  - { offsetInCU: 0x53B55, offset: 0x53B55, size: 0x8, addend: 0x0, symName: __ZNSt3__125__throw_bad_function_callB8ue170006Ev, symObjAddr: 0x41A24, symBinAddr: 0x1000429A4, symSize: 0x38 }
  - { offsetInCU: 0x53BA5, offset: 0x53BA5, size: 0x8, addend: 0x0, symName: __ZNSt3__134__libcpp_atomic_refcount_decrementB8ue170006IlEET_RS1_, symObjAddr: 0x41F44, symBinAddr: 0x100042EC4, symSize: 0x30 }
  - { offsetInCU: 0x53C0D, offset: 0x53C0D, size: 0x8, addend: 0x0, symName: __ZNSt3__14swapB8ue170006IPN6spdlog6loggerEEENS_9enable_ifIXaasr21is_move_constructibleIT_EE5valuesr18is_move_assignableIS5_EE5valueEvE4typeERS5_S8_, symObjAddr: 0x4226C, symBinAddr: 0x1000431EC, symSize: 0x3C }
  - { offsetInCU: 0x53C5E, offset: 0x53C5E, size: 0x8, addend: 0x0, symName: __ZNSt3__14swapB8ue170006IPNS_19__shared_weak_countEEENS_9enable_ifIXaasr21is_move_constructibleIT_EE5valuesr18is_move_assignableIS4_EE5valueEvE4typeERS4_S7_, symObjAddr: 0x422A8, symBinAddr: 0x100043228, symSize: 0x3C }
  - { offsetInCU: 0x53CAF, offset: 0x53CAF, size: 0x8, addend: 0x0, symName: __ZNSt3__116forward_as_tupleB8ue170006IJNS_12basic_stringIcNS_11char_traitsIcEENS_9allocatorIcEEEEEEENS_5tupleIJDpOT_EEESA_, symObjAddr: 0x42804, symBinAddr: 0x100043784, symSize: 0x2C }
  - { offsetInCU: 0x53CEA, offset: 0x53CEA, size: 0x8, addend: 0x0, symName: __ZNSt3__116__do_string_hashB8ue170006IPKcEEmT_S3_, symObjAddr: 0x42DC0, symBinAddr: 0x100043D40, symSize: 0x3C }
  - { offsetInCU: 0x53D30, offset: 0x53D30, size: 0x8, addend: 0x0, symName: __ZNSt3__110__loadwordB8ue170006ImEET_PKv, symObjAddr: 0x437B4, symBinAddr: 0x100044734, symSize: 0x20 }
  - { offsetInCU: 0x53D73, offset: 0x53D73, size: 0x8, addend: 0x0, symName: __ZNSt3__14swapB8ue170006ImEENS_9enable_ifIXaasr21is_move_constructibleIT_EE5valuesr18is_move_assignableIS2_EE5valueEvE4typeERS2_S5_, symObjAddr: 0x43970, symBinAddr: 0x1000448F0, symSize: 0x3C }
  - { offsetInCU: 0x53DC4, offset: 0x53DC4, size: 0x8, addend: 0x0, symName: __ZNSt3__110__loadwordB8ue170006IjEET_PKv, symObjAddr: 0x43A00, symBinAddr: 0x100044980, symSize: 0x20 }
  - { offsetInCU: 0x53E07, offset: 0x53E07, size: 0x8, addend: 0x0, symName: __ZNSt3__1eqB8ue170006INS_9allocatorIcEEEEbRKNS_12basic_stringIcNS_11char_traitsIcEET_EES9_, symObjAddr: 0x43CDC, symBinAddr: 0x100044C5C, symSize: 0x148 }
  - { offsetInCU: 0x53E7A, offset: 0x53E7A, size: 0x8, addend: 0x0, symName: __ZNSt3__17launderB8ue170006IKNS_4pairIKNS_12basic_stringIcNS_11char_traitsIcEENS_9allocatorIcEEEENS_10shared_ptrIN6spdlog6loggerEEEEEEEPT_SG_, symObjAddr: 0x43E58, symBinAddr: 0x100044DD8, symSize: 0x24 }
  - { offsetInCU: 0x53EB1, offset: 0x53EB1, size: 0x8, addend: 0x0, symName: __ZNSt3__19__launderB8ue170006IKNS_4pairIKNS_12basic_stringIcNS_11char_traitsIcEENS_9allocatorIcEEEENS_10shared_ptrIN6spdlog6loggerEEEEEEEPT_SG_, symObjAddr: 0x43E7C, symBinAddr: 0x100044DFC, symSize: 0x14 }
  - { offsetInCU: 0x53F39, offset: 0x53F39, size: 0x8, addend: 0x0, symName: __ZNSt3__13getB8ue170006ILm0EJONS_12basic_stringIcNS_11char_traitsIcEENS_9allocatorIcEEEEEEERNS_13tuple_elementIXT_ENS_5tupleIJDpT0_EEEE4typeERSC_, symObjAddr: 0x44340, symBinAddr: 0x1000452C0, symSize: 0x24 }
  - { offsetInCU: 0x53FC8, offset: 0x53FC8, size: 0x8, addend: 0x0, symName: __ZNSt3__17launderB8ue170006INS_4pairIKNS_12basic_stringIcNS_11char_traitsIcEENS_9allocatorIcEEEENS_10shared_ptrIN6spdlog6loggerEEEEEEEPT_SF_, symObjAddr: 0x44F90, symBinAddr: 0x100045F10, symSize: 0x24 }
  - { offsetInCU: 0x53FFF, offset: 0x53FFF, size: 0x8, addend: 0x0, symName: __ZNSt3__19__launderB8ue170006INS_4pairIKNS_12basic_stringIcNS_11char_traitsIcEENS_9allocatorIcEEEENS_10shared_ptrIN6spdlog6loggerEEEEEEEPT_SF_, symObjAddr: 0x44FB4, symBinAddr: 0x100045F34, symSize: 0x14 }
  - { offsetInCU: 0x54036, offset: 0x54036, size: 0x8, addend: 0x0, symName: __ZNSt3__122__libcpp_thread_isnullB8ue170006EPKP17_opaque_pthread_t, symObjAddr: 0x45338, symBinAddr: 0x1000462B8, symSize: 0x30 }
  - { offsetInCU: 0x54064, offset: 0x54064, size: 0x8, addend: 0x0, symName: __ZNSt3__122__libcpp_thread_get_idB8ue170006EPKP17_opaque_pthread_t, symObjAddr: 0x45368, symBinAddr: 0x1000462E8, symSize: 0x18 }
  - { offsetInCU: 0x54152, offset: 0x54152, size: 0x8, addend: 0x0, symName: __ZNSt3__17launderB8ue170006INS_4pairIKNS_12basic_stringIcNS_11char_traitsIcEENS_9allocatorIcEEEEN6spdlog5level10level_enumEEEEEPT_SE_, symObjAddr: 0x45818, symBinAddr: 0x100046798, symSize: 0x24 }
  - { offsetInCU: 0x54189, offset: 0x54189, size: 0x8, addend: 0x0, symName: __ZNSt3__19__launderB8ue170006INS_4pairIKNS_12basic_stringIcNS_11char_traitsIcEENS_9allocatorIcEEEEN6spdlog5level10level_enumEEEEEPT_SE_, symObjAddr: 0x4583C, symBinAddr: 0x1000467BC, symSize: 0x14 }
  - { offsetInCU: 0x541C0, offset: 0x541C0, size: 0x8, addend: 0x0, symName: __ZNSt3__13minB8ue170006IfEERKT_S3_S3_, symObjAddr: 0x469D4, symBinAddr: 0x100047954, symSize: 0x2C }
  - { offsetInCU: 0x54203, offset: 0x54203, size: 0x8, addend: 0x0, symName: __ZNSt3__13maxB8ue170006IfEERKT_S3_S3_, symObjAddr: 0x46A00, symBinAddr: 0x100047980, symSize: 0x2C }
  - { offsetInCU: 0x54246, offset: 0x54246, size: 0x8, addend: 0x0, symName: __ZNSt3__13minB8ue170006IfNS_6__lessIvvEEEERKT_S5_S5_T0_, symObjAddr: 0x46A2C, symBinAddr: 0x1000479AC, symSize: 0x54 }
  - { offsetInCU: 0x542A0, offset: 0x542A0, size: 0x8, addend: 0x0, symName: __ZNSt3__13maxB8ue170006IfNS_6__lessIvvEEEERKT_S5_S5_T0_, symObjAddr: 0x46AB4, symBinAddr: 0x100047A34, symSize: 0x54 }
  - { offsetInCU: 0x542FA, offset: 0x542FA, size: 0x8, addend: 0x0, symName: __ZNSt3__119__allocate_at_leastB8ue170006INS_9allocatorINS_10unique_ptrI9ComponentNS_14default_deleteIS3_EEEEEEEENS_19__allocation_resultINS_16allocator_traitsIT_E7pointerEEERSA_m, symObjAddr: 0x47714, symBinAddr: 0x100048694, symSize: 0x40 }
  - { offsetInCU: 0x5433D, offset: 0x5433D, size: 0x8, addend: 0x0, symName: __ZNSt3__142__uninitialized_allocator_move_if_noexceptB8ue170006INS_9allocatorINS_10unique_ptrI9ComponentNS_14default_deleteIS3_EEEEEENS_16reverse_iteratorIPS6_EESA_SA_EET2_RT_T0_T1_SB_, symObjAddr: 0x478C8, symBinAddr: 0x100048848, symSize: 0x12C }
  - { offsetInCU: 0x543DD, offset: 0x543DD, size: 0x8, addend: 0x0, symName: __ZNSt3__14swapB8ue170006IPNS_10unique_ptrI9ComponentNS_14default_deleteIS2_EEEEEENS_9enable_ifIXaasr21is_move_constructibleIT_EE5valuesr18is_move_assignableIS8_EE5valueEvE4typeERS8_SB_, symObjAddr: 0x47A40, symBinAddr: 0x1000489C0, symSize: 0x3C }
  - { offsetInCU: 0x5442E, offset: 0x5442E, size: 0x8, addend: 0x0, symName: __ZNSt3__122__make_exception_guardB8ue170006INS_29_AllocatorDestroyRangeReverseINS_9allocatorINS_10unique_ptrI9ComponentNS_14default_deleteIS4_EEEEEENS_16reverse_iteratorIPS7_EEEEEENS_28__exception_guard_exceptionsIT_EESE_, symObjAddr: 0x47B28, symBinAddr: 0x100048AA8, symSize: 0x4C }
  - { offsetInCU: 0x54464, offset: 0x54464, size: 0x8, addend: 0x0, symName: __ZNSt3__1neB8ue170006IPNS_10unique_ptrI9ComponentNS_14default_deleteIS2_EEEES6_EEbRKNS_16reverse_iteratorIT_EERKNS7_IT0_EE, symObjAddr: 0x47BB8, symBinAddr: 0x100048B38, symSize: 0x48 }
  - { offsetInCU: 0x544B0, offset: 0x544B0, size: 0x8, addend: 0x0, symName: __ZNSt3__112__to_addressB8ue170006INS_16reverse_iteratorIPNS_10unique_ptrI9ComponentNS_14default_deleteIS3_EEEEEEvEEu7__decayIDTclsr19__to_address_helperIT_EE6__callclsr3stdE7declvalIRKS9_EEEEESB_, symObjAddr: 0x47C00, symBinAddr: 0x100048B80, symSize: 0x24 }
  - { offsetInCU: 0x54511, offset: 0x54511, size: 0x8, addend: 0x0, symName: __ZNSt3__119__allocator_destroyB8ue170006INS_9allocatorINS_10unique_ptrI9ComponentNS_14default_deleteIS3_EEEEEENS_16reverse_iteratorINS8_IPS6_EEEESB_EEvRT_T0_T1_, symObjAddr: 0x47EB0, symBinAddr: 0x100048E30, symSize: 0x70 }
  - { offsetInCU: 0x54576, offset: 0x54576, size: 0x8, addend: 0x0, symName: __ZNSt3__1neB8ue170006INS_16reverse_iteratorIPNS_10unique_ptrI9ComponentNS_14default_deleteIS3_EEEEEES8_EEbRKNS1_IT_EERKNS1_IT0_EE, symObjAddr: 0x47F5C, symBinAddr: 0x100048EDC, symSize: 0x60 }
  - { offsetInCU: 0x545C2, offset: 0x545C2, size: 0x8, addend: 0x0, symName: __ZNSt3__112__to_addressB8ue170006INS_16reverse_iteratorINS1_IPNS_10unique_ptrI9ComponentNS_14default_deleteIS3_EEEEEEEEvEEu7__decayIDTclsr19__to_address_helperIT_EE6__callclsr3stdE7declvalIRKSA_EEEEESC_, symObjAddr: 0x47FBC, symBinAddr: 0x100048F3C, symSize: 0x24 }
  - { offsetInCU: 0x54622, offset: 0x54622, size: 0x8, addend: 0x0, symName: __ZNSt3__119__allocate_at_leastB8ue170006INS_9allocatorINS_10unique_ptrI4BulbNS_14default_deleteIS3_EEEEEEEENS_19__allocation_resultINS_16allocator_traitsIT_E7pointerEEERSA_m, symObjAddr: 0x49330, symBinAddr: 0x10004A2B0, symSize: 0x40 }
  - { offsetInCU: 0x54665, offset: 0x54665, size: 0x8, addend: 0x0, symName: __ZNSt3__142__uninitialized_allocator_move_if_noexceptB8ue170006INS_9allocatorINS_10unique_ptrI4BulbNS_14default_deleteIS3_EEEEEENS_16reverse_iteratorIPS6_EESA_SA_EET2_RT_T0_T1_SB_, symObjAddr: 0x494E4, symBinAddr: 0x10004A464, symSize: 0x12C }
  - { offsetInCU: 0x54705, offset: 0x54705, size: 0x8, addend: 0x0, symName: __ZNSt3__14swapB8ue170006IPNS_10unique_ptrI4BulbNS_14default_deleteIS2_EEEEEENS_9enable_ifIXaasr21is_move_constructibleIT_EE5valuesr18is_move_assignableIS8_EE5valueEvE4typeERS8_SB_, symObjAddr: 0x4965C, symBinAddr: 0x10004A5DC, symSize: 0x3C }
  - { offsetInCU: 0x54756, offset: 0x54756, size: 0x8, addend: 0x0, symName: __ZNSt3__122__make_exception_guardB8ue170006INS_29_AllocatorDestroyRangeReverseINS_9allocatorINS_10unique_ptrI4BulbNS_14default_deleteIS4_EEEEEENS_16reverse_iteratorIPS7_EEEEEENS_28__exception_guard_exceptionsIT_EESE_, symObjAddr: 0x49744, symBinAddr: 0x10004A6C4, symSize: 0x4C }
  - { offsetInCU: 0x5478C, offset: 0x5478C, size: 0x8, addend: 0x0, symName: __ZNSt3__1neB8ue170006IPNS_10unique_ptrI4BulbNS_14default_deleteIS2_EEEES6_EEbRKNS_16reverse_iteratorIT_EERKNS7_IT0_EE, symObjAddr: 0x497D4, symBinAddr: 0x10004A754, symSize: 0x48 }
  - { offsetInCU: 0x547D8, offset: 0x547D8, size: 0x8, addend: 0x0, symName: __ZNSt3__112__to_addressB8ue170006INS_16reverse_iteratorIPNS_10unique_ptrI4BulbNS_14default_deleteIS3_EEEEEEvEEu7__decayIDTclsr19__to_address_helperIT_EE6__callclsr3stdE7declvalIRKS9_EEEEESB_, symObjAddr: 0x4981C, symBinAddr: 0x10004A79C, symSize: 0x24 }
  - { offsetInCU: 0x54839, offset: 0x54839, size: 0x8, addend: 0x0, symName: __ZNSt3__119__allocator_destroyB8ue170006INS_9allocatorINS_10unique_ptrI4BulbNS_14default_deleteIS3_EEEEEENS_16reverse_iteratorINS8_IPS6_EEEESB_EEvRT_T0_T1_, symObjAddr: 0x49ACC, symBinAddr: 0x10004AA4C, symSize: 0x70 }
  - { offsetInCU: 0x5489E, offset: 0x5489E, size: 0x8, addend: 0x0, symName: __ZNSt3__1neB8ue170006INS_16reverse_iteratorIPNS_10unique_ptrI4BulbNS_14default_deleteIS3_EEEEEES8_EEbRKNS1_IT_EERKNS1_IT0_EE, symObjAddr: 0x49B78, symBinAddr: 0x10004AAF8, symSize: 0x60 }
  - { offsetInCU: 0x548EA, offset: 0x548EA, size: 0x8, addend: 0x0, symName: __ZNSt3__112__to_addressB8ue170006INS_16reverse_iteratorINS1_IPNS_10unique_ptrI4BulbNS_14default_deleteIS3_EEEEEEEEvEEu7__decayIDTclsr19__to_address_helperIT_EE6__callclsr3stdE7declvalIRKSA_EEEEESC_, symObjAddr: 0x49BD8, symBinAddr: 0x10004AB58, symSize: 0x24 }
  - { offsetInCU: 0x5494A, offset: 0x5494A, size: 0x8, addend: 0x0, symName: __ZNSt3__116__pad_and_outputB8ue170006IcNS_11char_traitsIcEEEENS_19ostreambuf_iteratorIT_T0_EES6_PKS4_S8_S8_RNS_8ios_baseES4_, symObjAddr: 0x4A168, symBinAddr: 0x10004B0E8, symSize: 0x240 }
  - { offsetInCU: 0x54A1A, offset: 0x54A1A, size: 0x8, addend: 0x0, symName: __ZNSt3__112__to_addressB8ue170006IcEEPT_S2_, symObjAddr: 0x4A5D8, symBinAddr: 0x10004B558, symSize: 0x14 }
  - { offsetInCU: 0x54A4F, offset: 0x54A4F, size: 0x8, addend: 0x0, symName: __ZNSt3__19use_facetB8ue170006INS_5ctypeIcEEEERKT_RKNS_6localeE, symObjAddr: 0x4A784, symBinAddr: 0x10004B704, symSize: 0x2C }
  - { offsetInCU: 0x563F0, offset: 0x563F0, size: 0x8, addend: 0x0, symName: __ZSt28__throw_bad_array_new_lengthB8ue170006v, symObjAddr: 0x6E70, symBinAddr: 0x100007DF0, symSize: 0x34 }
  - { offsetInCU: 0x56C3A, offset: 0x56C3A, size: 0x8, addend: 0x0, symName: __ZN3fmt3v106detail15do_count_digitsEy, symObjAddr: 0x16F08, symBinAddr: 0x100017E88, symSize: 0x60 }
  - { offsetInCU: 0x56C65, offset: 0x56C65, size: 0x8, addend: 0x0, symName: __ZZN3fmt3v106detail15do_count_digitsEyE9bsr2log10, symObjAddr: 0x4F188, symBinAddr: 0x10004F5C0, symSize: 0x0 }
  - { offsetInCU: 0x56C7B, offset: 0x56C7B, size: 0x8, addend: 0x0, symName: __ZZN3fmt3v106detail15do_count_digitsEyE20zero_or_powers_of_10, symObjAddr: 0x4F1C8, symBinAddr: 0x10004F600, symSize: 0x0 }
  - { offsetInCU: 0x56D35, offset: 0x56D35, size: 0x8, addend: 0x0, symName: __ZN3fmt3v106detail13get_containerINS0_19basic_memory_bufferIcLm250ENSt3__19allocatorIcEEEEEERT_NS4_20back_insert_iteratorIS8_EE, symObjAddr: 0xAEEC, symBinAddr: 0x10000BE6C, symSize: 0x34 }
  - { offsetInCU: 0x572CB, offset: 0x572CB, size: 0x8, addend: 0x0, symName: __ZN3fmt3v106detail16abort_fuzzing_ifEb, symObjAddr: 0x8618, symBinAddr: 0x100009598, symSize: 0x28 }
  - { offsetInCU: 0x572F6, offset: 0x572F6, size: 0x8, addend: 0x0, symName: __ZN3fmt3v106detail13ignore_unusedIJbEEEvDpRKT_, symObjAddr: 0x8718, symBinAddr: 0x100009698, symSize: 0x10 }
  - { offsetInCU: 0x5732A, offset: 0x5732A, size: 0x8, addend: 0x0, symName: __ZN3fmt3v106detail11to_unsignedIlEENSt3__113make_unsignedIT_E4typeES5_, symObjAddr: 0x9D1C, symBinAddr: 0x10000AC9C, symSize: 0x50 }
  - { offsetInCU: 0x5739D, offset: 0x5739D, size: 0x8, addend: 0x0, symName: __ZN3fmt3v106detail14format_decimalIcjEENS1_21format_decimal_resultIPT_EES5_T0_i, symObjAddr: 0xAAF4, symBinAddr: 0x10000BA74, symSize: 0x190 }
  - { offsetInCU: 0x57483, offset: 0x57483, size: 0x8, addend: 0x0, symName: __ZN3fmt3v106detail12count_digitsEj, symObjAddr: 0xAC84, symBinAddr: 0x10000BC04, symSize: 0x4C }
  - { offsetInCU: 0x574D8, offset: 0x574D8, size: 0x8, addend: 0x0, symName: __ZN3fmt3v106detail7digits2Em, symObjAddr: 0xACD0, symBinAddr: 0x10000BC50, symSize: 0x20 }
  - { offsetInCU: 0x577F5, offset: 0x577F5, size: 0x8, addend: 0x0, symName: __ZN3fmt3v106detail10get_bufferIcNS0_19basic_memory_bufferIcLm250ENSt3__19allocatorIcEEEELi0EEERNS1_6bufferIcEENS4_20back_insert_iteratorIT0_EE, symObjAddr: 0xAEA0, symBinAddr: 0x10000BE20, symSize: 0x2C }
  - { offsetInCU: 0x5783B, offset: 0x5783B, size: 0x8, addend: 0x0, symName: __ZN3fmt3v106detail12get_iteratorIcNSt3__120back_insert_iteratorINS0_19basic_memory_bufferIcLm250ENS3_9allocatorIcEEEEEEEET0_RNS1_6bufferIT_EESA_, symObjAddr: 0xAECC, symBinAddr: 0x10000BE4C, symSize: 0x20 }
  - { offsetInCU: 0x57888, offset: 0x57888, size: 0x8, addend: 0x0, symName: __ZN3fmt3v106detail19check_format_stringIJRiEZZN6spdlog7details10fmt_helper4pad2EiRNS0_19basic_memory_bufferIcLm250ENSt3__19allocatorIcEEEEENKUlvE_clEvE18FMT_COMPILE_STRINGLi0EEEvT0_, symObjAddr: 0xB000, symBinAddr: 0x10000BF80, symSize: 0x38 }
  - { offsetInCU: 0x578EC, offset: 0x578EC, size: 0x8, addend: 0x0, symName: __ZN3fmt3v106detail12count_digitsEy, symObjAddr: 0x16EE4, symBinAddr: 0x100017E64, symSize: 0x24 }
  - { offsetInCU: 0x5791A, offset: 0x5791A, size: 0x8, addend: 0x0, symName: __ZN3fmt3v106detail14format_decimalIcyEENS1_21format_decimal_resultIPT_EES5_T0_i, symObjAddr: 0x1701C, symBinAddr: 0x100017F9C, symSize: 0x188 }
  - { offsetInCU: 0x57B0F, offset: 0x57B0F, size: 0x8, addend: 0x0, symName: __ZN3fmt3v106detail19check_format_stringIJPKcRKS4_RKiEZZN6spdlog6logger8sink_it_ERKNS9_7details7log_msgEENKUlvE_clEvE18FMT_COMPILE_STRINGLi0EEEvT0_, symObjAddr: 0x41D9C, symBinAddr: 0x100042D1C, symSize: 0x38 }
  - { offsetInCU: 0x57B7F, offset: 0x57B7F, size: 0x8, addend: 0x0, symName: __ZN3fmt3v106detail8copy_strIcccLi0EEEPT1_PT0_S6_S4_, symObjAddr: 0x466A4, symBinAddr: 0x100047624, symSize: 0x70 }
  - { offsetInCU: 0x58631, offset: 0x58631, size: 0x8, addend: 0x0, symName: __ZN3fmt3v1010vformat_toINSt3__120back_insert_iteratorINS0_19basic_memory_bufferIcLm250ENS2_9allocatorIcEEEEEELi0EEET_S9_NS0_17basic_string_viewIcEENS0_17basic_format_argsINS0_20basic_format_contextINS0_8appenderEcEEEE, symObjAddr: 0xAD2C, symBinAddr: 0x10000BCAC, symSize: 0xA0 }
  - { offsetInCU: 0x586F0, offset: 0x586F0, size: 0x8, addend: 0x0, symName: __ZN3fmt3v1016make_format_argsINS0_20basic_format_contextINS0_8appenderEcEEJiEEENS0_16format_arg_storeIT_JDpNSt3__19remove_cvINS7_16remove_referenceIT0_E4typeEE4typeEEEEDpRSA_, symObjAddr: 0xADCC, symBinAddr: 0x10000BD4C, symSize: 0xD4 }
  - { offsetInCU: 0x5888C, offset: 0x5888C, size: 0x8, addend: 0x0, symName: __ZN3fmt3v1015detail_exported22compile_string_to_viewIcLm6EEENS0_17basic_string_viewIT_EERAT0__KS4_, symObjAddr: 0xB038, symBinAddr: 0x10000BFB8, symSize: 0x64 }
  - { offsetInCU: 0x588CD, offset: 0x588CD, size: 0x8, addend: 0x0, symName: __ZN3fmt3v1015detail_exported22compile_string_to_viewIcLm12EEENS0_17basic_string_viewIT_EERAT0__KS4_, symObjAddr: 0x41DD4, symBinAddr: 0x100042D54, symSize: 0x64 }
  - { offsetInCU: 0x58A1A, offset: 0x58A1A, size: 0x8, addend: 0x0, symName: __ZN3fmt3v1016make_format_argsINS0_20basic_format_contextINS0_8appenderEcEEJPKcKS6_KiEEENS0_16format_arg_storeIT_JDpNSt3__19remove_cvINSB_16remove_referenceIT0_E4typeEE4typeEEEEDpRSE_, symObjAddr: 0x41B78, symBinAddr: 0x100042AF8, symSize: 0x1EC }
  - { offsetInCU: 0x5A13B, offset: 0x5A13B, size: 0x8, addend: 0x0, symName: __ZN6spdlog7details8registry8instanceEv, symObjAddr: 0x3ADC, symBinAddr: 0x100004A5C, symSize: 0xB8 }
  - { offsetInCU: 0x5A15C, offset: 0x5A15C, size: 0x8, addend: 0x0, symName: __ZZN6spdlog7details8registry8instanceEvE10s_instance, symObjAddr: 0x506D8, symBinAddr: 0x100058000, symSize: 0x0 }
  - { offsetInCU: 0x5A591, offset: 0x5A591, size: 0x8, addend: 0x0, symName: __ZN6spdlog3mdc11get_contextEv, symObjAddr: 0x8AB8, symBinAddr: 0x100009A38, symSize: 0x90 }
  - { offsetInCU: 0x5A69F, offset: 0x5A69F, size: 0x8, addend: 0x0, symName: __ZN6spdlog7details13console_mutex5mutexEv, symObjAddr: 0x3A8CC, symBinAddr: 0x10003B84C, symSize: 0x84 }
  - { offsetInCU: 0x5A6BE, offset: 0x5A6BE, size: 0x8, addend: 0x0, symName: __ZZN6spdlog7details13console_mutex5mutexEvE7s_mutex, symObjAddr: 0x50900, symBinAddr: 0x100058228, symSize: 0x0 }
  - { offsetInCU: 0x5A6D3, offset: 0x5A6D3, size: 0x8, addend: 0x0, symName: __ZZN6spdlog7details2os17is_color_terminalEvENKUlvE_clEv, symObjAddr: 0x3AF24, symBinAddr: 0x10003BEA4, symSize: 0xDC }
  - { offsetInCU: 0x5A6FB, offset: 0x5A6FB, size: 0x8, addend: 0x0, symName: __ZZZN6spdlog7details2os17is_color_terminalEvENKUlvE_clEvE5terms, symObjAddr: 0x4ED18, symBinAddr: 0x100056410, symSize: 0x0 }
  - { offsetInCU: 0x5A799, offset: 0x5A799, size: 0x8, addend: 0x0, symName: __ZN6spdlog6logger12err_handler_ERKNSt3__112basic_stringIcNS1_11char_traitsIcEENS1_9allocatorIcEEEE, symObjAddr: 0x414EC, symBinAddr: 0x10004246C, symSize: 0x2A0 }
  - { offsetInCU: 0x5A7BE, offset: 0x5A7BE, size: 0x8, addend: 0x0, symName: __ZZN6spdlog6logger12err_handler_ERKNSt3__112basic_stringIcNS1_11char_traitsIcEENS1_9allocatorIcEEEEE5mutex, symObjAddr: 0x50958, symBinAddr: 0x100058280, symSize: 0x0 }
  - { offsetInCU: 0x5A7D3, offset: 0x5A7D3, size: 0x8, addend: 0x0, symName: __ZZN6spdlog6logger12err_handler_ERKNSt3__112basic_stringIcNS1_11char_traitsIcEENS1_9allocatorIcEEEEE16last_report_time, symObjAddr: 0x509A0, symBinAddr: 0x1000582C8, symSize: 0x0 }
  - { offsetInCU: 0x5A7E8, offset: 0x5A7E8, size: 0x8, addend: 0x0, symName: __ZZN6spdlog6logger12err_handler_ERKNSt3__112basic_stringIcNS1_11char_traitsIcEENS1_9allocatorIcEEEEE11err_counter, symObjAddr: 0x509A8, symBinAddr: 0x1000582D0, symSize: 0x0 }
  - { offsetInCU: 0x5C107, offset: 0x5C107, size: 0x8, addend: 0x0, symName: __ZNSt3__16vectorINS_10unique_ptrIN6spdlog7details14flag_formatterENS_14default_deleteIS4_EEEENS_9allocatorIS7_EEE26__swap_out_circular_bufferERNS_14__split_bufferIS7_RS9_EE, symObjAddr: 0x66EC, symBinAddr: 0x10000766C, symSize: 0x110 }
  - { offsetInCU: 0x5C29F, offset: 0x5C29F, size: 0x8, addend: 0x0, symName: __ZNKSt3__16chrono15__duration_castINS0_8durationIxNS_5ratioILl1ELl1000000EEEEENS2_IxNS3_ILl1ELl1EEEEES4_Lb1ELb0EEclB8ue170006ERKS5_, symObjAddr: 0xA7F0, symBinAddr: 0x10000B770, symSize: 0x4C }
  - { offsetInCU: 0x5C33E, offset: 0x5C33E, size: 0x8, addend: 0x0, symName: __ZNKSt3__16chrono15__duration_castINS0_8durationIxNS_5ratioILl1ELl1000000EEEEENS2_IxNS3_ILl1ELl1000EEEEES6_Lb1ELb0EEclB8ue170006ERKS5_, symObjAddr: 0xB24C, symBinAddr: 0x10000C1CC, symSize: 0x48 }
  - { offsetInCU: 0x5C387, offset: 0x5C387, size: 0x8, addend: 0x0, symName: __ZNKSt3__16chrono15__duration_castINS0_8durationIxNS_5ratioILl1ELl1EEEEENS2_IxNS3_ILl1ELl1000EEEEENS3_ILl1000ELl1EEELb0ELb1EEclB8ue170006ERKS5_, symObjAddr: 0xB294, symBinAddr: 0x10000C214, symSize: 0x48 }
  - { offsetInCU: 0x5D914, offset: 0x5D914, size: 0x8, addend: 0x0, symName: __ZNKSt3__16chrono15__duration_castINS0_8durationIxNS_5ratioILl1ELl1EEEEENS2_IxNS3_ILl1ELl1000000EEEEENS3_ILl1000000ELl1EEELb0ELb1EEclB8ue170006ERKS5_, symObjAddr: 0x1DE08, symBinAddr: 0x10001ED88, symSize: 0x4C }
  - { offsetInCU: 0x5DA07, offset: 0x5DA07, size: 0x8, addend: 0x0, symName: __ZNKSt3__16chrono15__duration_castINS0_8durationIxNS_5ratioILl1ELl1000000EEEEENS2_IxNS3_ILl1ELl1000000000EEEEENS3_ILl1000ELl1EEELb0ELb1EEclB8ue170006ERKS5_, symObjAddr: 0x1E6FC, symBinAddr: 0x10001F67C, symSize: 0x48 }
  - { offsetInCU: 0x5DA50, offset: 0x5DA50, size: 0x8, addend: 0x0, symName: __ZNKSt3__16chrono15__duration_castINS0_8durationIxNS_5ratioILl1ELl1EEEEENS2_IxNS3_ILl1ELl1000000000EEEEENS3_ILl1000000000ELl1EEELb0ELb1EEclB8ue170006ERKS5_, symObjAddr: 0x1E744, symBinAddr: 0x10001F6C4, symSize: 0x4C }
  - { offsetInCU: 0x5DEA0, offset: 0x5DEA0, size: 0x8, addend: 0x0, symName: __ZNKSt3__16chrono13__duration_ltINS0_8durationIxNS_5ratioILl1ELl1000000EEEEENS2_IxNS3_ILl1ELl1EEEEEEclB8ue170006ERKS5_RKS7_, symObjAddr: 0x21330, symBinAddr: 0x1000222B0, symSize: 0x6C }
  - { offsetInCU: 0x60778, offset: 0x60778, size: 0x8, addend: 0x0, symName: __ZNSt3__16vectorINS_10unique_ptrI9ComponentNS_14default_deleteIS2_EEEENS_9allocatorIS5_EEE26__swap_out_circular_bufferERNS_14__split_bufferIS5_RS7_EE, symObjAddr: 0x473B4, symBinAddr: 0x100048334, symSize: 0x110 }
  - { offsetInCU: 0x60810, offset: 0x60810, size: 0x8, addend: 0x0, symName: __ZNSt3__16vectorINS_10unique_ptrI4BulbNS_14default_deleteIS2_EEEENS_9allocatorIS5_EEE26__swap_out_circular_bufferERNS_14__split_bufferIS5_RS7_EE, symObjAddr: 0x48FD0, symBinAddr: 0x100049F50, symSize: 0x110 }
  - { offsetInCU: 0x612DA, offset: 0x612DA, size: 0x8, addend: 0x0, symName: __Z7isdigiti, symObjAddr: 0x12B38, symBinAddr: 0x100013AB8, symSize: 0x28 }
  - { offsetInCU: 0x62B72, offset: 0x62B72, size: 0x8, addend: 0x0, symName: _main, symObjAddr: 0x0, symBinAddr: 0x100000F80, symSize: 0xC28 }
  - { offsetInCU: 0x62E4D, offset: 0x62E4D, size: 0x8, addend: 0x0, symName: __ZN2sf15ContextSettingsC1Ejjjjjjb, symObjAddr: 0xC28, symBinAddr: 0x100001BA8, symSize: 0x70 }
  - { offsetInCU: 0x62ED9, offset: 0x62ED9, size: 0x8, addend: 0x0, symName: __ZN2sf6StringD1Ev, symObjAddr: 0xC98, symBinAddr: 0x100001C18, symSize: 0x2C }
  - { offsetInCU: 0x62F05, offset: 0x62F05, size: 0x8, addend: 0x0, symName: __ZNSt3__16vectorINS_10unique_ptrI9ComponentNS_14default_deleteIS2_EEEENS_9allocatorIS5_EEEC1B8ue170006Ev, symObjAddr: 0xCC4, symBinAddr: 0x100001C44, symSize: 0x2C }
  - { offsetInCU: 0x62F2F, offset: 0x62F2F, size: 0x8, addend: 0x0, symName: __ZNSt3__16vectorINS_10unique_ptrI4BulbNS_14default_deleteIS2_EEEENS_9allocatorIS5_EEEC1B8ue170006Ev, symObjAddr: 0xCF0, symBinAddr: 0x100001C70, symSize: 0x2C }
  - { offsetInCU: 0x62F5E, offset: 0x62F5E, size: 0x8, addend: 0x0, symName: __ZNSt3__112basic_stringIcNS_11char_traitsIcEENS_9allocatorIcEEEC1B8ue170006ILi0EEEPKc, symObjAddr: 0xD1C, symBinAddr: 0x100001C9C, symSize: 0x34 }
  - { offsetInCU: 0x62F9D, offset: 0x62F9D, size: 0x8, addend: 0x0, symName: __ZN2sf7Vector2IfEC1Eff, symObjAddr: 0xD50, symBinAddr: 0x100001CD0, symSize: 0x3C }
  - { offsetInCU: 0x6306B, offset: 0x6306B, size: 0x8, addend: 0x0, symName: __ZN15SwitchComponentC1ENSt3__112basic_stringIcNS0_11char_traitsIcEENS0_9allocatorIcEEEEN2sf7Vector2IfEE, symObjAddr: 0xD8C, symBinAddr: 0x100001D0C, symSize: 0x44 }
  - { offsetInCU: 0x630B3, offset: 0x630B3, size: 0x8, addend: 0x0, symName: __ZNKSt3__110unique_ptrI7AndGateNS_14default_deleteIS1_EEEptB8ue170006Ev, symObjAddr: 0xE34, symBinAddr: 0x100001DB4, symSize: 0x28 }
  - { offsetInCU: 0x630D9, offset: 0x630D9, size: 0x8, addend: 0x0, symName: __ZNSt3__16vectorINS_10unique_ptrI9ComponentNS_14default_deleteIS2_EEEENS_9allocatorIS5_EEE9push_backB8ue170006EOS5_, symObjAddr: 0xE5C, symBinAddr: 0x100001DDC, symSize: 0x6C }
  - { offsetInCU: 0x63110, offset: 0x63110, size: 0x8, addend: 0x0, symName: __ZNSt3__110unique_ptrI9ComponentNS_14default_deleteIS1_EEEC1B8ue170006I7AndGateNS2_IS6_EEvvEEONS0_IT_T0_EE, symObjAddr: 0xEC8, symBinAddr: 0x100001E48, symSize: 0x34 }
  - { offsetInCU: 0x6315C, offset: 0x6315C, size: 0x8, addend: 0x0, symName: __ZNSt3__110unique_ptrI9ComponentNS_14default_deleteIS1_EEED1B8ue170006Ev, symObjAddr: 0xEFC, symBinAddr: 0x100001E7C, symSize: 0x2C }
  - { offsetInCU: 0x63186, offset: 0x63186, size: 0x8, addend: 0x0, symName: __ZNKSt3__110unique_ptrI4BulbNS_14default_deleteIS1_EEEptB8ue170006Ev, symObjAddr: 0x1010, symBinAddr: 0x100001F90, symSize: 0x28 }
  - { offsetInCU: 0x631AC, offset: 0x631AC, size: 0x8, addend: 0x0, symName: __ZNSt3__16vectorINS_10unique_ptrI4BulbNS_14default_deleteIS2_EEEENS_9allocatorIS5_EEE9push_backB8ue170006EOS5_, symObjAddr: 0x1038, symBinAddr: 0x100001FB8, symSize: 0x6C }
  - { offsetInCU: 0x631E3, offset: 0x631E3, size: 0x8, addend: 0x0, symName: __ZN2sf7Vector2IfEC1Ev, symObjAddr: 0x10A4, symBinAddr: 0x100002024, symSize: 0x2C }
  - { offsetInCU: 0x6320F, offset: 0x6320F, size: 0x8, addend: 0x0, symName: __ZNSt3__112basic_stringIcNS_11char_traitsIcEENS_9allocatorIcEEEC1B8ue170006Ev, symObjAddr: 0x10D0, symBinAddr: 0x100002050, symSize: 0x2C }
  - { offsetInCU: 0x63239, offset: 0x63239, size: 0x8, addend: 0x0, symName: __ZNSt3__113basic_ostreamIcNS_11char_traitsIcEEElsB8ue170006EPFRS3_S4_E, symObjAddr: 0x1144, symBinAddr: 0x1000020C4, symSize: 0x2C }
  - { offsetInCU: 0x6326D, offset: 0x6326D, size: 0x8, addend: 0x0, symName: __ZN15SwitchComponent9isClickedEN2sf7Vector2IiEE, symObjAddr: 0x11C8, symBinAddr: 0x100002148, symSize: 0xC0 }
  - { offsetInCU: 0x632CC, offset: 0x632CC, size: 0x8, addend: 0x0, symName: __ZNSt3__16vectorINS_10unique_ptrI9ComponentNS_14default_deleteIS2_EEEENS_9allocatorIS5_EEE5beginB8ue170006Ev, symObjAddr: 0x1288, symBinAddr: 0x100002208, symSize: 0x30 }
  - { offsetInCU: 0x632F4, offset: 0x632F4, size: 0x8, addend: 0x0, symName: __ZNSt3__16vectorINS_10unique_ptrI9ComponentNS_14default_deleteIS2_EEEENS_9allocatorIS5_EEE3endB8ue170006Ev, symObjAddr: 0x12B8, symBinAddr: 0x100002238, symSize: 0x30 }
  - { offsetInCU: 0x6331C, offset: 0x6331C, size: 0x8, addend: 0x0, symName: __ZNKSt3__111__wrap_iterIPNS_10unique_ptrI9ComponentNS_14default_deleteIS2_EEEEEdeB8ue170006Ev, symObjAddr: 0x131C, symBinAddr: 0x10000229C, symSize: 0x18 }
  - { offsetInCU: 0x63342, offset: 0x63342, size: 0x8, addend: 0x0, symName: __ZNKSt3__110unique_ptrI9ComponentNS_14default_deleteIS1_EEEptB8ue170006Ev, symObjAddr: 0x1334, symBinAddr: 0x1000022B4, symSize: 0x28 }
  - { offsetInCU: 0x63368, offset: 0x63368, size: 0x8, addend: 0x0, symName: __ZNKSt3__110unique_ptrI9ComponentNS_14default_deleteIS1_EEE3getB8ue170006Ev, symObjAddr: 0x135C, symBinAddr: 0x1000022DC, symSize: 0x28 }
  - { offsetInCU: 0x6338E, offset: 0x6338E, size: 0x8, addend: 0x0, symName: __ZN2sf7Vector2IfEC1IiEERKNS0_IT_EE, symObjAddr: 0x13DC, symBinAddr: 0x10000235C, symSize: 0x34 }
  - { offsetInCU: 0x633D1, offset: 0x633D1, size: 0x8, addend: 0x0, symName: __ZNSt3__111__wrap_iterIPNS_10unique_ptrI9ComponentNS_14default_deleteIS2_EEEEEppB8ue170006Ev, symObjAddr: 0x1410, symBinAddr: 0x100002390, symSize: 0x20 }
  - { offsetInCU: 0x633F7, offset: 0x633F7, size: 0x8, addend: 0x0, symName: __ZNSt3__16vectorINS_10unique_ptrI4BulbNS_14default_deleteIS2_EEEENS_9allocatorIS5_EEE5beginB8ue170006Ev, symObjAddr: 0x1488, symBinAddr: 0x100002408, symSize: 0x30 }
  - { offsetInCU: 0x6341F, offset: 0x6341F, size: 0x8, addend: 0x0, symName: __ZNSt3__16vectorINS_10unique_ptrI4BulbNS_14default_deleteIS2_EEEENS_9allocatorIS5_EEE3endB8ue170006Ev, symObjAddr: 0x14B8, symBinAddr: 0x100002438, symSize: 0x30 }
  - { offsetInCU: 0x63447, offset: 0x63447, size: 0x8, addend: 0x0, symName: __ZNKSt3__111__wrap_iterIPNS_10unique_ptrI4BulbNS_14default_deleteIS2_EEEEEdeB8ue170006Ev, symObjAddr: 0x151C, symBinAddr: 0x10000249C, symSize: 0x18 }
  - { offsetInCU: 0x6346D, offset: 0x6346D, size: 0x8, addend: 0x0, symName: __ZNSt3__111__wrap_iterIPNS_10unique_ptrI4BulbNS_14default_deleteIS2_EEEEEppB8ue170006Ev, symObjAddr: 0x1534, symBinAddr: 0x1000024B4, symSize: 0x20 }
  - { offsetInCU: 0x63493, offset: 0x63493, size: 0x8, addend: 0x0, symName: __ZNSt3__112basic_stringIcNS_11char_traitsIcEENS_9allocatorIcEEEaSB8ue170006EOS5_, symObjAddr: 0x1598, symBinAddr: 0x100002518, symSize: 0x34 }
  - { offsetInCU: 0x63AFB, offset: 0x63AFB, size: 0x8, addend: 0x0, symName: __ZN2sf4TextD1Ev, symObjAddr: 0x15CC, symBinAddr: 0x10000254C, symSize: 0x2C }
  - { offsetInCU: 0x63B27, offset: 0x63B27, size: 0x8, addend: 0x0, symName: __ZNSt3__110unique_ptrI4BulbNS_14default_deleteIS1_EEED1B8ue170006Ev, symObjAddr: 0x15F8, symBinAddr: 0x100002578, symSize: 0x2C }
  - { offsetInCU: 0x63B51, offset: 0x63B51, size: 0x8, addend: 0x0, symName: __ZNSt3__110unique_ptrI7AndGateNS_14default_deleteIS1_EEED1B8ue170006Ev, symObjAddr: 0x1624, symBinAddr: 0x1000025A4, symSize: 0x2C }
  - { offsetInCU: 0x63B7B, offset: 0x63B7B, size: 0x8, addend: 0x0, symName: __ZN15SwitchComponentD1Ev, symObjAddr: 0x1650, symBinAddr: 0x1000025D0, symSize: 0x2C }
  - { offsetInCU: 0x63BA7, offset: 0x63BA7, size: 0x8, addend: 0x0, symName: __ZNSt3__16vectorINS_10unique_ptrI4BulbNS_14default_deleteIS2_EEEENS_9allocatorIS5_EEED1B8ue170006Ev, symObjAddr: 0x167C, symBinAddr: 0x1000025FC, symSize: 0x2C }
  - { offsetInCU: 0x63BD1, offset: 0x63BD1, size: 0x8, addend: 0x0, symName: __ZNSt3__16vectorINS_10unique_ptrI9ComponentNS_14default_deleteIS2_EEEENS_9allocatorIS5_EEED1B8ue170006Ev, symObjAddr: 0x16A8, symBinAddr: 0x100002628, symSize: 0x2C }
  - { offsetInCU: 0x63BFB, offset: 0x63BFB, size: 0x8, addend: 0x0, symName: __ZN2sf15ContextSettingsC2Ejjjjjjb, symObjAddr: 0x16D4, symBinAddr: 0x100002654, symSize: 0x74 }
  - { offsetInCU: 0x63C87, offset: 0x63C87, size: 0x8, addend: 0x0, symName: __ZN2sf6StringD2Ev, symObjAddr: 0x1748, symBinAddr: 0x1000026C8, symSize: 0x2C }
  - { offsetInCU: 0x63CB3, offset: 0x63CB3, size: 0x8, addend: 0x0, symName: __ZNSt3__112basic_stringIjNS_11char_traitsIjEENS_9allocatorIjEEED1Ev, symObjAddr: 0x1774, symBinAddr: 0x1000026F4, symSize: 0x2C }
  - { offsetInCU: 0x63CDD, offset: 0x63CDD, size: 0x8, addend: 0x0, symName: __ZNSt3__112basic_stringIjNS_11char_traitsIjEENS_9allocatorIjEEED2Ev, symObjAddr: 0x17A0, symBinAddr: 0x100002720, symSize: 0x74 }
  - { offsetInCU: 0x63D07, offset: 0x63D07, size: 0x8, addend: 0x0, symName: __ZNKSt3__112basic_stringIjNS_11char_traitsIjEENS_9allocatorIjEEE9__is_longB8ue170006Ev, symObjAddr: 0x1814, symBinAddr: 0x100002794, symSize: 0x38 }
  - { offsetInCU: 0x63D2D, offset: 0x63D2D, size: 0x8, addend: 0x0, symName: __ZNSt3__116allocator_traitsINS_9allocatorIjEEE10deallocateB8ue170006ERS2_Pjm, symObjAddr: 0x184C, symBinAddr: 0x1000027CC, symSize: 0x34 }
  - { offsetInCU: 0x63D6F, offset: 0x63D6F, size: 0x8, addend: 0x0, symName: __ZNSt3__112basic_stringIjNS_11char_traitsIjEENS_9allocatorIjEEE7__allocB8ue170006Ev, symObjAddr: 0x1880, symBinAddr: 0x100002800, symSize: 0x24 }
  - { offsetInCU: 0x63D95, offset: 0x63D95, size: 0x8, addend: 0x0, symName: __ZNSt3__112basic_stringIjNS_11char_traitsIjEENS_9allocatorIjEEE18__get_long_pointerB8ue170006Ev, symObjAddr: 0x18A4, symBinAddr: 0x100002824, symSize: 0x28 }
  - { offsetInCU: 0x63DBB, offset: 0x63DBB, size: 0x8, addend: 0x0, symName: __ZNKSt3__112basic_stringIjNS_11char_traitsIjEENS_9allocatorIjEEE14__get_long_capB8ue170006Ev, symObjAddr: 0x18CC, symBinAddr: 0x10000284C, symSize: 0x30 }
  - { offsetInCU: 0x63DE1, offset: 0x63DE1, size: 0x8, addend: 0x0, symName: __ZNKSt3__117__compressed_pairINS_12basic_stringIjNS_11char_traitsIjEENS_9allocatorIjEEE5__repES5_E5firstB8ue170006Ev, symObjAddr: 0x18FC, symBinAddr: 0x10000287C, symSize: 0x24 }
  - { offsetInCU: 0x63E07, offset: 0x63E07, size: 0x8, addend: 0x0, symName: __ZNKSt3__122__compressed_pair_elemINS_12basic_stringIjNS_11char_traitsIjEENS_9allocatorIjEEE5__repELi0ELb0EE5__getB8ue170006Ev, symObjAddr: 0x1920, symBinAddr: 0x1000028A0, symSize: 0x14 }
  - { offsetInCU: 0x63E2D, offset: 0x63E2D, size: 0x8, addend: 0x0, symName: __ZNSt3__19allocatorIjE10deallocateB8ue170006EPjm, symObjAddr: 0x1934, symBinAddr: 0x1000028B4, symSize: 0x40 }
  - { offsetInCU: 0x63E6F, offset: 0x63E6F, size: 0x8, addend: 0x0, symName: __ZNSt3__117__compressed_pairINS_12basic_stringIjNS_11char_traitsIjEENS_9allocatorIjEEE5__repES5_E6secondB8ue170006Ev, symObjAddr: 0x1AA8, symBinAddr: 0x100002A28, symSize: 0x24 }
  - { offsetInCU: 0x63E95, offset: 0x63E95, size: 0x8, addend: 0x0, symName: __ZNSt3__122__compressed_pair_elemINS_9allocatorIjEELi1ELb1EE5__getB8ue170006Ev, symObjAddr: 0x1ACC, symBinAddr: 0x100002A4C, symSize: 0x14 }
  - { offsetInCU: 0x63EBB, offset: 0x63EBB, size: 0x8, addend: 0x0, symName: __ZNSt3__117__compressed_pairINS_12basic_stringIjNS_11char_traitsIjEENS_9allocatorIjEEE5__repES5_E5firstB8ue170006Ev, symObjAddr: 0x1AE0, symBinAddr: 0x100002A60, symSize: 0x24 }
  - { offsetInCU: 0x63EE1, offset: 0x63EE1, size: 0x8, addend: 0x0, symName: __ZNSt3__122__compressed_pair_elemINS_12basic_stringIjNS_11char_traitsIjEENS_9allocatorIjEEE5__repELi0ELb0EE5__getB8ue170006Ev, symObjAddr: 0x1B04, symBinAddr: 0x100002A84, symSize: 0x14 }
  - { offsetInCU: 0x63F07, offset: 0x63F07, size: 0x8, addend: 0x0, symName: __ZN15SwitchComponentC2ENSt3__112basic_stringIcNS0_11char_traitsIcEENS0_9allocatorIcEEEEN2sf7Vector2IfEE, symObjAddr: 0x1B18, symBinAddr: 0x100002A98, symSize: 0xE0 }
  - { offsetInCU: 0x63F4F, offset: 0x63F4F, size: 0x8, addend: 0x0, symName: __ZN2sf11CircleShapeD1Ev, symObjAddr: 0x1BF8, symBinAddr: 0x100002B78, symSize: 0x2C }
  - { offsetInCU: 0x63F7B, offset: 0x63F7B, size: 0x8, addend: 0x0, symName: __ZN2sf11CircleShapeD2Ev, symObjAddr: 0x1C24, symBinAddr: 0x100002BA4, symSize: 0x2C }
  - { offsetInCU: 0x63FA7, offset: 0x63FA7, size: 0x8, addend: 0x0, symName: __ZThn8_N2sf11CircleShapeD1Ev, symObjAddr: 0x1C50, symBinAddr: 0x100002BD0, symSize: 0x1C }
  - { offsetInCU: 0x63FBC, offset: 0x63FBC, size: 0x8, addend: 0x0, symName: __Z4sqrtB8ue170006f, symObjAddr: 0x1C6C, symBinAddr: 0x100002BEC, symSize: 0x18 }
  - { offsetInCU: 0x63FEB, offset: 0x63FEB, size: 0x8, addend: 0x0, symName: __ZNKSt3__111__wrap_iterIPNS_10unique_ptrI9ComponentNS_14default_deleteIS2_EEEEE4baseB8ue170006Ev, symObjAddr: 0x1CCC, symBinAddr: 0x100002C4C, symSize: 0x18 }
  - { offsetInCU: 0x64011, offset: 0x64011, size: 0x8, addend: 0x0, symName: __ZNKSt3__111__wrap_iterIPNS_10unique_ptrI4BulbNS_14default_deleteIS2_EEEEE4baseB8ue170006Ev, symObjAddr: 0x1D2C, symBinAddr: 0x100002CAC, symSize: 0x18 }
  - { offsetInCU: 0x64037, offset: 0x64037, size: 0x8, addend: 0x0, symName: __ZN2sf4TextD2Ev, symObjAddr: 0x1D44, symBinAddr: 0x100002CC4, symSize: 0x74 }
  - { offsetInCU: 0x64063, offset: 0x64063, size: 0x8, addend: 0x0, symName: __ZThn8_N2sf4TextD1Ev, symObjAddr: 0x1DB8, symBinAddr: 0x100002D38, symSize: 0x1C }
  - { offsetInCU: 0x64079, offset: 0x64079, size: 0x8, addend: 0x0, symName: __ZN2sf11VertexArrayD1Ev, symObjAddr: 0x1DD4, symBinAddr: 0x100002D54, symSize: 0x2C }
  - { offsetInCU: 0x640A5, offset: 0x640A5, size: 0x8, addend: 0x0, symName: __ZN2sf8DrawableD2Ev, symObjAddr: 0x1E00, symBinAddr: 0x100002D80, symSize: 0x14 }
  - { offsetInCU: 0x640CF, offset: 0x640CF, size: 0x8, addend: 0x0, symName: __ZN2sf11VertexArrayD2Ev, symObjAddr: 0x1E14, symBinAddr: 0x100002D94, symSize: 0x48 }
  - { offsetInCU: 0x640FB, offset: 0x640FB, size: 0x8, addend: 0x0, symName: __ZNSt3__16vectorIN2sf6VertexENS_9allocatorIS2_EEED1B8ue170006Ev, symObjAddr: 0x1E5C, symBinAddr: 0x100002DDC, symSize: 0x2C }
  - { offsetInCU: 0x64125, offset: 0x64125, size: 0x8, addend: 0x0, symName: __ZNSt3__16vectorIN2sf6VertexENS_9allocatorIS2_EEED2B8ue170006Ev, symObjAddr: 0x1E88, symBinAddr: 0x100002E08, symSize: 0x44 }
  - { offsetInCU: 0x6414F, offset: 0x6414F, size: 0x8, addend: 0x0, symName: __ZNSt3__16vectorIN2sf6VertexENS_9allocatorIS2_EEE16__destroy_vectorC1B8ue170006ERS5_, symObjAddr: 0x1ECC, symBinAddr: 0x100002E4C, symSize: 0x34 }
  - { offsetInCU: 0x64188, offset: 0x64188, size: 0x8, addend: 0x0, symName: __ZNSt3__16vectorIN2sf6VertexENS_9allocatorIS2_EEE16__destroy_vectorclB8ue170006Ev, symObjAddr: 0x1F00, symBinAddr: 0x100002E80, symSize: 0x90 }
  - { offsetInCU: 0x641AE, offset: 0x641AE, size: 0x8, addend: 0x0, symName: __ZNSt3__16vectorIN2sf6VertexENS_9allocatorIS2_EEE16__destroy_vectorC2B8ue170006ERS5_, symObjAddr: 0x1F90, symBinAddr: 0x100002F10, symSize: 0x20 }
  - { offsetInCU: 0x641E7, offset: 0x641E7, size: 0x8, addend: 0x0, symName: __ZNSt3__16vectorIN2sf6VertexENS_9allocatorIS2_EEE7__clearB8ue170006Ev, symObjAddr: 0x1FB0, symBinAddr: 0x100002F30, symSize: 0x28 }
  - { offsetInCU: 0x6420D, offset: 0x6420D, size: 0x8, addend: 0x0, symName: __ZNKSt3__16vectorIN2sf6VertexENS_9allocatorIS2_EEE17__annotate_deleteB8ue170006Ev, symObjAddr: 0x1FD8, symBinAddr: 0x100002F58, symSize: 0xD4 }
  - { offsetInCU: 0x64233, offset: 0x64233, size: 0x8, addend: 0x0, symName: __ZNSt3__116allocator_traitsINS_9allocatorIN2sf6VertexEEEE10deallocateB8ue170006ERS4_PS3_m, symObjAddr: 0x20AC, symBinAddr: 0x10000302C, symSize: 0x34 }
  - { offsetInCU: 0x64275, offset: 0x64275, size: 0x8, addend: 0x0, symName: __ZNSt3__16vectorIN2sf6VertexENS_9allocatorIS2_EEE7__allocB8ue170006Ev, symObjAddr: 0x20E0, symBinAddr: 0x100003060, symSize: 0x28 }
  - { offsetInCU: 0x6429B, offset: 0x6429B, size: 0x8, addend: 0x0, symName: __ZNKSt3__16vectorIN2sf6VertexENS_9allocatorIS2_EEE8capacityB8ue170006Ev, symObjAddr: 0x2108, symBinAddr: 0x100003088, symSize: 0x40 }
  - { offsetInCU: 0x642C1, offset: 0x642C1, size: 0x8, addend: 0x0, symName: __ZNSt3__16vectorIN2sf6VertexENS_9allocatorIS2_EEE22__base_destruct_at_endB8ue170006EPS2_, symObjAddr: 0x2148, symBinAddr: 0x1000030C8, symSize: 0x8C }
  - { offsetInCU: 0x64305, offset: 0x64305, size: 0x8, addend: 0x0, symName: __ZNSt3__116allocator_traitsINS_9allocatorIN2sf6VertexEEEE7destroyB8ue170006IS3_vEEvRS4_PT_, symObjAddr: 0x21D4, symBinAddr: 0x100003154, symSize: 0x2C }
  - { offsetInCU: 0x64342, offset: 0x64342, size: 0x8, addend: 0x0, symName: __ZNSt3__19allocatorIN2sf6VertexEE7destroyB8ue170006EPS2_, symObjAddr: 0x2214, symBinAddr: 0x100003194, symSize: 0x14 }
  - { offsetInCU: 0x64376, offset: 0x64376, size: 0x8, addend: 0x0, symName: __ZNKSt3__16vectorIN2sf6VertexENS_9allocatorIS2_EEE31__annotate_contiguous_containerB8ue170006EPKvS7_S7_S7_, symObjAddr: 0x2228, symBinAddr: 0x1000031A8, symSize: 0x20 }
  - { offsetInCU: 0x643CC, offset: 0x643CC, size: 0x8, addend: 0x0, symName: __ZNKSt3__16vectorIN2sf6VertexENS_9allocatorIS2_EEE4dataB8ue170006Ev, symObjAddr: 0x2248, symBinAddr: 0x1000031C8, symSize: 0x28 }
  - { offsetInCU: 0x643F2, offset: 0x643F2, size: 0x8, addend: 0x0, symName: __ZNKSt3__16vectorIN2sf6VertexENS_9allocatorIS2_EEE4sizeB8ue170006Ev, symObjAddr: 0x2270, symBinAddr: 0x1000031F0, symSize: 0x28 }
  - { offsetInCU: 0x64418, offset: 0x64418, size: 0x8, addend: 0x0, symName: __ZNSt3__19allocatorIN2sf6VertexEE10deallocateB8ue170006EPS2_m, symObjAddr: 0x2298, symBinAddr: 0x100003218, symSize: 0x44 }
  - { offsetInCU: 0x6445A, offset: 0x6445A, size: 0x8, addend: 0x0, symName: __ZNSt3__117__compressed_pairIPN2sf6VertexENS_9allocatorIS2_EEE6secondB8ue170006Ev, symObjAddr: 0x22DC, symBinAddr: 0x10000325C, symSize: 0x24 }
  - { offsetInCU: 0x64480, offset: 0x64480, size: 0x8, addend: 0x0, symName: __ZNSt3__122__compressed_pair_elemINS_9allocatorIN2sf6VertexEEELi1ELb1EE5__getB8ue170006Ev, symObjAddr: 0x2300, symBinAddr: 0x100003280, symSize: 0x14 }
  - { offsetInCU: 0x644A6, offset: 0x644A6, size: 0x8, addend: 0x0, symName: __ZNKSt3__16vectorIN2sf6VertexENS_9allocatorIS2_EEE9__end_capB8ue170006Ev, symObjAddr: 0x2314, symBinAddr: 0x100003294, symSize: 0x28 }
  - { offsetInCU: 0x644CC, offset: 0x644CC, size: 0x8, addend: 0x0, symName: __ZNKSt3__117__compressed_pairIPN2sf6VertexENS_9allocatorIS2_EEE5firstB8ue170006Ev, symObjAddr: 0x233C, symBinAddr: 0x1000032BC, symSize: 0x24 }
  - { offsetInCU: 0x644F2, offset: 0x644F2, size: 0x8, addend: 0x0, symName: __ZNKSt3__122__compressed_pair_elemIPN2sf6VertexELi0ELb0EE5__getB8ue170006Ev, symObjAddr: 0x2360, symBinAddr: 0x1000032E0, symSize: 0x14 }
  - { offsetInCU: 0x64518, offset: 0x64518, size: 0x8, addend: 0x0, symName: __ZN15SwitchComponentD2Ev, symObjAddr: 0x2374, symBinAddr: 0x1000032F4, symSize: 0x38 }
  - { offsetInCU: 0x64544, offset: 0x64544, size: 0x8, addend: 0x0, symName: __ZNSt3__112basic_stringIcNS_11char_traitsIcEENS_9allocatorIcEEEC2B8ue170006Ev, symObjAddr: 0x23AC, symBinAddr: 0x10000332C, symSize: 0x48 }
  - { offsetInCU: 0x64574, offset: 0x64574, size: 0x8, addend: 0x0, symName: __ZNSt3__117__compressed_pairINS_12basic_stringIcNS_11char_traitsIcEENS_9allocatorIcEEE5__repES5_EC1B8ue170006INS_18__default_init_tagESA_EEOT_OT0_, symObjAddr: 0x23F4, symBinAddr: 0x100003374, symSize: 0x3C }
  - { offsetInCU: 0x645CC, offset: 0x645CC, size: 0x8, addend: 0x0, symName: __ZNSt3__112basic_stringIcNS_11char_traitsIcEENS_9allocatorIcEEE14__default_initB8ue170006Ev, symObjAddr: 0x2430, symBinAddr: 0x1000033B0, symSize: 0x40 }
  - { offsetInCU: 0x645F2, offset: 0x645F2, size: 0x8, addend: 0x0, symName: __ZNSt3__117__compressed_pairINS_12basic_stringIcNS_11char_traitsIcEENS_9allocatorIcEEE5__repES5_EC2B8ue170006INS_18__default_init_tagESA_EEOT_OT0_, symObjAddr: 0x2470, symBinAddr: 0x1000033F0, symSize: 0x3C }
  - { offsetInCU: 0x6464A, offset: 0x6464A, size: 0x8, addend: 0x0, symName: __ZNSt3__122__compressed_pair_elemINS_12basic_stringIcNS_11char_traitsIcEENS_9allocatorIcEEE5__repELi0ELb0EEC2B8ue170006ENS_18__default_init_tagE, symObjAddr: 0x24AC, symBinAddr: 0x10000342C, symSize: 0x14 }
  - { offsetInCU: 0x6467F, offset: 0x6467F, size: 0x8, addend: 0x0, symName: __ZNSt3__122__compressed_pair_elemINS_9allocatorIcEELi1ELb1EEC2B8ue170006ENS_18__default_init_tagE, symObjAddr: 0x24C0, symBinAddr: 0x100003440, symSize: 0x2C }
  - { offsetInCU: 0x646B4, offset: 0x646B4, size: 0x8, addend: 0x0, symName: __ZNSt3__19allocatorIcEC2B8ue170006Ev, symObjAddr: 0x24EC, symBinAddr: 0x10000346C, symSize: 0x2C }
  - { offsetInCU: 0x646DE, offset: 0x646DE, size: 0x8, addend: 0x0, symName: __ZNSt3__116__non_trivial_ifILb1ENS_9allocatorIcEEEC2B8ue170006Ev, symObjAddr: 0x2518, symBinAddr: 0x100003498, symSize: 0x14 }
  - { offsetInCU: 0x64708, offset: 0x64708, size: 0x8, addend: 0x0, symName: __ZNSt3__117__compressed_pairINS_12basic_stringIcNS_11char_traitsIcEENS_9allocatorIcEEE5__repES5_E5firstB8ue170006Ev, symObjAddr: 0x252C, symBinAddr: 0x1000034AC, symSize: 0x24 }
  - { offsetInCU: 0x6472E, offset: 0x6472E, size: 0x8, addend: 0x0, symName: __ZNSt3__122__compressed_pair_elemINS_12basic_stringIcNS_11char_traitsIcEENS_9allocatorIcEEE5__repELi0ELb0EE5__getB8ue170006Ev, symObjAddr: 0x2550, symBinAddr: 0x1000034D0, symSize: 0x14 }
  - { offsetInCU: 0x64754, offset: 0x64754, size: 0x8, addend: 0x0, symName: __ZNSt3__112basic_stringIcNS_11char_traitsIcEENS_9allocatorIcEEE13__move_assignB8ue170006ERS5_NS_17integral_constantIbLb1EEE, symObjAddr: 0x2564, symBinAddr: 0x1000034E4, symSize: 0xC8 }
  - { offsetInCU: 0x64797, offset: 0x64797, size: 0x8, addend: 0x0, symName: __ZNKSt3__112basic_stringIcNS_11char_traitsIcEENS_9allocatorIcEEE9__is_longB8ue170006Ev, symObjAddr: 0x262C, symBinAddr: 0x1000035AC, symSize: 0x38 }
  - { offsetInCU: 0x647BD, offset: 0x647BD, size: 0x8, addend: 0x0, symName: __ZNSt3__116allocator_traitsINS_9allocatorIcEEE10deallocateB8ue170006ERS2_Pcm, symObjAddr: 0x2664, symBinAddr: 0x1000035E4, symSize: 0x34 }
  - { offsetInCU: 0x647FF, offset: 0x647FF, size: 0x8, addend: 0x0, symName: __ZNSt3__112basic_stringIcNS_11char_traitsIcEENS_9allocatorIcEEE7__allocB8ue170006Ev, symObjAddr: 0x2698, symBinAddr: 0x100003618, symSize: 0x24 }
  - { offsetInCU: 0x64825, offset: 0x64825, size: 0x8, addend: 0x0, symName: __ZNSt3__112basic_stringIcNS_11char_traitsIcEENS_9allocatorIcEEE18__get_long_pointerB8ue170006Ev, symObjAddr: 0x26BC, symBinAddr: 0x10000363C, symSize: 0x28 }
  - { offsetInCU: 0x6484B, offset: 0x6484B, size: 0x8, addend: 0x0, symName: __ZNKSt3__112basic_stringIcNS_11char_traitsIcEENS_9allocatorIcEEE14__get_long_capB8ue170006Ev, symObjAddr: 0x26E4, symBinAddr: 0x100003664, symSize: 0x30 }
  - { offsetInCU: 0x64871, offset: 0x64871, size: 0x8, addend: 0x0, symName: __ZNSt3__112basic_stringIcNS_11char_traitsIcEENS_9allocatorIcEEE19__move_assign_allocB8ue170006ERS5_, symObjAddr: 0x2714, symBinAddr: 0x100003694, symSize: 0x2C }
  - { offsetInCU: 0x648A6, offset: 0x648A6, size: 0x8, addend: 0x0, symName: __ZNSt3__112basic_stringIcNS_11char_traitsIcEENS_9allocatorIcEEE16__set_short_sizeB8ue170006Em, symObjAddr: 0x2740, symBinAddr: 0x1000036C0, symSize: 0x78 }
  - { offsetInCU: 0x648DB, offset: 0x648DB, size: 0x8, addend: 0x0, symName: __ZNSt3__111char_traitsIcE6assignB8ue170006ERcRKc, symObjAddr: 0x27B8, symBinAddr: 0x100003738, symSize: 0x24 }
  - { offsetInCU: 0x6490C, offset: 0x6490C, size: 0x8, addend: 0x0, symName: __ZNSt3__112basic_stringIcNS_11char_traitsIcEENS_9allocatorIcEEE19__get_short_pointerB8ue170006Ev, symObjAddr: 0x27DC, symBinAddr: 0x10000375C, symSize: 0x28 }
  - { offsetInCU: 0x64932, offset: 0x64932, size: 0x8, addend: 0x0, symName: __ZNKSt3__117__compressed_pairINS_12basic_stringIcNS_11char_traitsIcEENS_9allocatorIcEEE5__repES5_E5firstB8ue170006Ev, symObjAddr: 0x2804, symBinAddr: 0x100003784, symSize: 0x24 }
  - { offsetInCU: 0x64958, offset: 0x64958, size: 0x8, addend: 0x0, symName: __ZNKSt3__122__compressed_pair_elemINS_12basic_stringIcNS_11char_traitsIcEENS_9allocatorIcEEE5__repELi0ELb0EE5__getB8ue170006Ev, symObjAddr: 0x2828, symBinAddr: 0x1000037A8, symSize: 0x14 }
  - { offsetInCU: 0x6497E, offset: 0x6497E, size: 0x8, addend: 0x0, symName: __ZNSt3__19allocatorIcE10deallocateB8ue170006EPcm, symObjAddr: 0x283C, symBinAddr: 0x1000037BC, symSize: 0x40 }
  - { offsetInCU: 0x649C0, offset: 0x649C0, size: 0x8, addend: 0x0, symName: __ZNSt3__117__compressed_pairINS_12basic_stringIcNS_11char_traitsIcEENS_9allocatorIcEEE5__repES5_E6secondB8ue170006Ev, symObjAddr: 0x287C, symBinAddr: 0x1000037FC, symSize: 0x24 }
  - { offsetInCU: 0x649E6, offset: 0x649E6, size: 0x8, addend: 0x0, symName: __ZNSt3__122__compressed_pair_elemINS_9allocatorIcEELi1ELb1EE5__getB8ue170006Ev, symObjAddr: 0x28A0, symBinAddr: 0x100003820, symSize: 0x14 }
  - { offsetInCU: 0x64A0C, offset: 0x64A0C, size: 0x8, addend: 0x0, symName: __ZNSt3__112basic_stringIcNS_11char_traitsIcEENS_9allocatorIcEEE19__move_assign_allocB8ue170006ERS5_NS_17integral_constantIbLb1EEE, symObjAddr: 0x28B4, symBinAddr: 0x100003834, symSize: 0x38 }
  - { offsetInCU: 0x64A4D, offset: 0x64A4D, size: 0x8, addend: 0x0, symName: __ZNSt3__114pointer_traitsIPcE10pointer_toB8ue170006ERc, symObjAddr: 0x28EC, symBinAddr: 0x10000386C, symSize: 0x14 }
  - { offsetInCU: 0x64A70, offset: 0x64A70, size: 0x8, addend: 0x0, symName: __ZNSt3__112basic_stringIcNS_11char_traitsIcEENS_9allocatorIcEEEC2B8ue170006ILi0EEEPKc, symObjAddr: 0x2900, symBinAddr: 0x100003880, symSize: 0x58 }
  - { offsetInCU: 0x64AAF, offset: 0x64AAF, size: 0x8, addend: 0x0, symName: __ZNSt3__111char_traitsIcE6lengthB8ue170006EPKc, symObjAddr: 0x2958, symBinAddr: 0x1000038D8, symSize: 0x34 }
  - { offsetInCU: 0x64AD2, offset: 0x64AD2, size: 0x8, addend: 0x0, symName: __ZN2sf7Vector2IfEC2IiEERKNS0_IT_EE, symObjAddr: 0x29B0, symBinAddr: 0x100003930, symSize: 0x38 }
  - { offsetInCU: 0x64B15, offset: 0x64B15, size: 0x8, addend: 0x0, symName: __ZN2sf7Vector2IfEC2Eff, symObjAddr: 0x29E8, symBinAddr: 0x100003968, symSize: 0x2C }
  - { offsetInCU: 0x64B5D, offset: 0x64B5D, size: 0x8, addend: 0x0, symName: __ZNSt3__16vectorINS_10unique_ptrI9ComponentNS_14default_deleteIS2_EEEENS_9allocatorIS5_EEEC2B8ue170006Ev, symObjAddr: 0x2A14, symBinAddr: 0x100003994, symSize: 0x4C }
  - { offsetInCU: 0x64B8D, offset: 0x64B8D, size: 0x8, addend: 0x0, symName: __ZNSt3__117__compressed_pairIPNS_10unique_ptrI9ComponentNS_14default_deleteIS2_EEEENS_9allocatorIS5_EEEC1B8ue170006IDnNS_18__default_init_tagEEEOT_OT0_, symObjAddr: 0x2A60, symBinAddr: 0x1000039E0, symSize: 0x3C }
  - { offsetInCU: 0x64BE5, offset: 0x64BE5, size: 0x8, addend: 0x0, symName: __ZNSt3__117__compressed_pairIPNS_10unique_ptrI9ComponentNS_14default_deleteIS2_EEEENS_9allocatorIS5_EEEC2B8ue170006IDnNS_18__default_init_tagEEEOT_OT0_, symObjAddr: 0x2A9C, symBinAddr: 0x100003A1C, symSize: 0x40 }
  - { offsetInCU: 0x64C3D, offset: 0x64C3D, size: 0x8, addend: 0x0, symName: __ZNSt3__122__compressed_pair_elemIPNS_10unique_ptrI9ComponentNS_14default_deleteIS2_EEEELi0ELb0EEC2B8ue170006IDnvEEOT_, symObjAddr: 0x2ADC, symBinAddr: 0x100003A5C, symSize: 0x1C }
  - { offsetInCU: 0x64C7F, offset: 0x64C7F, size: 0x8, addend: 0x0, symName: __ZNSt3__122__compressed_pair_elemINS_9allocatorINS_10unique_ptrI9ComponentNS_14default_deleteIS3_EEEEEELi1ELb1EEC2B8ue170006ENS_18__default_init_tagE, symObjAddr: 0x2AF8, symBinAddr: 0x100003A78, symSize: 0x2C }
  - { offsetInCU: 0x64CB4, offset: 0x64CB4, size: 0x8, addend: 0x0, symName: __ZNSt3__19allocatorINS_10unique_ptrI9ComponentNS_14default_deleteIS2_EEEEEC2B8ue170006Ev, symObjAddr: 0x2B24, symBinAddr: 0x100003AA4, symSize: 0x2C }
  - { offsetInCU: 0x64CDE, offset: 0x64CDE, size: 0x8, addend: 0x0, symName: __ZNSt3__116__non_trivial_ifILb1ENS_9allocatorINS_10unique_ptrI9ComponentNS_14default_deleteIS3_EEEEEEEC2B8ue170006Ev, symObjAddr: 0x2B50, symBinAddr: 0x100003AD0, symSize: 0x14 }
  - { offsetInCU: 0x64D08, offset: 0x64D08, size: 0x8, addend: 0x0, symName: __ZNSt3__16vectorINS_10unique_ptrI9ComponentNS_14default_deleteIS2_EEEENS_9allocatorIS5_EEED2B8ue170006Ev, symObjAddr: 0x2B64, symBinAddr: 0x100003AE4, symSize: 0x44 }
  - { offsetInCU: 0x64D32, offset: 0x64D32, size: 0x8, addend: 0x0, symName: __ZNSt3__16vectorINS_10unique_ptrI9ComponentNS_14default_deleteIS2_EEEENS_9allocatorIS5_EEE16__destroy_vectorC1B8ue170006ERS8_, symObjAddr: 0x2BA8, symBinAddr: 0x100003B28, symSize: 0x34 }
  - { offsetInCU: 0x64D6B, offset: 0x64D6B, size: 0x8, addend: 0x0, symName: __ZNSt3__16vectorINS_10unique_ptrI9ComponentNS_14default_deleteIS2_EEEENS_9allocatorIS5_EEE16__destroy_vectorclB8ue170006Ev, symObjAddr: 0x2BDC, symBinAddr: 0x100003B5C, symSize: 0x90 }
  - { offsetInCU: 0x64D91, offset: 0x64D91, size: 0x8, addend: 0x0, symName: __ZNSt3__16vectorINS_10unique_ptrI9ComponentNS_14default_deleteIS2_EEEENS_9allocatorIS5_EEE16__destroy_vectorC2B8ue170006ERS8_, symObjAddr: 0x2C6C, symBinAddr: 0x100003BEC, symSize: 0x20 }
  - { offsetInCU: 0x64DCA, offset: 0x64DCA, size: 0x8, addend: 0x0, symName: __ZNSt3__16vectorINS_10unique_ptrI9ComponentNS_14default_deleteIS2_EEEENS_9allocatorIS5_EEE7__clearB8ue170006Ev, symObjAddr: 0x2C8C, symBinAddr: 0x100003C0C, symSize: 0x28 }
  - { offsetInCU: 0x64DF0, offset: 0x64DF0, size: 0x8, addend: 0x0, symName: __ZNKSt3__16vectorINS_10unique_ptrI9ComponentNS_14default_deleteIS2_EEEENS_9allocatorIS5_EEE17__annotate_deleteB8ue170006Ev, symObjAddr: 0x2CB4, symBinAddr: 0x100003C34, symSize: 0xB8 }
  - { offsetInCU: 0x64E16, offset: 0x64E16, size: 0x8, addend: 0x0, symName: __ZNSt3__116allocator_traitsINS_9allocatorINS_10unique_ptrI9ComponentNS_14default_deleteIS3_EEEEEEE10deallocateB8ue170006ERS7_PS6_m, symObjAddr: 0x2D6C, symBinAddr: 0x100003CEC, symSize: 0x34 }
  - { offsetInCU: 0x64E58, offset: 0x64E58, size: 0x8, addend: 0x0, symName: __ZNSt3__16vectorINS_10unique_ptrI9ComponentNS_14default_deleteIS2_EEEENS_9allocatorIS5_EEE7__allocB8ue170006Ev, symObjAddr: 0x2DA0, symBinAddr: 0x100003D20, symSize: 0x28 }
  - { offsetInCU: 0x64E7E, offset: 0x64E7E, size: 0x8, addend: 0x0, symName: __ZNKSt3__16vectorINS_10unique_ptrI9ComponentNS_14default_deleteIS2_EEEENS_9allocatorIS5_EEE8capacityB8ue170006Ev, symObjAddr: 0x2DC8, symBinAddr: 0x100003D48, symSize: 0x40 }
  - { offsetInCU: 0x64EA4, offset: 0x64EA4, size: 0x8, addend: 0x0, symName: __ZNSt3__16vectorINS_10unique_ptrI9ComponentNS_14default_deleteIS2_EEEENS_9allocatorIS5_EEE22__base_destruct_at_endB8ue170006EPS5_, symObjAddr: 0x2E08, symBinAddr: 0x100003D88, symSize: 0x8C }
  - { offsetInCU: 0x64EE8, offset: 0x64EE8, size: 0x8, addend: 0x0, symName: __ZNSt3__116allocator_traitsINS_9allocatorINS_10unique_ptrI9ComponentNS_14default_deleteIS3_EEEEEEE7destroyB8ue170006IS6_vEEvRS7_PT_, symObjAddr: 0x2E94, symBinAddr: 0x100003E14, symSize: 0x2C }
  - { offsetInCU: 0x64F25, offset: 0x64F25, size: 0x8, addend: 0x0, symName: __ZNSt3__19allocatorINS_10unique_ptrI9ComponentNS_14default_deleteIS2_EEEEE7destroyB8ue170006EPS5_, symObjAddr: 0x2ED4, symBinAddr: 0x100003E54, symSize: 0x28 }
  - { offsetInCU: 0x64F59, offset: 0x64F59, size: 0x8, addend: 0x0, symName: __ZNKSt3__16vectorINS_10unique_ptrI9ComponentNS_14default_deleteIS2_EEEENS_9allocatorIS5_EEE31__annotate_contiguous_containerB8ue170006EPKvSA_SA_SA_, symObjAddr: 0x2EFC, symBinAddr: 0x100003E7C, symSize: 0x20 }
  - { offsetInCU: 0x64FAF, offset: 0x64FAF, size: 0x8, addend: 0x0, symName: __ZNKSt3__16vectorINS_10unique_ptrI9ComponentNS_14default_deleteIS2_EEEENS_9allocatorIS5_EEE4dataB8ue170006Ev, symObjAddr: 0x2F1C, symBinAddr: 0x100003E9C, symSize: 0x28 }
  - { offsetInCU: 0x64FD5, offset: 0x64FD5, size: 0x8, addend: 0x0, symName: __ZNKSt3__16vectorINS_10unique_ptrI9ComponentNS_14default_deleteIS2_EEEENS_9allocatorIS5_EEE4sizeB8ue170006Ev, symObjAddr: 0x2F44, symBinAddr: 0x100003EC4, symSize: 0x28 }
  - { offsetInCU: 0x64FFB, offset: 0x64FFB, size: 0x8, addend: 0x0, symName: __ZNSt3__19allocatorINS_10unique_ptrI9ComponentNS_14default_deleteIS2_EEEEE10deallocateB8ue170006EPS5_m, symObjAddr: 0x2F6C, symBinAddr: 0x100003EEC, symSize: 0x40 }
  - { offsetInCU: 0x6503D, offset: 0x6503D, size: 0x8, addend: 0x0, symName: __ZNSt3__117__compressed_pairIPNS_10unique_ptrI9ComponentNS_14default_deleteIS2_EEEENS_9allocatorIS5_EEE6secondB8ue170006Ev, symObjAddr: 0x2FAC, symBinAddr: 0x100003F2C, symSize: 0x24 }
  - { offsetInCU: 0x65063, offset: 0x65063, size: 0x8, addend: 0x0, symName: __ZNSt3__122__compressed_pair_elemINS_9allocatorINS_10unique_ptrI9ComponentNS_14default_deleteIS3_EEEEEELi1ELb1EE5__getB8ue170006Ev, symObjAddr: 0x2FD0, symBinAddr: 0x100003F50, symSize: 0x14 }
  - { offsetInCU: 0x65089, offset: 0x65089, size: 0x8, addend: 0x0, symName: __ZNKSt3__16vectorINS_10unique_ptrI9ComponentNS_14default_deleteIS2_EEEENS_9allocatorIS5_EEE9__end_capB8ue170006Ev, symObjAddr: 0x2FE4, symBinAddr: 0x100003F64, symSize: 0x28 }
  - { offsetInCU: 0x650AF, offset: 0x650AF, size: 0x8, addend: 0x0, symName: __ZNKSt3__117__compressed_pairIPNS_10unique_ptrI9ComponentNS_14default_deleteIS2_EEEENS_9allocatorIS5_EEE5firstB8ue170006Ev, symObjAddr: 0x300C, symBinAddr: 0x100003F8C, symSize: 0x24 }
  - { offsetInCU: 0x650D5, offset: 0x650D5, size: 0x8, addend: 0x0, symName: __ZNKSt3__122__compressed_pair_elemIPNS_10unique_ptrI9ComponentNS_14default_deleteIS2_EEEELi0ELb0EE5__getB8ue170006Ev, symObjAddr: 0x3030, symBinAddr: 0x100003FB0, symSize: 0x14 }
  - { offsetInCU: 0x650FB, offset: 0x650FB, size: 0x8, addend: 0x0, symName: __ZNSt3__16vectorINS_10unique_ptrI4BulbNS_14default_deleteIS2_EEEENS_9allocatorIS5_EEEC2B8ue170006Ev, symObjAddr: 0x3044, symBinAddr: 0x100003FC4, symSize: 0x4C }
  - { offsetInCU: 0x65125, offset: 0x65125, size: 0x8, addend: 0x0, symName: __ZNSt3__117__compressed_pairIPNS_10unique_ptrI4BulbNS_14default_deleteIS2_EEEENS_9allocatorIS5_EEEC1B8ue170006IDnNS_18__default_init_tagEEEOT_OT0_, symObjAddr: 0x3090, symBinAddr: 0x100004010, symSize: 0x3C }
  - { offsetInCU: 0x6517D, offset: 0x6517D, size: 0x8, addend: 0x0, symName: __ZNSt3__117__compressed_pairIPNS_10unique_ptrI4BulbNS_14default_deleteIS2_EEEENS_9allocatorIS5_EEEC2B8ue170006IDnNS_18__default_init_tagEEEOT_OT0_, symObjAddr: 0x30CC, symBinAddr: 0x10000404C, symSize: 0x40 }
  - { offsetInCU: 0x651D5, offset: 0x651D5, size: 0x8, addend: 0x0, symName: __ZNSt3__122__compressed_pair_elemIPNS_10unique_ptrI4BulbNS_14default_deleteIS2_EEEELi0ELb0EEC2B8ue170006IDnvEEOT_, symObjAddr: 0x310C, symBinAddr: 0x10000408C, symSize: 0x1C }
  - { offsetInCU: 0x65217, offset: 0x65217, size: 0x8, addend: 0x0, symName: __ZNSt3__122__compressed_pair_elemINS_9allocatorINS_10unique_ptrI4BulbNS_14default_deleteIS3_EEEEEELi1ELb1EEC2B8ue170006ENS_18__default_init_tagE, symObjAddr: 0x3128, symBinAddr: 0x1000040A8, symSize: 0x2C }
  - { offsetInCU: 0x6524C, offset: 0x6524C, size: 0x8, addend: 0x0, symName: __ZNSt3__19allocatorINS_10unique_ptrI4BulbNS_14default_deleteIS2_EEEEEC2B8ue170006Ev, symObjAddr: 0x3154, symBinAddr: 0x1000040D4, symSize: 0x2C }
  - { offsetInCU: 0x65276, offset: 0x65276, size: 0x8, addend: 0x0, symName: __ZNSt3__116__non_trivial_ifILb1ENS_9allocatorINS_10unique_ptrI4BulbNS_14default_deleteIS3_EEEEEEEC2B8ue170006Ev, symObjAddr: 0x3180, symBinAddr: 0x100004100, symSize: 0x14 }
  - { offsetInCU: 0x652A0, offset: 0x652A0, size: 0x8, addend: 0x0, symName: __ZNSt3__16vectorINS_10unique_ptrI4BulbNS_14default_deleteIS2_EEEENS_9allocatorIS5_EEED2B8ue170006Ev, symObjAddr: 0x3194, symBinAddr: 0x100004114, symSize: 0x44 }
  - { offsetInCU: 0x652CA, offset: 0x652CA, size: 0x8, addend: 0x0, symName: __ZNSt3__16vectorINS_10unique_ptrI4BulbNS_14default_deleteIS2_EEEENS_9allocatorIS5_EEE16__destroy_vectorC1B8ue170006ERS8_, symObjAddr: 0x31D8, symBinAddr: 0x100004158, symSize: 0x34 }
  - { offsetInCU: 0x65303, offset: 0x65303, size: 0x8, addend: 0x0, symName: __ZNSt3__16vectorINS_10unique_ptrI4BulbNS_14default_deleteIS2_EEEENS_9allocatorIS5_EEE16__destroy_vectorclB8ue170006Ev, symObjAddr: 0x320C, symBinAddr: 0x10000418C, symSize: 0x90 }
  - { offsetInCU: 0x65329, offset: 0x65329, size: 0x8, addend: 0x0, symName: __ZNSt3__16vectorINS_10unique_ptrI4BulbNS_14default_deleteIS2_EEEENS_9allocatorIS5_EEE16__destroy_vectorC2B8ue170006ERS8_, symObjAddr: 0x329C, symBinAddr: 0x10000421C, symSize: 0x20 }
  - { offsetInCU: 0x65362, offset: 0x65362, size: 0x8, addend: 0x0, symName: __ZNSt3__16vectorINS_10unique_ptrI4BulbNS_14default_deleteIS2_EEEENS_9allocatorIS5_EEE7__clearB8ue170006Ev, symObjAddr: 0x32BC, symBinAddr: 0x10000423C, symSize: 0x28 }
  - { offsetInCU: 0x65388, offset: 0x65388, size: 0x8, addend: 0x0, symName: __ZNKSt3__16vectorINS_10unique_ptrI4BulbNS_14default_deleteIS2_EEEENS_9allocatorIS5_EEE17__annotate_deleteB8ue170006Ev, symObjAddr: 0x32E4, symBinAddr: 0x100004264, symSize: 0xB8 }
  - { offsetInCU: 0x653AE, offset: 0x653AE, size: 0x8, addend: 0x0, symName: __ZNSt3__116allocator_traitsINS_9allocatorINS_10unique_ptrI4BulbNS_14default_deleteIS3_EEEEEEE10deallocateB8ue170006ERS7_PS6_m, symObjAddr: 0x339C, symBinAddr: 0x10000431C, symSize: 0x34 }
  - { offsetInCU: 0x653F0, offset: 0x653F0, size: 0x8, addend: 0x0, symName: __ZNSt3__16vectorINS_10unique_ptrI4BulbNS_14default_deleteIS2_EEEENS_9allocatorIS5_EEE7__allocB8ue170006Ev, symObjAddr: 0x33D0, symBinAddr: 0x100004350, symSize: 0x28 }
  - { offsetInCU: 0x65416, offset: 0x65416, size: 0x8, addend: 0x0, symName: __ZNKSt3__16vectorINS_10unique_ptrI4BulbNS_14default_deleteIS2_EEEENS_9allocatorIS5_EEE8capacityB8ue170006Ev, symObjAddr: 0x33F8, symBinAddr: 0x100004378, symSize: 0x40 }
  - { offsetInCU: 0x6543C, offset: 0x6543C, size: 0x8, addend: 0x0, symName: __ZNSt3__16vectorINS_10unique_ptrI4BulbNS_14default_deleteIS2_EEEENS_9allocatorIS5_EEE22__base_destruct_at_endB8ue170006EPS5_, symObjAddr: 0x3438, symBinAddr: 0x1000043B8, symSize: 0x8C }
  - { offsetInCU: 0x65480, offset: 0x65480, size: 0x8, addend: 0x0, symName: __ZNSt3__116allocator_traitsINS_9allocatorINS_10unique_ptrI4BulbNS_14default_deleteIS3_EEEEEEE7destroyB8ue170006IS6_vEEvRS7_PT_, symObjAddr: 0x34C4, symBinAddr: 0x100004444, symSize: 0x2C }
  - { offsetInCU: 0x654BD, offset: 0x654BD, size: 0x8, addend: 0x0, symName: __ZNSt3__19allocatorINS_10unique_ptrI4BulbNS_14default_deleteIS2_EEEEE7destroyB8ue170006EPS5_, symObjAddr: 0x3504, symBinAddr: 0x100004484, symSize: 0x28 }
  - { offsetInCU: 0x654F1, offset: 0x654F1, size: 0x8, addend: 0x0, symName: __ZNKSt3__16vectorINS_10unique_ptrI4BulbNS_14default_deleteIS2_EEEENS_9allocatorIS5_EEE31__annotate_contiguous_containerB8ue170006EPKvSA_SA_SA_, symObjAddr: 0x352C, symBinAddr: 0x1000044AC, symSize: 0x20 }
  - { offsetInCU: 0x65547, offset: 0x65547, size: 0x8, addend: 0x0, symName: __ZNKSt3__16vectorINS_10unique_ptrI4BulbNS_14default_deleteIS2_EEEENS_9allocatorIS5_EEE4dataB8ue170006Ev, symObjAddr: 0x354C, symBinAddr: 0x1000044CC, symSize: 0x28 }
  - { offsetInCU: 0x6556D, offset: 0x6556D, size: 0x8, addend: 0x0, symName: __ZNKSt3__16vectorINS_10unique_ptrI4BulbNS_14default_deleteIS2_EEEENS_9allocatorIS5_EEE4sizeB8ue170006Ev, symObjAddr: 0x3574, symBinAddr: 0x1000044F4, symSize: 0x28 }
  - { offsetInCU: 0x65593, offset: 0x65593, size: 0x8, addend: 0x0, symName: __ZNSt3__19allocatorINS_10unique_ptrI4BulbNS_14default_deleteIS2_EEEEE10deallocateB8ue170006EPS5_m, symObjAddr: 0x359C, symBinAddr: 0x10000451C, symSize: 0x40 }
  - { offsetInCU: 0x655D5, offset: 0x655D5, size: 0x8, addend: 0x0, symName: __ZNSt3__117__compressed_pairIPNS_10unique_ptrI4BulbNS_14default_deleteIS2_EEEENS_9allocatorIS5_EEE6secondB8ue170006Ev, symObjAddr: 0x35DC, symBinAddr: 0x10000455C, symSize: 0x24 }
  - { offsetInCU: 0x655FB, offset: 0x655FB, size: 0x8, addend: 0x0, symName: __ZNSt3__122__compressed_pair_elemINS_9allocatorINS_10unique_ptrI4BulbNS_14default_deleteIS3_EEEEEELi1ELb1EE5__getB8ue170006Ev, symObjAddr: 0x3600, symBinAddr: 0x100004580, symSize: 0x14 }
  - { offsetInCU: 0x65621, offset: 0x65621, size: 0x8, addend: 0x0, symName: __ZNKSt3__16vectorINS_10unique_ptrI4BulbNS_14default_deleteIS2_EEEENS_9allocatorIS5_EEE9__end_capB8ue170006Ev, symObjAddr: 0x3614, symBinAddr: 0x100004594, symSize: 0x28 }
  - { offsetInCU: 0x65647, offset: 0x65647, size: 0x8, addend: 0x0, symName: __ZNKSt3__117__compressed_pairIPNS_10unique_ptrI4BulbNS_14default_deleteIS2_EEEENS_9allocatorIS5_EEE5firstB8ue170006Ev, symObjAddr: 0x363C, symBinAddr: 0x1000045BC, symSize: 0x24 }
  - { offsetInCU: 0x6566D, offset: 0x6566D, size: 0x8, addend: 0x0, symName: __ZNKSt3__122__compressed_pair_elemIPNS_10unique_ptrI4BulbNS_14default_deleteIS2_EEEELi0ELb0EE5__getB8ue170006Ev, symObjAddr: 0x3660, symBinAddr: 0x1000045E0, symSize: 0x14 }
  - { offsetInCU: 0x65693, offset: 0x65693, size: 0x8, addend: 0x0, symName: __ZN7AndGateC1Ev, symObjAddr: 0x3674, symBinAddr: 0x1000045F4, symSize: 0x2C }
  - { offsetInCU: 0x656BD, offset: 0x656BD, size: 0x8, addend: 0x0, symName: __ZNSt3__110unique_ptrI7AndGateNS_14default_deleteIS1_EEEC1B8ue170006ILb1EvEEPS1_, symObjAddr: 0x36A0, symBinAddr: 0x100004620, symSize: 0x34 }
  - { offsetInCU: 0x65700, offset: 0x65700, size: 0x8, addend: 0x0, symName: __ZN7AndGateC2Ev, symObjAddr: 0x36D4, symBinAddr: 0x100004654, symSize: 0x110 }
  - { offsetInCU: 0x6572A, offset: 0x6572A, size: 0x8, addend: 0x0, symName: __ZN9ComponentC2ENS_8GateTypeE, symObjAddr: 0x37E4, symBinAddr: 0x100004764, symSize: 0x84 }
  - { offsetInCU: 0x65762, offset: 0x65762, size: 0x8, addend: 0x0, symName: __ZN2sf4RectIiEC1Ev, symObjAddr: 0x3868, symBinAddr: 0x1000047E8, symSize: 0x2C }
  - { offsetInCU: 0x6578E, offset: 0x6578E, size: 0x8, addend: 0x0, symName: __ZN9ComponentD2Ev, symObjAddr: 0x38BC, symBinAddr: 0x10000483C, symSize: 0x4C }
  - { offsetInCU: 0x657B8, offset: 0x657B8, size: 0x8, addend: 0x0, symName: __ZN7AndGateD1Ev, symObjAddr: 0x3908, symBinAddr: 0x100004888, symSize: 0x2C }
  - { offsetInCU: 0x657E4, offset: 0x657E4, size: 0x8, addend: 0x0, symName: __ZN7AndGateD0Ev, symObjAddr: 0x3934, symBinAddr: 0x1000048B4, symSize: 0x30 }
  - { offsetInCU: 0x65810, offset: 0x65810, size: 0x8, addend: 0x0, symName: __ZNK7AndGate9IsClickedEN2sf7Vector2IiEE, symObjAddr: 0x3964, symBinAddr: 0x1000048E4, symSize: 0x6C }
  - { offsetInCU: 0x65852, offset: 0x65852, size: 0x8, addend: 0x0, symName: __ZN2sf6SpriteD1Ev, symObjAddr: 0x39D0, symBinAddr: 0x100004950, symSize: 0x2C }
  - { offsetInCU: 0x6587E, offset: 0x6587E, size: 0x8, addend: 0x0, symName: __ZN9ComponentD1Ev, symObjAddr: 0x39FC, symBinAddr: 0x10000497C, symSize: 0x14 }
  - { offsetInCU: 0x658A8, offset: 0x658A8, size: 0x8, addend: 0x0, symName: __ZN9ComponentD0Ev, symObjAddr: 0x3A10, symBinAddr: 0x100004990, symSize: 0xC }
  - { offsetInCU: 0x658D2, offset: 0x658D2, size: 0x8, addend: 0x0, symName: __ZN2sf6SpriteD2Ev, symObjAddr: 0x3A1C, symBinAddr: 0x10000499C, symSize: 0x38 }
  - { offsetInCU: 0x658FE, offset: 0x658FE, size: 0x8, addend: 0x0, symName: __ZThn8_N2sf6SpriteD1Ev, symObjAddr: 0x3A54, symBinAddr: 0x1000049D4, symSize: 0x1C }
  - { offsetInCU: 0x65914, offset: 0x65914, size: 0x8, addend: 0x0, symName: __ZN2sf4RectIiEC2Ev, symObjAddr: 0x3A70, symBinAddr: 0x1000049F0, symSize: 0x24 }
  - { offsetInCU: 0x65957, offset: 0x65957, size: 0x8, addend: 0x0, symName: __ZN6spdlog6logger4infoIA35_cEEvRKT_, symObjAddr: 0x3AAC, symBinAddr: 0x100004A2C, symSize: 0x30 }
  - { offsetInCU: 0x65994, offset: 0x65994, size: 0x8, addend: 0x0, symName: __ZN6spdlog7details8registry15get_default_rawEv, symObjAddr: 0x3B94, symBinAddr: 0x100004B14, symSize: 0x28 }
  - { offsetInCU: 0x659BC, offset: 0x659BC, size: 0x8, addend: 0x0, symName: __ZN6spdlog7details8registryC1Ev, symObjAddr: 0x3BBC, symBinAddr: 0x100004B3C, symSize: 0x2C }
  - { offsetInCU: 0x659E8, offset: 0x659E8, size: 0x8, addend: 0x0, symName: __ZN6spdlog7details8registryD1Ev, symObjAddr: 0x3BE8, symBinAddr: 0x100004B68, symSize: 0x2C }
  - { offsetInCU: 0x65A14, offset: 0x65A14, size: 0x8, addend: 0x0, symName: __ZN6spdlog7details8registryC2Ev, symObjAddr: 0x3C14, symBinAddr: 0x100004B94, symSize: 0x2F8 }
  - { offsetInCU: 0x65A65, offset: 0x65A65, size: 0x8, addend: 0x0, symName: __ZNSt3__15mutexC1B8ue170006Ev, symObjAddr: 0x3F0C, symBinAddr: 0x100004E8C, symSize: 0x2C }
  - { offsetInCU: 0x65A8F, offset: 0x65A8F, size: 0x8, addend: 0x0, symName: __ZNSt3__113unordered_mapINS_12basic_stringIcNS_11char_traitsIcEENS_9allocatorIcEEEENS_10shared_ptrIN6spdlog6loggerEEENS_4hashIS6_EENS_8equal_toIS6_EENS4_INS_4pairIKS6_SA_EEEEEC1B8ue170006Ev, symObjAddr: 0x3F38, symBinAddr: 0x100004EB8, symSize: 0x2C }
  - { offsetInCU: 0x65AB9, offset: 0x65AB9, size: 0x8, addend: 0x0, symName: __ZNSt3__113unordered_mapINS_12basic_stringIcNS_11char_traitsIcEENS_9allocatorIcEEEEN6spdlog5level10level_enumENS_4hashIS6_EENS_8equal_toIS6_EENS4_INS_4pairIKS6_S9_EEEEEC1B8ue170006Ev, symObjAddr: 0x3F64, symBinAddr: 0x100004EE4, symSize: 0x2C }
  - { offsetInCU: 0x65AE3, offset: 0x65AE3, size: 0x8, addend: 0x0, symName: __ZN6spdlog17pattern_formatterC1ENS_17pattern_time_typeENSt3__112basic_stringIcNS2_11char_traitsIcEENS2_9allocatorIcEEEE, symObjAddr: 0x3F90, symBinAddr: 0x100004F10, symSize: 0x3C }
  - { offsetInCU: 0x65B2F, offset: 0x65B2F, size: 0x8, addend: 0x0, symName: __ZNSt3__110unique_ptrIN6spdlog9formatterENS_14default_deleteIS2_EEEC1B8ue170006ILb1EvEEPS2_, symObjAddr: 0x3FCC, symBinAddr: 0x100004F4C, symSize: 0x34 }
  - { offsetInCU: 0x65B72, offset: 0x65B72, size: 0x8, addend: 0x0, symName: __ZNSt3__18functionIFvRKNS_12basic_stringIcNS_11char_traitsIcEENS_9allocatorIcEEEEEEC1B8ue170006Ev, symObjAddr: 0x4000, symBinAddr: 0x100004F80, symSize: 0x2C }
  - { offsetInCU: 0x65B9C, offset: 0x65B9C, size: 0x8, addend: 0x0, symName: __ZNSt3__110shared_ptrIN6spdlog7details11thread_poolEEC1B8ue170006Ev, symObjAddr: 0x402C, symBinAddr: 0x100004FAC, symSize: 0x2C }
  - { offsetInCU: 0x65BC6, offset: 0x65BC6, size: 0x8, addend: 0x0, symName: __ZNSt3__110unique_ptrIN6spdlog7details15periodic_workerENS_14default_deleteIS3_EEEC1B8ue170006ILb1EvEEv, symObjAddr: 0x4058, symBinAddr: 0x100004FD8, symSize: 0x2C }
  - { offsetInCU: 0x65BFB, offset: 0x65BFB, size: 0x8, addend: 0x0, symName: __ZNSt3__110shared_ptrIN6spdlog6loggerEEC1B8ue170006Ev, symObjAddr: 0x4084, symBinAddr: 0x100005004, symSize: 0x2C }
  - { offsetInCU: 0x65C25, offset: 0x65C25, size: 0x8, addend: 0x0, symName: __ZNSt3__110shared_ptrIN6spdlog6loggerEEaSB8ue170006EOS3_, symObjAddr: 0x4130, symBinAddr: 0x1000050B0, symSize: 0x50 }
  - { offsetInCU: 0x65C5A, offset: 0x65C5A, size: 0x8, addend: 0x0, symName: __ZNSt3__110shared_ptrIN6spdlog6loggerEED1B8ue170006Ev, symObjAddr: 0x4180, symBinAddr: 0x100005100, symSize: 0x2C }
  - { offsetInCU: 0x65C84, offset: 0x65C84, size: 0x8, addend: 0x0, symName: __ZNSt3__113unordered_mapINS_12basic_stringIcNS_11char_traitsIcEENS_9allocatorIcEEEENS_10shared_ptrIN6spdlog6loggerEEENS_4hashIS6_EENS_8equal_toIS6_EENS4_INS_4pairIKS6_SA_EEEEEixEOS6_, symObjAddr: 0x41AC, symBinAddr: 0x10000512C, symSize: 0x80 }
  - { offsetInCU: 0x65CBB, offset: 0x65CBB, size: 0x8, addend: 0x0, symName: __ZNSt3__110shared_ptrIN6spdlog6loggerEEaSB8ue170006ERKS3_, symObjAddr: 0x422C, symBinAddr: 0x1000051AC, symSize: 0x50 }
  - { offsetInCU: 0x65D16, offset: 0x65D16, size: 0x8, addend: 0x0, symName: __ZNSt3__110shared_ptrIN6spdlog5sinks21ansicolor_stdout_sinkINS1_7details13console_mutexEEEED1B8ue170006Ev, symObjAddr: 0x427C, symBinAddr: 0x1000051FC, symSize: 0x2C }
  - { offsetInCU: 0x65D40, offset: 0x65D40, size: 0x8, addend: 0x0, symName: __ZNSt3__110unique_ptrIN6spdlog7details15periodic_workerENS_14default_deleteIS3_EEED1B8ue170006Ev, symObjAddr: 0x42A8, symBinAddr: 0x100005228, symSize: 0x2C }
  - { offsetInCU: 0x65D6A, offset: 0x65D6A, size: 0x8, addend: 0x0, symName: __ZNSt3__110shared_ptrIN6spdlog7details11thread_poolEED1B8ue170006Ev, symObjAddr: 0x42D4, symBinAddr: 0x100005254, symSize: 0x2C }
  - { offsetInCU: 0x65D94, offset: 0x65D94, size: 0x8, addend: 0x0, symName: __ZNSt3__18functionIFvRKNS_12basic_stringIcNS_11char_traitsIcEENS_9allocatorIcEEEEEED1Ev, symObjAddr: 0x4300, symBinAddr: 0x100005280, symSize: 0x2C }
  - { offsetInCU: 0x65DC0, offset: 0x65DC0, size: 0x8, addend: 0x0, symName: __ZNSt3__110unique_ptrIN6spdlog9formatterENS_14default_deleteIS2_EEED1B8ue170006Ev, symObjAddr: 0x432C, symBinAddr: 0x1000052AC, symSize: 0x2C }
  - { offsetInCU: 0x65DEA, offset: 0x65DEA, size: 0x8, addend: 0x0, symName: __ZNSt3__113unordered_mapINS_12basic_stringIcNS_11char_traitsIcEENS_9allocatorIcEEEEN6spdlog5level10level_enumENS_4hashIS6_EENS_8equal_toIS6_EENS4_INS_4pairIKS6_S9_EEEEED1B8ue170006Ev, symObjAddr: 0x4358, symBinAddr: 0x1000052D8, symSize: 0x2C }
  - { offsetInCU: 0x65E14, offset: 0x65E14, size: 0x8, addend: 0x0, symName: __ZNSt3__113unordered_mapINS_12basic_stringIcNS_11char_traitsIcEENS_9allocatorIcEEEENS_10shared_ptrIN6spdlog6loggerEEENS_4hashIS6_EENS_8equal_toIS6_EENS4_INS_4pairIKS6_SA_EEEEED1B8ue170006Ev, symObjAddr: 0x4384, symBinAddr: 0x100005304, symSize: 0x2C }
  - { offsetInCU: 0x65E3E, offset: 0x65E3E, size: 0x8, addend: 0x0, symName: __ZNSt3__15mutexC2B8ue170006Ev, symObjAddr: 0x43B0, symBinAddr: 0x100005330, symSize: 0x44 }
  - { offsetInCU: 0x65E68, offset: 0x65E68, size: 0x8, addend: 0x0, symName: __ZNSt3__113unordered_mapINS_12basic_stringIcNS_11char_traitsIcEENS_9allocatorIcEEEENS_10shared_ptrIN6spdlog6loggerEEENS_4hashIS6_EENS_8equal_toIS6_EENS4_INS_4pairIKS6_SA_EEEEEC2B8ue170006Ev, symObjAddr: 0x43F4, symBinAddr: 0x100005374, symSize: 0x2C }
  - { offsetInCU: 0x65E92, offset: 0x65E92, size: 0x8, addend: 0x0, symName: __ZNSt3__112__hash_tableINS_17__hash_value_typeINS_12basic_stringIcNS_11char_traitsIcEENS_9allocatorIcEEEENS_10shared_ptrIN6spdlog6loggerEEEEENS_22__unordered_map_hasherIS7_SC_NS_4hashIS7_EENS_8equal_toIS7_EELb1EEENS_21__unordered_map_equalIS7_SC_SH_SF_Lb1EEENS5_ISC_EEEC1Ev, symObjAddr: 0x4420, symBinAddr: 0x1000053A0, symSize: 0x2C }
  - { offsetInCU: 0x65EBE, offset: 0x65EBE, size: 0x8, addend: 0x0, symName: __ZNSt3__112__hash_tableINS_17__hash_value_typeINS_12basic_stringIcNS_11char_traitsIcEENS_9allocatorIcEEEENS_10shared_ptrIN6spdlog6loggerEEEEENS_22__unordered_map_hasherIS7_SC_NS_4hashIS7_EENS_8equal_toIS7_EELb1EEENS_21__unordered_map_equalIS7_SC_SH_SF_Lb1EEENS5_ISC_EEEC2Ev, symObjAddr: 0x444C, symBinAddr: 0x1000053CC, symSize: 0x7C }
  - { offsetInCU: 0x65EEA, offset: 0x65EEA, size: 0x8, addend: 0x0, symName: __ZNSt3__110unique_ptrIA_PNS_16__hash_node_baseIPNS_11__hash_nodeINS_17__hash_value_typeINS_12basic_stringIcNS_11char_traitsIcEENS_9allocatorIcEEEENS_10shared_ptrIN6spdlog6loggerEEEEEPvEEEENS_25__bucket_list_deallocatorINS7_ISJ_EEEEEC1B8ue170006ILb1EvEEv, symObjAddr: 0x44C8, symBinAddr: 0x100005448, symSize: 0x2C }
  - { offsetInCU: 0x65F1F, offset: 0x65F1F, size: 0x8, addend: 0x0, symName: __ZNSt3__117__compressed_pairINS_16__hash_node_baseIPNS_11__hash_nodeINS_17__hash_value_typeINS_12basic_stringIcNS_11char_traitsIcEENS_9allocatorIcEEEENS_10shared_ptrIN6spdlog6loggerEEEEEPvEEEENS7_ISG_EEEC1B8ue170006ILb1EvEEv, symObjAddr: 0x44F4, symBinAddr: 0x100005474, symSize: 0x2C }
  - { offsetInCU: 0x65F5A, offset: 0x65F5A, size: 0x8, addend: 0x0, symName: __ZNSt3__117__compressed_pairImNS_22__unordered_map_hasherINS_12basic_stringIcNS_11char_traitsIcEENS_9allocatorIcEEEENS_17__hash_value_typeIS7_NS_10shared_ptrIN6spdlog6loggerEEEEENS_4hashIS7_EENS_8equal_toIS7_EELb1EEEEC1B8ue170006IiNS_18__default_init_tagEEEOT_OT0_, symObjAddr: 0x4520, symBinAddr: 0x1000054A0, symSize: 0x3C }
  - { offsetInCU: 0x65FB8, offset: 0x65FB8, size: 0x8, addend: 0x0, symName: __ZNSt3__117__compressed_pairIfNS_21__unordered_map_equalINS_12basic_stringIcNS_11char_traitsIcEENS_9allocatorIcEEEENS_17__hash_value_typeIS7_NS_10shared_ptrIN6spdlog6loggerEEEEENS_8equal_toIS7_EENS_4hashIS7_EELb1EEEEC1B8ue170006IfNS_18__default_init_tagEEEOT_OT0_, symObjAddr: 0x455C, symBinAddr: 0x1000054DC, symSize: 0x3C }
  - { offsetInCU: 0x66010, offset: 0x66010, size: 0x8, addend: 0x0, symName: __ZNSt3__110unique_ptrIA_PNS_16__hash_node_baseIPNS_11__hash_nodeINS_17__hash_value_typeINS_12basic_stringIcNS_11char_traitsIcEENS_9allocatorIcEEEENS_10shared_ptrIN6spdlog6loggerEEEEEPvEEEENS_25__bucket_list_deallocatorINS7_ISJ_EEEEEC2B8ue170006ILb1EvEEv, symObjAddr: 0x4598, symBinAddr: 0x100005518, symSize: 0x3C }
  - { offsetInCU: 0x6604B, offset: 0x6604B, size: 0x8, addend: 0x0, symName: __ZNSt3__117__compressed_pairIPPNS_16__hash_node_baseIPNS_11__hash_nodeINS_17__hash_value_typeINS_12basic_stringIcNS_11char_traitsIcEENS_9allocatorIcEEEENS_10shared_ptrIN6spdlog6loggerEEEEEPvEEEENS_25__bucket_list_deallocatorINS7_ISJ_EEEEEC1B8ue170006INS_16__value_init_tagESQ_EEOT_OT0_, symObjAddr: 0x45D4, symBinAddr: 0x100005554, symSize: 0x3C }
  - { offsetInCU: 0x660A3, offset: 0x660A3, size: 0x8, addend: 0x0, symName: __ZNSt3__117__compressed_pairIPPNS_16__hash_node_baseIPNS_11__hash_nodeINS_17__hash_value_typeINS_12basic_stringIcNS_11char_traitsIcEENS_9allocatorIcEEEENS_10shared_ptrIN6spdlog6loggerEEEEEPvEEEENS_25__bucket_list_deallocatorINS7_ISJ_EEEEEC2B8ue170006INS_16__value_init_tagESQ_EEOT_OT0_, symObjAddr: 0x4610, symBinAddr: 0x100005590, symSize: 0x40 }
  - { offsetInCU: 0x660FB, offset: 0x660FB, size: 0x8, addend: 0x0, symName: __ZNSt3__122__compressed_pair_elemIPPNS_16__hash_node_baseIPNS_11__hash_nodeINS_17__hash_value_typeINS_12basic_stringIcNS_11char_traitsIcEENS_9allocatorIcEEEENS_10shared_ptrIN6spdlog6loggerEEEEEPvEEEELi0ELb0EEC2B8ue170006ENS_16__value_init_tagE, symObjAddr: 0x4650, symBinAddr: 0x1000055D0, symSize: 0x18 }
  - { offsetInCU: 0x66130, offset: 0x66130, size: 0x8, addend: 0x0, symName: __ZNSt3__122__compressed_pair_elemINS_25__bucket_list_deallocatorINS_9allocatorIPNS_16__hash_node_baseIPNS_11__hash_nodeINS_17__hash_value_typeINS_12basic_stringIcNS_11char_traitsIcEENS2_IcEEEENS_10shared_ptrIN6spdlog6loggerEEEEEPvEEEEEEEELi1ELb0EEC2B8ue170006ENS_16__value_init_tagE, symObjAddr: 0x4668, symBinAddr: 0x1000055E8, symSize: 0x2C }
  - { offsetInCU: 0x66165, offset: 0x66165, size: 0x8, addend: 0x0, symName: __ZNSt3__125__bucket_list_deallocatorINS_9allocatorIPNS_16__hash_node_baseIPNS_11__hash_nodeINS_17__hash_value_typeINS_12basic_stringIcNS_11char_traitsIcEENS1_IcEEEENS_10shared_ptrIN6spdlog6loggerEEEEEPvEEEEEEEC1B8ue170006Ev, symObjAddr: 0x4694, symBinAddr: 0x100005614, symSize: 0x2C }
  - { offsetInCU: 0x6618F, offset: 0x6618F, size: 0x8, addend: 0x0, symName: __ZNSt3__125__bucket_list_deallocatorINS_9allocatorIPNS_16__hash_node_baseIPNS_11__hash_nodeINS_17__hash_value_typeINS_12basic_stringIcNS_11char_traitsIcEENS1_IcEEEENS_10shared_ptrIN6spdlog6loggerEEEEEPvEEEEEEEC2B8ue170006Ev, symObjAddr: 0x46C0, symBinAddr: 0x100005640, symSize: 0x40 }
  - { offsetInCU: 0x661B9, offset: 0x661B9, size: 0x8, addend: 0x0, symName: __ZNSt3__117__compressed_pairImNS_9allocatorIPNS_16__hash_node_baseIPNS_11__hash_nodeINS_17__hash_value_typeINS_12basic_stringIcNS_11char_traitsIcEENS1_IcEEEENS_10shared_ptrIN6spdlog6loggerEEEEEPvEEEEEEEC1B8ue170006IiNS_18__default_init_tagEEEOT_OT0_, symObjAddr: 0x4700, symBinAddr: 0x100005680, symSize: 0x3C }
  - { offsetInCU: 0x66211, offset: 0x66211, size: 0x8, addend: 0x0, symName: __ZNSt3__117__compressed_pairImNS_9allocatorIPNS_16__hash_node_baseIPNS_11__hash_nodeINS_17__hash_value_typeINS_12basic_stringIcNS_11char_traitsIcEENS1_IcEEEENS_10shared_ptrIN6spdlog6loggerEEEEEPvEEEEEEEC2B8ue170006IiNS_18__default_init_tagEEEOT_OT0_, symObjAddr: 0x473C, symBinAddr: 0x1000056BC, symSize: 0x40 }
  - { offsetInCU: 0x66269, offset: 0x66269, size: 0x8, addend: 0x0, symName: __ZNSt3__122__compressed_pair_elemImLi0ELb0EEC2B8ue170006IivEEOT_, symObjAddr: 0x477C, symBinAddr: 0x1000056FC, symSize: 0x24 }
  - { offsetInCU: 0x662AB, offset: 0x662AB, size: 0x8, addend: 0x0, symName: __ZNSt3__122__compressed_pair_elemINS_9allocatorIPNS_16__hash_node_baseIPNS_11__hash_nodeINS_17__hash_value_typeINS_12basic_stringIcNS_11char_traitsIcEENS1_IcEEEENS_10shared_ptrIN6spdlog6loggerEEEEEPvEEEEEELi1ELb1EEC2B8ue170006ENS_18__default_init_tagE, symObjAddr: 0x47A0, symBinAddr: 0x100005720, symSize: 0x2C }
  - { offsetInCU: 0x662E0, offset: 0x662E0, size: 0x8, addend: 0x0, symName: __ZNSt3__19allocatorIPNS_16__hash_node_baseIPNS_11__hash_nodeINS_17__hash_value_typeINS_12basic_stringIcNS_11char_traitsIcEENS0_IcEEEENS_10shared_ptrIN6spdlog6loggerEEEEEPvEEEEEC2B8ue170006Ev, symObjAddr: 0x47CC, symBinAddr: 0x10000574C, symSize: 0x2C }
  - { offsetInCU: 0x6630A, offset: 0x6630A, size: 0x8, addend: 0x0, symName: __ZNSt3__116__non_trivial_ifILb1ENS_9allocatorIPNS_16__hash_node_baseIPNS_11__hash_nodeINS_17__hash_value_typeINS_12basic_stringIcNS_11char_traitsIcEENS1_IcEEEENS_10shared_ptrIN6spdlog6loggerEEEEEPvEEEEEEEC2B8ue170006Ev, symObjAddr: 0x47F8, symBinAddr: 0x100005778, symSize: 0x14 }
  - { offsetInCU: 0x66334, offset: 0x66334, size: 0x8, addend: 0x0, symName: __ZNSt3__117__compressed_pairINS_16__hash_node_baseIPNS_11__hash_nodeINS_17__hash_value_typeINS_12basic_stringIcNS_11char_traitsIcEENS_9allocatorIcEEEENS_10shared_ptrIN6spdlog6loggerEEEEEPvEEEENS7_ISG_EEEC2B8ue170006ILb1EvEEv, symObjAddr: 0x480C, symBinAddr: 0x10000578C, symSize: 0x34 }
  - { offsetInCU: 0x66369, offset: 0x66369, size: 0x8, addend: 0x0, symName: __ZNSt3__122__compressed_pair_elemINS_16__hash_node_baseIPNS_11__hash_nodeINS_17__hash_value_typeINS_12basic_stringIcNS_11char_traitsIcEENS_9allocatorIcEEEENS_10shared_ptrIN6spdlog6loggerEEEEEPvEEEELi0ELb0EEC2B8ue170006ENS_16__value_init_tagE, symObjAddr: 0x4840, symBinAddr: 0x1000057C0, symSize: 0x2C }
  - { offsetInCU: 0x6639E, offset: 0x6639E, size: 0x8, addend: 0x0, symName: __ZNSt3__122__compressed_pair_elemINS_9allocatorINS_11__hash_nodeINS_17__hash_value_typeINS_12basic_stringIcNS_11char_traitsIcEENS1_IcEEEENS_10shared_ptrIN6spdlog6loggerEEEEEPvEEEELi1ELb1EEC2B8ue170006ENS_16__value_init_tagE, symObjAddr: 0x486C, symBinAddr: 0x1000057EC, symSize: 0x2C }
  - { offsetInCU: 0x663D3, offset: 0x663D3, size: 0x8, addend: 0x0, symName: __ZNSt3__116__hash_node_baseIPNS_11__hash_nodeINS_17__hash_value_typeINS_12basic_stringIcNS_11char_traitsIcEENS_9allocatorIcEEEENS_10shared_ptrIN6spdlog6loggerEEEEEPvEEEC1B8ue170006Ev, symObjAddr: 0x4898, symBinAddr: 0x100005818, symSize: 0x2C }
  - { offsetInCU: 0x663FD, offset: 0x663FD, size: 0x8, addend: 0x0, symName: __ZNSt3__116__hash_node_baseIPNS_11__hash_nodeINS_17__hash_value_typeINS_12basic_stringIcNS_11char_traitsIcEENS_9allocatorIcEEEENS_10shared_ptrIN6spdlog6loggerEEEEEPvEEEC2B8ue170006Ev, symObjAddr: 0x48C4, symBinAddr: 0x100005844, symSize: 0x18 }
  - { offsetInCU: 0x66427, offset: 0x66427, size: 0x8, addend: 0x0, symName: __ZNSt3__19allocatorINS_11__hash_nodeINS_17__hash_value_typeINS_12basic_stringIcNS_11char_traitsIcEENS0_IcEEEENS_10shared_ptrIN6spdlog6loggerEEEEEPvEEEC2B8ue170006Ev, symObjAddr: 0x48DC, symBinAddr: 0x10000585C, symSize: 0x2C }
  - { offsetInCU: 0x66451, offset: 0x66451, size: 0x8, addend: 0x0, symName: __ZNSt3__116__non_trivial_ifILb1ENS_9allocatorINS_11__hash_nodeINS_17__hash_value_typeINS_12basic_stringIcNS_11char_traitsIcEENS1_IcEEEENS_10shared_ptrIN6spdlog6loggerEEEEEPvEEEEEC2B8ue170006Ev, symObjAddr: 0x4908, symBinAddr: 0x100005888, symSize: 0x14 }
  - { offsetInCU: 0x6647B, offset: 0x6647B, size: 0x8, addend: 0x0, symName: __ZNSt3__117__compressed_pairImNS_22__unordered_map_hasherINS_12basic_stringIcNS_11char_traitsIcEENS_9allocatorIcEEEENS_17__hash_value_typeIS7_NS_10shared_ptrIN6spdlog6loggerEEEEENS_4hashIS7_EENS_8equal_toIS7_EELb1EEEEC2B8ue170006IiNS_18__default_init_tagEEEOT_OT0_, symObjAddr: 0x491C, symBinAddr: 0x10000589C, symSize: 0x40 }
  - { offsetInCU: 0x664D3, offset: 0x664D3, size: 0x8, addend: 0x0, symName: __ZNSt3__122__compressed_pair_elemINS_22__unordered_map_hasherINS_12basic_stringIcNS_11char_traitsIcEENS_9allocatorIcEEEENS_17__hash_value_typeIS7_NS_10shared_ptrIN6spdlog6loggerEEEEENS_4hashIS7_EENS_8equal_toIS7_EELb1EEELi1ELb1EEC2B8ue170006ENS_18__default_init_tagE, symObjAddr: 0x495C, symBinAddr: 0x1000058DC, symSize: 0x2C }
  - { offsetInCU: 0x66508, offset: 0x66508, size: 0x8, addend: 0x0, symName: __ZNSt3__122__unordered_map_hasherINS_12basic_stringIcNS_11char_traitsIcEENS_9allocatorIcEEEENS_17__hash_value_typeIS6_NS_10shared_ptrIN6spdlog6loggerEEEEENS_4hashIS6_EENS_8equal_toIS6_EELb1EEC2B8ue170006Ev, symObjAddr: 0x4988, symBinAddr: 0x100005908, symSize: 0x14 }
  - { offsetInCU: 0x66532, offset: 0x66532, size: 0x8, addend: 0x0, symName: __ZNSt3__117__compressed_pairIfNS_21__unordered_map_equalINS_12basic_stringIcNS_11char_traitsIcEENS_9allocatorIcEEEENS_17__hash_value_typeIS7_NS_10shared_ptrIN6spdlog6loggerEEEEENS_8equal_toIS7_EENS_4hashIS7_EELb1EEEEC2B8ue170006IfNS_18__default_init_tagEEEOT_OT0_, symObjAddr: 0x499C, symBinAddr: 0x10000591C, symSize: 0x40 }
  - { offsetInCU: 0x6658A, offset: 0x6658A, size: 0x8, addend: 0x0, symName: __ZNSt3__122__compressed_pair_elemIfLi0ELb0EEC2B8ue170006IfvEEOT_, symObjAddr: 0x49DC, symBinAddr: 0x10000595C, symSize: 0x24 }
  - { offsetInCU: 0x665CC, offset: 0x665CC, size: 0x8, addend: 0x0, symName: __ZNSt3__122__compressed_pair_elemINS_21__unordered_map_equalINS_12basic_stringIcNS_11char_traitsIcEENS_9allocatorIcEEEENS_17__hash_value_typeIS7_NS_10shared_ptrIN6spdlog6loggerEEEEENS_8equal_toIS7_EENS_4hashIS7_EELb1EEELi1ELb1EEC2B8ue170006ENS_18__default_init_tagE, symObjAddr: 0x4A00, symBinAddr: 0x100005980, symSize: 0x2C }
  - { offsetInCU: 0x66601, offset: 0x66601, size: 0x8, addend: 0x0, symName: __ZNSt3__121__unordered_map_equalINS_12basic_stringIcNS_11char_traitsIcEENS_9allocatorIcEEEENS_17__hash_value_typeIS6_NS_10shared_ptrIN6spdlog6loggerEEEEENS_8equal_toIS6_EENS_4hashIS6_EELb1EEC2B8ue170006Ev, symObjAddr: 0x4A2C, symBinAddr: 0x1000059AC, symSize: 0x14 }
  - { offsetInCU: 0x6662B, offset: 0x6662B, size: 0x8, addend: 0x0, symName: __ZNSt3__113unordered_mapINS_12basic_stringIcNS_11char_traitsIcEENS_9allocatorIcEEEEN6spdlog5level10level_enumENS_4hashIS6_EENS_8equal_toIS6_EENS4_INS_4pairIKS6_S9_EEEEEC2B8ue170006Ev, symObjAddr: 0x4A40, symBinAddr: 0x1000059C0, symSize: 0x2C }
  - { offsetInCU: 0x66655, offset: 0x66655, size: 0x8, addend: 0x0, symName: __ZNSt3__112__hash_tableINS_17__hash_value_typeINS_12basic_stringIcNS_11char_traitsIcEENS_9allocatorIcEEEEN6spdlog5level10level_enumEEENS_22__unordered_map_hasherIS7_SB_NS_4hashIS7_EENS_8equal_toIS7_EELb1EEENS_21__unordered_map_equalIS7_SB_SG_SE_Lb1EEENS5_ISB_EEEC1Ev, symObjAddr: 0x4A6C, symBinAddr: 0x1000059EC, symSize: 0x2C }
  - { offsetInCU: 0x66681, offset: 0x66681, size: 0x8, addend: 0x0, symName: __ZNSt3__112__hash_tableINS_17__hash_value_typeINS_12basic_stringIcNS_11char_traitsIcEENS_9allocatorIcEEEEN6spdlog5level10level_enumEEENS_22__unordered_map_hasherIS7_SB_NS_4hashIS7_EENS_8equal_toIS7_EELb1EEENS_21__unordered_map_equalIS7_SB_SG_SE_Lb1EEENS5_ISB_EEEC2Ev, symObjAddr: 0x4A98, symBinAddr: 0x100005A18, symSize: 0x7C }
  - { offsetInCU: 0x666AD, offset: 0x666AD, size: 0x8, addend: 0x0, symName: __ZNSt3__110unique_ptrIA_PNS_16__hash_node_baseIPNS_11__hash_nodeINS_17__hash_value_typeINS_12basic_stringIcNS_11char_traitsIcEENS_9allocatorIcEEEEN6spdlog5level10level_enumEEEPvEEEENS_25__bucket_list_deallocatorINS7_ISI_EEEEEC1B8ue170006ILb1EvEEv, symObjAddr: 0x4B14, symBinAddr: 0x100005A94, symSize: 0x2C }
  - { offsetInCU: 0x666E2, offset: 0x666E2, size: 0x8, addend: 0x0, symName: __ZNSt3__117__compressed_pairINS_16__hash_node_baseIPNS_11__hash_nodeINS_17__hash_value_typeINS_12basic_stringIcNS_11char_traitsIcEENS_9allocatorIcEEEEN6spdlog5level10level_enumEEEPvEEEENS7_ISF_EEEC1B8ue170006ILb1EvEEv, symObjAddr: 0x4B40, symBinAddr: 0x100005AC0, symSize: 0x2C }
  - { offsetInCU: 0x66717, offset: 0x66717, size: 0x8, addend: 0x0, symName: __ZNSt3__117__compressed_pairImNS_22__unordered_map_hasherINS_12basic_stringIcNS_11char_traitsIcEENS_9allocatorIcEEEENS_17__hash_value_typeIS7_N6spdlog5level10level_enumEEENS_4hashIS7_EENS_8equal_toIS7_EELb1EEEEC1B8ue170006IiNS_18__default_init_tagEEEOT_OT0_, symObjAddr: 0x4B6C, symBinAddr: 0x100005AEC, symSize: 0x3C }
  - { offsetInCU: 0x6676F, offset: 0x6676F, size: 0x8, addend: 0x0, symName: __ZNSt3__117__compressed_pairIfNS_21__unordered_map_equalINS_12basic_stringIcNS_11char_traitsIcEENS_9allocatorIcEEEENS_17__hash_value_typeIS7_N6spdlog5level10level_enumEEENS_8equal_toIS7_EENS_4hashIS7_EELb1EEEEC1B8ue170006IfNS_18__default_init_tagEEEOT_OT0_, symObjAddr: 0x4BA8, symBinAddr: 0x100005B28, symSize: 0x3C }
  - { offsetInCU: 0x667C7, offset: 0x667C7, size: 0x8, addend: 0x0, symName: __ZNSt3__110unique_ptrIA_PNS_16__hash_node_baseIPNS_11__hash_nodeINS_17__hash_value_typeINS_12basic_stringIcNS_11char_traitsIcEENS_9allocatorIcEEEEN6spdlog5level10level_enumEEEPvEEEENS_25__bucket_list_deallocatorINS7_ISI_EEEEEC2B8ue170006ILb1EvEEv, symObjAddr: 0x4BE4, symBinAddr: 0x100005B64, symSize: 0x3C }
  - { offsetInCU: 0x667FC, offset: 0x667FC, size: 0x8, addend: 0x0, symName: __ZNSt3__117__compressed_pairIPPNS_16__hash_node_baseIPNS_11__hash_nodeINS_17__hash_value_typeINS_12basic_stringIcNS_11char_traitsIcEENS_9allocatorIcEEEEN6spdlog5level10level_enumEEEPvEEEENS_25__bucket_list_deallocatorINS7_ISI_EEEEEC1B8ue170006INS_16__value_init_tagESP_EEOT_OT0_, symObjAddr: 0x4C20, symBinAddr: 0x100005BA0, symSize: 0x3C }
  - { offsetInCU: 0x66854, offset: 0x66854, size: 0x8, addend: 0x0, symName: __ZNSt3__117__compressed_pairIPPNS_16__hash_node_baseIPNS_11__hash_nodeINS_17__hash_value_typeINS_12basic_stringIcNS_11char_traitsIcEENS_9allocatorIcEEEEN6spdlog5level10level_enumEEEPvEEEENS_25__bucket_list_deallocatorINS7_ISI_EEEEEC2B8ue170006INS_16__value_init_tagESP_EEOT_OT0_, symObjAddr: 0x4C5C, symBinAddr: 0x100005BDC, symSize: 0x40 }
  - { offsetInCU: 0x668AC, offset: 0x668AC, size: 0x8, addend: 0x0, symName: __ZNSt3__122__compressed_pair_elemIPPNS_16__hash_node_baseIPNS_11__hash_nodeINS_17__hash_value_typeINS_12basic_stringIcNS_11char_traitsIcEENS_9allocatorIcEEEEN6spdlog5level10level_enumEEEPvEEEELi0ELb0EEC2B8ue170006ENS_16__value_init_tagE, symObjAddr: 0x4C9C, symBinAddr: 0x100005C1C, symSize: 0x18 }
  - { offsetInCU: 0x668E1, offset: 0x668E1, size: 0x8, addend: 0x0, symName: __ZNSt3__122__compressed_pair_elemINS_25__bucket_list_deallocatorINS_9allocatorIPNS_16__hash_node_baseIPNS_11__hash_nodeINS_17__hash_value_typeINS_12basic_stringIcNS_11char_traitsIcEENS2_IcEEEEN6spdlog5level10level_enumEEEPvEEEEEEEELi1ELb0EEC2B8ue170006ENS_16__value_init_tagE, symObjAddr: 0x4CB4, symBinAddr: 0x100005C34, symSize: 0x2C }
  - { offsetInCU: 0x66916, offset: 0x66916, size: 0x8, addend: 0x0, symName: __ZNSt3__125__bucket_list_deallocatorINS_9allocatorIPNS_16__hash_node_baseIPNS_11__hash_nodeINS_17__hash_value_typeINS_12basic_stringIcNS_11char_traitsIcEENS1_IcEEEEN6spdlog5level10level_enumEEEPvEEEEEEEC1B8ue170006Ev, symObjAddr: 0x4CE0, symBinAddr: 0x100005C60, symSize: 0x2C }
  - { offsetInCU: 0x66940, offset: 0x66940, size: 0x8, addend: 0x0, symName: __ZNSt3__125__bucket_list_deallocatorINS_9allocatorIPNS_16__hash_node_baseIPNS_11__hash_nodeINS_17__hash_value_typeINS_12basic_stringIcNS_11char_traitsIcEENS1_IcEEEEN6spdlog5level10level_enumEEEPvEEEEEEEC2B8ue170006Ev, symObjAddr: 0x4D0C, symBinAddr: 0x100005C8C, symSize: 0x40 }
  - { offsetInCU: 0x6696A, offset: 0x6696A, size: 0x8, addend: 0x0, symName: __ZNSt3__117__compressed_pairImNS_9allocatorIPNS_16__hash_node_baseIPNS_11__hash_nodeINS_17__hash_value_typeINS_12basic_stringIcNS_11char_traitsIcEENS1_IcEEEEN6spdlog5level10level_enumEEEPvEEEEEEEC1B8ue170006IiNS_18__default_init_tagEEEOT_OT0_, symObjAddr: 0x4D4C, symBinAddr: 0x100005CCC, symSize: 0x3C }
  - { offsetInCU: 0x669C2, offset: 0x669C2, size: 0x8, addend: 0x0, symName: __ZNSt3__117__compressed_pairImNS_9allocatorIPNS_16__hash_node_baseIPNS_11__hash_nodeINS_17__hash_value_typeINS_12basic_stringIcNS_11char_traitsIcEENS1_IcEEEEN6spdlog5level10level_enumEEEPvEEEEEEEC2B8ue170006IiNS_18__default_init_tagEEEOT_OT0_, symObjAddr: 0x4D88, symBinAddr: 0x100005D08, symSize: 0x40 }
  - { offsetInCU: 0x66A1A, offset: 0x66A1A, size: 0x8, addend: 0x0, symName: __ZNSt3__122__compressed_pair_elemINS_9allocatorIPNS_16__hash_node_baseIPNS_11__hash_nodeINS_17__hash_value_typeINS_12basic_stringIcNS_11char_traitsIcEENS1_IcEEEEN6spdlog5level10level_enumEEEPvEEEEEELi1ELb1EEC2B8ue170006ENS_18__default_init_tagE, symObjAddr: 0x4DC8, symBinAddr: 0x100005D48, symSize: 0x2C }
  - { offsetInCU: 0x66A4F, offset: 0x66A4F, size: 0x8, addend: 0x0, symName: __ZNSt3__19allocatorIPNS_16__hash_node_baseIPNS_11__hash_nodeINS_17__hash_value_typeINS_12basic_stringIcNS_11char_traitsIcEENS0_IcEEEEN6spdlog5level10level_enumEEEPvEEEEEC2B8ue170006Ev, symObjAddr: 0x4DF4, symBinAddr: 0x100005D74, symSize: 0x2C }
  - { offsetInCU: 0x66A79, offset: 0x66A79, size: 0x8, addend: 0x0, symName: __ZNSt3__116__non_trivial_ifILb1ENS_9allocatorIPNS_16__hash_node_baseIPNS_11__hash_nodeINS_17__hash_value_typeINS_12basic_stringIcNS_11char_traitsIcEENS1_IcEEEEN6spdlog5level10level_enumEEEPvEEEEEEEC2B8ue170006Ev, symObjAddr: 0x4E20, symBinAddr: 0x100005DA0, symSize: 0x14 }
  - { offsetInCU: 0x66AA3, offset: 0x66AA3, size: 0x8, addend: 0x0, symName: __ZNSt3__117__compressed_pairINS_16__hash_node_baseIPNS_11__hash_nodeINS_17__hash_value_typeINS_12basic_stringIcNS_11char_traitsIcEENS_9allocatorIcEEEEN6spdlog5level10level_enumEEEPvEEEENS7_ISF_EEEC2B8ue170006ILb1EvEEv, symObjAddr: 0x4E34, symBinAddr: 0x100005DB4, symSize: 0x34 }
  - { offsetInCU: 0x66AD8, offset: 0x66AD8, size: 0x8, addend: 0x0, symName: __ZNSt3__122__compressed_pair_elemINS_16__hash_node_baseIPNS_11__hash_nodeINS_17__hash_value_typeINS_12basic_stringIcNS_11char_traitsIcEENS_9allocatorIcEEEEN6spdlog5level10level_enumEEEPvEEEELi0ELb0EEC2B8ue170006ENS_16__value_init_tagE, symObjAddr: 0x4E68, symBinAddr: 0x100005DE8, symSize: 0x2C }
  - { offsetInCU: 0x66B0D, offset: 0x66B0D, size: 0x8, addend: 0x0, symName: __ZNSt3__122__compressed_pair_elemINS_9allocatorINS_11__hash_nodeINS_17__hash_value_typeINS_12basic_stringIcNS_11char_traitsIcEENS1_IcEEEEN6spdlog5level10level_enumEEEPvEEEELi1ELb1EEC2B8ue170006ENS_16__value_init_tagE, symObjAddr: 0x4E94, symBinAddr: 0x100005E14, symSize: 0x2C }
  - { offsetInCU: 0x66B42, offset: 0x66B42, size: 0x8, addend: 0x0, symName: __ZNSt3__116__hash_node_baseIPNS_11__hash_nodeINS_17__hash_value_typeINS_12basic_stringIcNS_11char_traitsIcEENS_9allocatorIcEEEEN6spdlog5level10level_enumEEEPvEEEC1B8ue170006Ev, symObjAddr: 0x4EC0, symBinAddr: 0x100005E40, symSize: 0x2C }
  - { offsetInCU: 0x66B6C, offset: 0x66B6C, size: 0x8, addend: 0x0, symName: __ZNSt3__116__hash_node_baseIPNS_11__hash_nodeINS_17__hash_value_typeINS_12basic_stringIcNS_11char_traitsIcEENS_9allocatorIcEEEEN6spdlog5level10level_enumEEEPvEEEC2B8ue170006Ev, symObjAddr: 0x4EEC, symBinAddr: 0x100005E6C, symSize: 0x18 }
  - { offsetInCU: 0x66B96, offset: 0x66B96, size: 0x8, addend: 0x0, symName: __ZNSt3__19allocatorINS_11__hash_nodeINS_17__hash_value_typeINS_12basic_stringIcNS_11char_traitsIcEENS0_IcEEEEN6spdlog5level10level_enumEEEPvEEEC2B8ue170006Ev, symObjAddr: 0x4F04, symBinAddr: 0x100005E84, symSize: 0x2C }
  - { offsetInCU: 0x66BC0, offset: 0x66BC0, size: 0x8, addend: 0x0, symName: __ZNSt3__116__non_trivial_ifILb1ENS_9allocatorINS_11__hash_nodeINS_17__hash_value_typeINS_12basic_stringIcNS_11char_traitsIcEENS1_IcEEEEN6spdlog5level10level_enumEEEPvEEEEEC2B8ue170006Ev, symObjAddr: 0x4F30, symBinAddr: 0x100005EB0, symSize: 0x14 }
  - { offsetInCU: 0x66BEA, offset: 0x66BEA, size: 0x8, addend: 0x0, symName: __ZNSt3__117__compressed_pairImNS_22__unordered_map_hasherINS_12basic_stringIcNS_11char_traitsIcEENS_9allocatorIcEEEENS_17__hash_value_typeIS7_N6spdlog5level10level_enumEEENS_4hashIS7_EENS_8equal_toIS7_EELb1EEEEC2B8ue170006IiNS_18__default_init_tagEEEOT_OT0_, symObjAddr: 0x4F44, symBinAddr: 0x100005EC4, symSize: 0x40 }
  - { offsetInCU: 0x66C42, offset: 0x66C42, size: 0x8, addend: 0x0, symName: __ZNSt3__122__compressed_pair_elemINS_22__unordered_map_hasherINS_12basic_stringIcNS_11char_traitsIcEENS_9allocatorIcEEEENS_17__hash_value_typeIS7_N6spdlog5level10level_enumEEENS_4hashIS7_EENS_8equal_toIS7_EELb1EEELi1ELb1EEC2B8ue170006ENS_18__default_init_tagE, symObjAddr: 0x4F84, symBinAddr: 0x100005F04, symSize: 0x2C }
  - { offsetInCU: 0x66C77, offset: 0x66C77, size: 0x8, addend: 0x0, symName: __ZNSt3__122__unordered_map_hasherINS_12basic_stringIcNS_11char_traitsIcEENS_9allocatorIcEEEENS_17__hash_value_typeIS6_N6spdlog5level10level_enumEEENS_4hashIS6_EENS_8equal_toIS6_EELb1EEC2B8ue170006Ev, symObjAddr: 0x4FB0, symBinAddr: 0x100005F30, symSize: 0x14 }
  - { offsetInCU: 0x66CA1, offset: 0x66CA1, size: 0x8, addend: 0x0, symName: __ZNSt3__117__compressed_pairIfNS_21__unordered_map_equalINS_12basic_stringIcNS_11char_traitsIcEENS_9allocatorIcEEEENS_17__hash_value_typeIS7_N6spdlog5level10level_enumEEENS_8equal_toIS7_EENS_4hashIS7_EELb1EEEEC2B8ue170006IfNS_18__default_init_tagEEEOT_OT0_, symObjAddr: 0x4FC4, symBinAddr: 0x100005F44, symSize: 0x40 }
  - { offsetInCU: 0x66CF9, offset: 0x66CF9, size: 0x8, addend: 0x0, symName: __ZNSt3__122__compressed_pair_elemINS_21__unordered_map_equalINS_12basic_stringIcNS_11char_traitsIcEENS_9allocatorIcEEEENS_17__hash_value_typeIS7_N6spdlog5level10level_enumEEENS_8equal_toIS7_EENS_4hashIS7_EELb1EEELi1ELb1EEC2B8ue170006ENS_18__default_init_tagE, symObjAddr: 0x5004, symBinAddr: 0x100005F84, symSize: 0x2C }
  - { offsetInCU: 0x66D2E, offset: 0x66D2E, size: 0x8, addend: 0x0, symName: __ZNSt3__121__unordered_map_equalINS_12basic_stringIcNS_11char_traitsIcEENS_9allocatorIcEEEENS_17__hash_value_typeIS6_N6spdlog5level10level_enumEEENS_8equal_toIS6_EENS_4hashIS6_EELb1EEC2B8ue170006Ev, symObjAddr: 0x5030, symBinAddr: 0x100005FB0, symSize: 0x14 }
  - { offsetInCU: 0x66D58, offset: 0x66D58, size: 0x8, addend: 0x0, symName: __ZN6spdlog17pattern_formatterC2ENS_17pattern_time_typeENSt3__112basic_stringIcNS2_11char_traitsIcEENS2_9allocatorIcEEEE, symObjAddr: 0x5044, symBinAddr: 0x100005FC4, symSize: 0x1CC }
  - { offsetInCU: 0x66DA4, offset: 0x66DA4, size: 0x8, addend: 0x0, symName: __ZN6spdlog9formatterC2Ev, symObjAddr: 0x5210, symBinAddr: 0x100006190, symSize: 0x24 }
  - { offsetInCU: 0x66DD0, offset: 0x66DD0, size: 0x8, addend: 0x0, symName: __ZNSt3__112basic_stringIcNS_11char_traitsIcEENS_9allocatorIcEEEC1B8ue170006EOS5_, symObjAddr: 0x5234, symBinAddr: 0x1000061B4, symSize: 0x34 }
  - { offsetInCU: 0x66E0E, offset: 0x66E0E, size: 0x8, addend: 0x0, symName: __ZNSt3__16chrono8durationIxNS_5ratioILl1ELl1EEEEC1B8ue170006IiEERKT_PNS_9enable_ifIXaasr14is_convertibleIS8_xEE5valueooL_ZNS_17integral_constantIbLb0EE5valueEEntsr23treat_as_floating_pointIS6_EE5valueEvE4typeE, symObjAddr: 0x5268, symBinAddr: 0x1000061E8, symSize: 0x3C }
  - { offsetInCU: 0x66E5B, offset: 0x66E5B, size: 0x8, addend: 0x0, symName: __ZNSt3__16vectorINS_10unique_ptrIN6spdlog7details14flag_formatterENS_14default_deleteIS4_EEEENS_9allocatorIS7_EEEC1B8ue170006Ev, symObjAddr: 0x52A4, symBinAddr: 0x100006224, symSize: 0x2C }
  - { offsetInCU: 0x66E85, offset: 0x66E85, size: 0x8, addend: 0x0, symName: __ZNSt3__113unordered_mapIcNS_10unique_ptrIN6spdlog21custom_flag_formatterENS_14default_deleteIS3_EEEENS_4hashIcEENS_8equal_toIcEENS_9allocatorINS_4pairIKcS6_EEEEEC1B8ue170006Ev, symObjAddr: 0x52D0, symBinAddr: 0x100006250, symSize: 0x2C }
  - { offsetInCU: 0x66EAF, offset: 0x66EAF, size: 0x8, addend: 0x0, symName: __ZNSt3__16vectorINS_10unique_ptrIN6spdlog7details14flag_formatterENS_14default_deleteIS4_EEEENS_9allocatorIS7_EEE9push_backB8ue170006EOS7_, symObjAddr: 0x52FC, symBinAddr: 0x10000627C, symSize: 0x6C }
  - { offsetInCU: 0x66EE6, offset: 0x66EE6, size: 0x8, addend: 0x0, symName: __ZN6spdlog7details12padding_infoC1Ev, symObjAddr: 0x53E4, symBinAddr: 0x100006364, symSize: 0x2C }
  - { offsetInCU: 0x66F10, offset: 0x66F10, size: 0x8, addend: 0x0, symName: __ZNSt3__110unique_ptrIN6spdlog7details14flag_formatterENS_14default_deleteIS3_EEEC1B8ue170006INS2_14full_formatterENS4_IS8_EEvvEEONS0_IT_T0_EE, symObjAddr: 0x5410, symBinAddr: 0x100006390, symSize: 0x34 }
  - { offsetInCU: 0x66F5C, offset: 0x66F5C, size: 0x8, addend: 0x0, symName: __ZNSt3__110unique_ptrIN6spdlog7details14flag_formatterENS_14default_deleteIS3_EEED1B8ue170006Ev, symObjAddr: 0x5444, symBinAddr: 0x1000063C4, symSize: 0x2C }
  - { offsetInCU: 0x66F86, offset: 0x66F86, size: 0x8, addend: 0x0, symName: __ZNSt3__110unique_ptrIN6spdlog7details14full_formatterENS_14default_deleteIS3_EEED1B8ue170006Ev, symObjAddr: 0x5470, symBinAddr: 0x1000063F0, symSize: 0x2C }
  - { offsetInCU: 0x66FB0, offset: 0x66FB0, size: 0x8, addend: 0x0, symName: __ZNSt3__113unordered_mapIcNS_10unique_ptrIN6spdlog21custom_flag_formatterENS_14default_deleteIS3_EEEENS_4hashIcEENS_8equal_toIcEENS_9allocatorINS_4pairIKcS6_EEEEED1B8ue170006Ev, symObjAddr: 0x549C, symBinAddr: 0x10000641C, symSize: 0x2C }
  - { offsetInCU: 0x66FDA, offset: 0x66FDA, size: 0x8, addend: 0x0, symName: __ZNSt3__16vectorINS_10unique_ptrIN6spdlog7details14flag_formatterENS_14default_deleteIS4_EEEENS_9allocatorIS7_EEED1B8ue170006Ev, symObjAddr: 0x54C8, symBinAddr: 0x100006448, symSize: 0x2C }
  - { offsetInCU: 0x67004, offset: 0x67004, size: 0x8, addend: 0x0, symName: __ZN6spdlog9formatterD2Ev, symObjAddr: 0x54F4, symBinAddr: 0x100006474, symSize: 0x14 }
  - { offsetInCU: 0x6702E, offset: 0x6702E, size: 0x8, addend: 0x0, symName: __ZN6spdlog17pattern_formatterD1Ev, symObjAddr: 0x5508, symBinAddr: 0x100006488, symSize: 0x2C }
  - { offsetInCU: 0x6705A, offset: 0x6705A, size: 0x8, addend: 0x0, symName: __ZN6spdlog17pattern_formatterD0Ev, symObjAddr: 0x5534, symBinAddr: 0x1000064B4, symSize: 0x30 }
  - { offsetInCU: 0x67086, offset: 0x67086, size: 0x8, addend: 0x0, symName: __ZN6spdlog17pattern_formatter6formatERKNS_7details7log_msgERN3fmt3v1019basic_memory_bufferIcLm250ENSt3__19allocatorIcEEEE, symObjAddr: 0x5564, symBinAddr: 0x1000064E4, symSize: 0x14C }
  - { offsetInCU: 0x6713C, offset: 0x6713C, size: 0x8, addend: 0x0, symName: __ZNK6spdlog17pattern_formatter5cloneEv, symObjAddr: 0x56B0, symBinAddr: 0x100006630, symSize: 0x1A4 }
  - { offsetInCU: 0x671D1, offset: 0x671D1, size: 0x8, addend: 0x0, symName: __ZN6spdlog9formatterD1Ev, symObjAddr: 0x5854, symBinAddr: 0x1000067D4, symSize: 0x14 }
  - { offsetInCU: 0x671FB, offset: 0x671FB, size: 0x8, addend: 0x0, symName: __ZN6spdlog9formatterD0Ev, symObjAddr: 0x5868, symBinAddr: 0x1000067E8, symSize: 0xC }
  - { offsetInCU: 0x67225, offset: 0x67225, size: 0x8, addend: 0x0, symName: __ZNSt3__112basic_stringIcNS_11char_traitsIcEENS_9allocatorIcEEEC2B8ue170006EOS5_, symObjAddr: 0x5874, symBinAddr: 0x1000067F4, symSize: 0x48 }
  - { offsetInCU: 0x6725E, offset: 0x6725E, size: 0x8, addend: 0x0, symName: __ZNSt3__16chrono8durationIxNS_5ratioILl1ELl1EEEEC2B8ue170006IiEERKT_PNS_9enable_ifIXaasr14is_convertibleIS8_xEE5valueooL_ZNS_17integral_constantIbLb0EE5valueEEntsr23treat_as_floating_pointIS6_EE5valueEvE4typeE, symObjAddr: 0x58BC, symBinAddr: 0x10000683C, symSize: 0x28 }
  - { offsetInCU: 0x672AB, offset: 0x672AB, size: 0x8, addend: 0x0, symName: __ZNSt3__16vectorINS_10unique_ptrIN6spdlog7details14flag_formatterENS_14default_deleteIS4_EEEENS_9allocatorIS7_EEEC2B8ue170006Ev, symObjAddr: 0x58E4, symBinAddr: 0x100006864, symSize: 0x4C }
  - { offsetInCU: 0x672D5, offset: 0x672D5, size: 0x8, addend: 0x0, symName: __ZNSt3__117__compressed_pairIPNS_10unique_ptrIN6spdlog7details14flag_formatterENS_14default_deleteIS4_EEEENS_9allocatorIS7_EEEC1B8ue170006IDnNS_18__default_init_tagEEEOT_OT0_, symObjAddr: 0x5930, symBinAddr: 0x1000068B0, symSize: 0x3C }
  - { offsetInCU: 0x6732D, offset: 0x6732D, size: 0x8, addend: 0x0, symName: __ZNSt3__117__compressed_pairIPNS_10unique_ptrIN6spdlog7details14flag_formatterENS_14default_deleteIS4_EEEENS_9allocatorIS7_EEEC2B8ue170006IDnNS_18__default_init_tagEEEOT_OT0_, symObjAddr: 0x596C, symBinAddr: 0x1000068EC, symSize: 0x40 }
  - { offsetInCU: 0x67385, offset: 0x67385, size: 0x8, addend: 0x0, symName: __ZNSt3__122__compressed_pair_elemIPNS_10unique_ptrIN6spdlog7details14flag_formatterENS_14default_deleteIS4_EEEELi0ELb0EEC2B8ue170006IDnvEEOT_, symObjAddr: 0x59AC, symBinAddr: 0x10000692C, symSize: 0x1C }
  - { offsetInCU: 0x673C7, offset: 0x673C7, size: 0x8, addend: 0x0, symName: __ZNSt3__122__compressed_pair_elemINS_9allocatorINS_10unique_ptrIN6spdlog7details14flag_formatterENS_14default_deleteIS5_EEEEEELi1ELb1EEC2B8ue170006ENS_18__default_init_tagE, symObjAddr: 0x59C8, symBinAddr: 0x100006948, symSize: 0x2C }
  - { offsetInCU: 0x673FC, offset: 0x673FC, size: 0x8, addend: 0x0, symName: __ZNSt3__19allocatorINS_10unique_ptrIN6spdlog7details14flag_formatterENS_14default_deleteIS4_EEEEEC2B8ue170006Ev, symObjAddr: 0x59F4, symBinAddr: 0x100006974, symSize: 0x2C }
  - { offsetInCU: 0x67426, offset: 0x67426, size: 0x8, addend: 0x0, symName: __ZNSt3__116__non_trivial_ifILb1ENS_9allocatorINS_10unique_ptrIN6spdlog7details14flag_formatterENS_14default_deleteIS5_EEEEEEEC2B8ue170006Ev, symObjAddr: 0x5A20, symBinAddr: 0x1000069A0, symSize: 0x14 }
  - { offsetInCU: 0x67450, offset: 0x67450, size: 0x8, addend: 0x0, symName: __ZNSt3__113unordered_mapIcNS_10unique_ptrIN6spdlog21custom_flag_formatterENS_14default_deleteIS3_EEEENS_4hashIcEENS_8equal_toIcEENS_9allocatorINS_4pairIKcS6_EEEEEC2B8ue170006Ev, symObjAddr: 0x5A34, symBinAddr: 0x1000069B4, symSize: 0x2C }
  - { offsetInCU: 0x6747A, offset: 0x6747A, size: 0x8, addend: 0x0, symName: __ZNSt3__112__hash_tableINS_17__hash_value_typeIcNS_10unique_ptrIN6spdlog21custom_flag_formatterENS_14default_deleteIS4_EEEEEENS_22__unordered_map_hasherIcS8_NS_4hashIcEENS_8equal_toIcEELb1EEENS_21__unordered_map_equalIcS8_SD_SB_Lb1EEENS_9allocatorIS8_EEEC1Ev, symObjAddr: 0x5A60, symBinAddr: 0x1000069E0, symSize: 0x2C }
  - { offsetInCU: 0x674A6, offset: 0x674A6, size: 0x8, addend: 0x0, symName: __ZNSt3__112__hash_tableINS_17__hash_value_typeIcNS_10unique_ptrIN6spdlog21custom_flag_formatterENS_14default_deleteIS4_EEEEEENS_22__unordered_map_hasherIcS8_NS_4hashIcEENS_8equal_toIcEELb1EEENS_21__unordered_map_equalIcS8_SD_SB_Lb1EEENS_9allocatorIS8_EEEC2Ev, symObjAddr: 0x5A8C, symBinAddr: 0x100006A0C, symSize: 0x7C }
  - { offsetInCU: 0x674D2, offset: 0x674D2, size: 0x8, addend: 0x0, symName: __ZNSt3__110unique_ptrIA_PNS_16__hash_node_baseIPNS_11__hash_nodeINS_17__hash_value_typeIcNS0_IN6spdlog21custom_flag_formatterENS_14default_deleteIS5_EEEEEEPvEEEENS_25__bucket_list_deallocatorINS_9allocatorISE_EEEEEC1B8ue170006ILb1EvEEv, symObjAddr: 0x5B08, symBinAddr: 0x100006A88, symSize: 0x2C }
  - { offsetInCU: 0x67507, offset: 0x67507, size: 0x8, addend: 0x0, symName: __ZNSt3__117__compressed_pairINS_16__hash_node_baseIPNS_11__hash_nodeINS_17__hash_value_typeIcNS_10unique_ptrIN6spdlog21custom_flag_formatterENS_14default_deleteIS6_EEEEEEPvEEEENS_9allocatorISC_EEEC1B8ue170006ILb1EvEEv, symObjAddr: 0x5B34, symBinAddr: 0x100006AB4, symSize: 0x2C }
  - { offsetInCU: 0x6753C, offset: 0x6753C, size: 0x8, addend: 0x0, symName: __ZNSt3__117__compressed_pairImNS_22__unordered_map_hasherIcNS_17__hash_value_typeIcNS_10unique_ptrIN6spdlog21custom_flag_formatterENS_14default_deleteIS5_EEEEEENS_4hashIcEENS_8equal_toIcEELb1EEEEC1B8ue170006IiNS_18__default_init_tagEEEOT_OT0_, symObjAddr: 0x5B60, symBinAddr: 0x100006AE0, symSize: 0x3C }
  - { offsetInCU: 0x67594, offset: 0x67594, size: 0x8, addend: 0x0, symName: __ZNSt3__117__compressed_pairIfNS_21__unordered_map_equalIcNS_17__hash_value_typeIcNS_10unique_ptrIN6spdlog21custom_flag_formatterENS_14default_deleteIS5_EEEEEENS_8equal_toIcEENS_4hashIcEELb1EEEEC1B8ue170006IfNS_18__default_init_tagEEEOT_OT0_, symObjAddr: 0x5B9C, symBinAddr: 0x100006B1C, symSize: 0x3C }
  - { offsetInCU: 0x675EC, offset: 0x675EC, size: 0x8, addend: 0x0, symName: __ZNSt3__110unique_ptrIA_PNS_16__hash_node_baseIPNS_11__hash_nodeINS_17__hash_value_typeIcNS0_IN6spdlog21custom_flag_formatterENS_14default_deleteIS5_EEEEEEPvEEEENS_25__bucket_list_deallocatorINS_9allocatorISE_EEEEEC2B8ue170006ILb1EvEEv, symObjAddr: 0x5BD8, symBinAddr: 0x100006B58, symSize: 0x3C }
  - { offsetInCU: 0x67621, offset: 0x67621, size: 0x8, addend: 0x0, symName: __ZNSt3__117__compressed_pairIPPNS_16__hash_node_baseIPNS_11__hash_nodeINS_17__hash_value_typeIcNS_10unique_ptrIN6spdlog21custom_flag_formatterENS_14default_deleteIS6_EEEEEEPvEEEENS_25__bucket_list_deallocatorINS_9allocatorISF_EEEEEC1B8ue170006INS_16__value_init_tagESN_EEOT_OT0_, symObjAddr: 0x5C14, symBinAddr: 0x100006B94, symSize: 0x3C }
  - { offsetInCU: 0x67679, offset: 0x67679, size: 0x8, addend: 0x0, symName: __ZNSt3__117__compressed_pairIPPNS_16__hash_node_baseIPNS_11__hash_nodeINS_17__hash_value_typeIcNS_10unique_ptrIN6spdlog21custom_flag_formatterENS_14default_deleteIS6_EEEEEEPvEEEENS_25__bucket_list_deallocatorINS_9allocatorISF_EEEEEC2B8ue170006INS_16__value_init_tagESN_EEOT_OT0_, symObjAddr: 0x5C50, symBinAddr: 0x100006BD0, symSize: 0x40 }
  - { offsetInCU: 0x676D1, offset: 0x676D1, size: 0x8, addend: 0x0, symName: __ZNSt3__122__compressed_pair_elemIPPNS_16__hash_node_baseIPNS_11__hash_nodeINS_17__hash_value_typeIcNS_10unique_ptrIN6spdlog21custom_flag_formatterENS_14default_deleteIS6_EEEEEEPvEEEELi0ELb0EEC2B8ue170006ENS_16__value_init_tagE, symObjAddr: 0x5C90, symBinAddr: 0x100006C10, symSize: 0x18 }
  - { offsetInCU: 0x67706, offset: 0x67706, size: 0x8, addend: 0x0, symName: __ZNSt3__122__compressed_pair_elemINS_25__bucket_list_deallocatorINS_9allocatorIPNS_16__hash_node_baseIPNS_11__hash_nodeINS_17__hash_value_typeIcNS_10unique_ptrIN6spdlog21custom_flag_formatterENS_14default_deleteIS8_EEEEEEPvEEEEEEEELi1ELb0EEC2B8ue170006ENS_16__value_init_tagE, symObjAddr: 0x5CA8, symBinAddr: 0x100006C28, symSize: 0x2C }
  - { offsetInCU: 0x6773B, offset: 0x6773B, size: 0x8, addend: 0x0, symName: __ZNSt3__125__bucket_list_deallocatorINS_9allocatorIPNS_16__hash_node_baseIPNS_11__hash_nodeINS_17__hash_value_typeIcNS_10unique_ptrIN6spdlog21custom_flag_formatterENS_14default_deleteIS7_EEEEEEPvEEEEEEEC1B8ue170006Ev, symObjAddr: 0x5CD4, symBinAddr: 0x100006C54, symSize: 0x2C }
  - { offsetInCU: 0x67765, offset: 0x67765, size: 0x8, addend: 0x0, symName: __ZNSt3__125__bucket_list_deallocatorINS_9allocatorIPNS_16__hash_node_baseIPNS_11__hash_nodeINS_17__hash_value_typeIcNS_10unique_ptrIN6spdlog21custom_flag_formatterENS_14default_deleteIS7_EEEEEEPvEEEEEEEC2B8ue170006Ev, symObjAddr: 0x5D00, symBinAddr: 0x100006C80, symSize: 0x40 }
  - { offsetInCU: 0x6778F, offset: 0x6778F, size: 0x8, addend: 0x0, symName: __ZNSt3__117__compressed_pairImNS_9allocatorIPNS_16__hash_node_baseIPNS_11__hash_nodeINS_17__hash_value_typeIcNS_10unique_ptrIN6spdlog21custom_flag_formatterENS_14default_deleteIS7_EEEEEEPvEEEEEEEC1B8ue170006IiNS_18__default_init_tagEEEOT_OT0_, symObjAddr: 0x5D40, symBinAddr: 0x100006CC0, symSize: 0x3C }
  - { offsetInCU: 0x677E7, offset: 0x677E7, size: 0x8, addend: 0x0, symName: __ZNSt3__117__compressed_pairImNS_9allocatorIPNS_16__hash_node_baseIPNS_11__hash_nodeINS_17__hash_value_typeIcNS_10unique_ptrIN6spdlog21custom_flag_formatterENS_14default_deleteIS7_EEEEEEPvEEEEEEEC2B8ue170006IiNS_18__default_init_tagEEEOT_OT0_, symObjAddr: 0x5D7C, symBinAddr: 0x100006CFC, symSize: 0x40 }
  - { offsetInCU: 0x6783F, offset: 0x6783F, size: 0x8, addend: 0x0, symName: __ZNSt3__122__compressed_pair_elemINS_9allocatorIPNS_16__hash_node_baseIPNS_11__hash_nodeINS_17__hash_value_typeIcNS_10unique_ptrIN6spdlog21custom_flag_formatterENS_14default_deleteIS7_EEEEEEPvEEEEEELi1ELb1EEC2B8ue170006ENS_18__default_init_tagE, symObjAddr: 0x5DBC, symBinAddr: 0x100006D3C, symSize: 0x2C }
  - { offsetInCU: 0x67874, offset: 0x67874, size: 0x8, addend: 0x0, symName: __ZNSt3__19allocatorIPNS_16__hash_node_baseIPNS_11__hash_nodeINS_17__hash_value_typeIcNS_10unique_ptrIN6spdlog21custom_flag_formatterENS_14default_deleteIS6_EEEEEEPvEEEEEC2B8ue170006Ev, symObjAddr: 0x5DE8, symBinAddr: 0x100006D68, symSize: 0x2C }
  - { offsetInCU: 0x6789E, offset: 0x6789E, size: 0x8, addend: 0x0, symName: __ZNSt3__116__non_trivial_ifILb1ENS_9allocatorIPNS_16__hash_node_baseIPNS_11__hash_nodeINS_17__hash_value_typeIcNS_10unique_ptrIN6spdlog21custom_flag_formatterENS_14default_deleteIS7_EEEEEEPvEEEEEEEC2B8ue170006Ev, symObjAddr: 0x5E14, symBinAddr: 0x100006D94, symSize: 0x14 }
  - { offsetInCU: 0x678C8, offset: 0x678C8, size: 0x8, addend: 0x0, symName: __ZNSt3__117__compressed_pairINS_16__hash_node_baseIPNS_11__hash_nodeINS_17__hash_value_typeIcNS_10unique_ptrIN6spdlog21custom_flag_formatterENS_14default_deleteIS6_EEEEEEPvEEEENS_9allocatorISC_EEEC2B8ue170006ILb1EvEEv, symObjAddr: 0x5E28, symBinAddr: 0x100006DA8, symSize: 0x34 }
  - { offsetInCU: 0x678FD, offset: 0x678FD, size: 0x8, addend: 0x0, symName: __ZNSt3__122__compressed_pair_elemINS_16__hash_node_baseIPNS_11__hash_nodeINS_17__hash_value_typeIcNS_10unique_ptrIN6spdlog21custom_flag_formatterENS_14default_deleteIS6_EEEEEEPvEEEELi0ELb0EEC2B8ue170006ENS_16__value_init_tagE, symObjAddr: 0x5E5C, symBinAddr: 0x100006DDC, symSize: 0x2C }
  - { offsetInCU: 0x67932, offset: 0x67932, size: 0x8, addend: 0x0, symName: __ZNSt3__122__compressed_pair_elemINS_9allocatorINS_11__hash_nodeINS_17__hash_value_typeIcNS_10unique_ptrIN6spdlog21custom_flag_formatterENS_14default_deleteIS6_EEEEEEPvEEEELi1ELb1EEC2B8ue170006ENS_16__value_init_tagE, symObjAddr: 0x5E88, symBinAddr: 0x100006E08, symSize: 0x2C }
  - { offsetInCU: 0x67967, offset: 0x67967, size: 0x8, addend: 0x0, symName: __ZNSt3__116__hash_node_baseIPNS_11__hash_nodeINS_17__hash_value_typeIcNS_10unique_ptrIN6spdlog21custom_flag_formatterENS_14default_deleteIS5_EEEEEEPvEEEC1B8ue170006Ev, symObjAddr: 0x5EB4, symBinAddr: 0x100006E34, symSize: 0x2C }
  - { offsetInCU: 0x67991, offset: 0x67991, size: 0x8, addend: 0x0, symName: __ZNSt3__116__hash_node_baseIPNS_11__hash_nodeINS_17__hash_value_typeIcNS_10unique_ptrIN6spdlog21custom_flag_formatterENS_14default_deleteIS5_EEEEEEPvEEEC2B8ue170006Ev, symObjAddr: 0x5EE0, symBinAddr: 0x100006E60, symSize: 0x18 }
  - { offsetInCU: 0x679BB, offset: 0x679BB, size: 0x8, addend: 0x0, symName: __ZNSt3__19allocatorINS_11__hash_nodeINS_17__hash_value_typeIcNS_10unique_ptrIN6spdlog21custom_flag_formatterENS_14default_deleteIS5_EEEEEEPvEEEC2B8ue170006Ev, symObjAddr: 0x5EF8, symBinAddr: 0x100006E78, symSize: 0x2C }
  - { offsetInCU: 0x679E5, offset: 0x679E5, size: 0x8, addend: 0x0, symName: __ZNSt3__116__non_trivial_ifILb1ENS_9allocatorINS_11__hash_nodeINS_17__hash_value_typeIcNS_10unique_ptrIN6spdlog21custom_flag_formatterENS_14default_deleteIS6_EEEEEEPvEEEEEC2B8ue170006Ev, symObjAddr: 0x5F24, symBinAddr: 0x100006EA4, symSize: 0x14 }
  - { offsetInCU: 0x67A0F, offset: 0x67A0F, size: 0x8, addend: 0x0, symName: __ZNSt3__117__compressed_pairImNS_22__unordered_map_hasherIcNS_17__hash_value_typeIcNS_10unique_ptrIN6spdlog21custom_flag_formatterENS_14default_deleteIS5_EEEEEENS_4hashIcEENS_8equal_toIcEELb1EEEEC2B8ue170006IiNS_18__default_init_tagEEEOT_OT0_, symObjAddr: 0x5F38, symBinAddr: 0x100006EB8, symSize: 0x40 }
  - { offsetInCU: 0x67A67, offset: 0x67A67, size: 0x8, addend: 0x0, symName: __ZNSt3__122__compressed_pair_elemINS_22__unordered_map_hasherIcNS_17__hash_value_typeIcNS_10unique_ptrIN6spdlog21custom_flag_formatterENS_14default_deleteIS5_EEEEEENS_4hashIcEENS_8equal_toIcEELb1EEELi1ELb1EEC2B8ue170006ENS_18__default_init_tagE, symObjAddr: 0x5F78, symBinAddr: 0x100006EF8, symSize: 0x2C }
  - { offsetInCU: 0x67A9C, offset: 0x67A9C, size: 0x8, addend: 0x0, symName: __ZNSt3__122__unordered_map_hasherIcNS_17__hash_value_typeIcNS_10unique_ptrIN6spdlog21custom_flag_formatterENS_14default_deleteIS4_EEEEEENS_4hashIcEENS_8equal_toIcEELb1EEC2B8ue170006Ev, symObjAddr: 0x5FA4, symBinAddr: 0x100006F24, symSize: 0x14 }
  - { offsetInCU: 0x67AC6, offset: 0x67AC6, size: 0x8, addend: 0x0, symName: __ZNSt3__117__compressed_pairIfNS_21__unordered_map_equalIcNS_17__hash_value_typeIcNS_10unique_ptrIN6spdlog21custom_flag_formatterENS_14default_deleteIS5_EEEEEENS_8equal_toIcEENS_4hashIcEELb1EEEEC2B8ue170006IfNS_18__default_init_tagEEEOT_OT0_, symObjAddr: 0x5FB8, symBinAddr: 0x100006F38, symSize: 0x40 }
  - { offsetInCU: 0x67B1E, offset: 0x67B1E, size: 0x8, addend: 0x0, symName: __ZNSt3__122__compressed_pair_elemINS_21__unordered_map_equalIcNS_17__hash_value_typeIcNS_10unique_ptrIN6spdlog21custom_flag_formatterENS_14default_deleteIS5_EEEEEENS_8equal_toIcEENS_4hashIcEELb1EEELi1ELb1EEC2B8ue170006ENS_18__default_init_tagE, symObjAddr: 0x5FF8, symBinAddr: 0x100006F78, symSize: 0x2C }
  - { offsetInCU: 0x67B53, offset: 0x67B53, size: 0x8, addend: 0x0, symName: __ZNSt3__121__unordered_map_equalIcNS_17__hash_value_typeIcNS_10unique_ptrIN6spdlog21custom_flag_formatterENS_14default_deleteIS4_EEEEEENS_8equal_toIcEENS_4hashIcEELb1EEC2B8ue170006Ev, symObjAddr: 0x6024, symBinAddr: 0x100006FA4, symSize: 0x14 }
  - { offsetInCU: 0x67B7D, offset: 0x67B7D, size: 0x8, addend: 0x0, symName: __ZNSt3__16vectorINS_10unique_ptrIN6spdlog7details14flag_formatterENS_14default_deleteIS4_EEEENS_9allocatorIS7_EEE9__end_capB8ue170006Ev, symObjAddr: 0x6038, symBinAddr: 0x100006FB8, symSize: 0x28 }
  - { offsetInCU: 0x67BA3, offset: 0x67BA3, size: 0x8, addend: 0x0, symName: __ZNSt3__16vectorINS_10unique_ptrIN6spdlog7details14flag_formatterENS_14default_deleteIS4_EEEENS_9allocatorIS7_EEE22__construct_one_at_endB8ue170006IJS7_EEEvDpOT_, symObjAddr: 0x6060, symBinAddr: 0x100006FE0, symSize: 0x90 }
  - { offsetInCU: 0x67BF4, offset: 0x67BF4, size: 0x8, addend: 0x0, symName: __ZNSt3__16vectorINS_10unique_ptrIN6spdlog7details14flag_formatterENS_14default_deleteIS4_EEEENS_9allocatorIS7_EEE21__push_back_slow_pathIS7_EEvOT_, symObjAddr: 0x60F0, symBinAddr: 0x100007070, symSize: 0xD8 }
  - { offsetInCU: 0x67C52, offset: 0x67C52, size: 0x8, addend: 0x0, symName: __ZNSt3__117__compressed_pairIPNS_10unique_ptrIN6spdlog7details14flag_formatterENS_14default_deleteIS4_EEEENS_9allocatorIS7_EEE5firstB8ue170006Ev, symObjAddr: 0x61C8, symBinAddr: 0x100007148, symSize: 0x24 }
  - { offsetInCU: 0x67C78, offset: 0x67C78, size: 0x8, addend: 0x0, symName: __ZNSt3__122__compressed_pair_elemIPNS_10unique_ptrIN6spdlog7details14flag_formatterENS_14default_deleteIS4_EEEELi0ELb0EE5__getB8ue170006Ev, symObjAddr: 0x61EC, symBinAddr: 0x10000716C, symSize: 0x14 }
  - { offsetInCU: 0x67CB9, offset: 0x67CB9, size: 0x8, addend: 0x0, symName: __ZNSt3__16vectorINS_10unique_ptrIN6spdlog7details14flag_formatterENS_14default_deleteIS4_EEEENS_9allocatorIS7_EEE21_ConstructTransactionC1B8ue170006ERSA_m, symObjAddr: 0x6200, symBinAddr: 0x100007180, symSize: 0x3C }
  - { offsetInCU: 0x67D01, offset: 0x67D01, size: 0x8, addend: 0x0, symName: __ZNSt3__116allocator_traitsINS_9allocatorINS_10unique_ptrIN6spdlog7details14flag_formatterENS_14default_deleteIS5_EEEEEEE9constructB8ue170006IS8_JS8_EvEEvRS9_PT_DpOT0_, symObjAddr: 0x623C, symBinAddr: 0x1000071BC, symSize: 0x34 }
  - { offsetInCU: 0x67D5A, offset: 0x67D5A, size: 0x8, addend: 0x0, symName: __ZNSt3__16vectorINS_10unique_ptrIN6spdlog7details14flag_formatterENS_14default_deleteIS4_EEEENS_9allocatorIS7_EEE7__allocB8ue170006Ev, symObjAddr: 0x6270, symBinAddr: 0x1000071F0, symSize: 0x28 }
  - { offsetInCU: 0x67D80, offset: 0x67D80, size: 0x8, addend: 0x0, symName: __ZNSt3__16vectorINS_10unique_ptrIN6spdlog7details14flag_formatterENS_14default_deleteIS4_EEEENS_9allocatorIS7_EEE21_ConstructTransactionD1B8ue170006Ev, symObjAddr: 0x62AC, symBinAddr: 0x10000722C, symSize: 0x2C }
  - { offsetInCU: 0x67DAA, offset: 0x67DAA, size: 0x8, addend: 0x0, symName: __ZNSt3__16vectorINS_10unique_ptrIN6spdlog7details14flag_formatterENS_14default_deleteIS4_EEEENS_9allocatorIS7_EEE21_ConstructTransactionC2B8ue170006ERSA_m, symObjAddr: 0x62D8, symBinAddr: 0x100007258, symSize: 0x44 }
  - { offsetInCU: 0x67DF2, offset: 0x67DF2, size: 0x8, addend: 0x0, symName: __ZNSt3__19allocatorINS_10unique_ptrIN6spdlog7details14flag_formatterENS_14default_deleteIS4_EEEEE9constructB8ue170006IS7_JS7_EEEvPT_DpOT0_, symObjAddr: 0x631C, symBinAddr: 0x10000729C, symSize: 0x30 }
  - { offsetInCU: 0x67E4A, offset: 0x67E4A, size: 0x8, addend: 0x0, symName: __ZNSt3__110unique_ptrIN6spdlog7details14flag_formatterENS_14default_deleteIS3_EEEC1B8ue170006EOS6_, symObjAddr: 0x634C, symBinAddr: 0x1000072CC, symSize: 0x34 }
  - { offsetInCU: 0x67E82, offset: 0x67E82, size: 0x8, addend: 0x0, symName: __ZNSt3__110unique_ptrIN6spdlog7details14flag_formatterENS_14default_deleteIS3_EEEC2B8ue170006EOS6_, symObjAddr: 0x6380, symBinAddr: 0x100007300, symSize: 0x60 }
  - { offsetInCU: 0x67EBA, offset: 0x67EBA, size: 0x8, addend: 0x0, symName: __ZNSt3__110unique_ptrIN6spdlog7details14flag_formatterENS_14default_deleteIS3_EEE7releaseB8ue170006Ev, symObjAddr: 0x63E0, symBinAddr: 0x100007360, symSize: 0x44 }
  - { offsetInCU: 0x67EEF, offset: 0x67EEF, size: 0x8, addend: 0x0, symName: __ZNSt3__110unique_ptrIN6spdlog7details14flag_formatterENS_14default_deleteIS3_EEE11get_deleterB8ue170006Ev, symObjAddr: 0x6424, symBinAddr: 0x1000073A4, symSize: 0x24 }
  - { offsetInCU: 0x67F21, offset: 0x67F21, size: 0x8, addend: 0x0, symName: __ZNSt3__117__compressed_pairIPN6spdlog7details14flag_formatterENS_14default_deleteIS3_EEEC1B8ue170006IS4_S6_EEOT_OT0_, symObjAddr: 0x6448, symBinAddr: 0x1000073C8, symSize: 0x3C }
  - { offsetInCU: 0x67F79, offset: 0x67F79, size: 0x8, addend: 0x0, symName: __ZNSt3__117__compressed_pairIPN6spdlog7details14flag_formatterENS_14default_deleteIS3_EEE5firstB8ue170006Ev, symObjAddr: 0x6484, symBinAddr: 0x100007404, symSize: 0x24 }
  - { offsetInCU: 0x67F9F, offset: 0x67F9F, size: 0x8, addend: 0x0, symName: __ZNSt3__122__compressed_pair_elemIPN6spdlog7details14flag_formatterELi0ELb0EE5__getB8ue170006Ev, symObjAddr: 0x64A8, symBinAddr: 0x100007428, symSize: 0x14 }
  - { offsetInCU: 0x67FC5, offset: 0x67FC5, size: 0x8, addend: 0x0, symName: __ZNSt3__117__compressed_pairIPN6spdlog7details14flag_formatterENS_14default_deleteIS3_EEE6secondB8ue170006Ev, symObjAddr: 0x64BC, symBinAddr: 0x10000743C, symSize: 0x24 }
  - { offsetInCU: 0x67FEB, offset: 0x67FEB, size: 0x8, addend: 0x0, symName: __ZNSt3__122__compressed_pair_elemINS_14default_deleteIN6spdlog7details14flag_formatterEEELi1ELb1EE5__getB8ue170006Ev, symObjAddr: 0x64E0, symBinAddr: 0x100007460, symSize: 0x14 }
  - { offsetInCU: 0x68011, offset: 0x68011, size: 0x8, addend: 0x0, symName: __ZNSt3__117__compressed_pairIPN6spdlog7details14flag_formatterENS_14default_deleteIS3_EEEC2B8ue170006IS4_S6_EEOT_OT0_, symObjAddr: 0x64F4, symBinAddr: 0x100007474, symSize: 0x44 }
  - { offsetInCU: 0x68069, offset: 0x68069, size: 0x8, addend: 0x0, symName: __ZNSt3__122__compressed_pair_elemIPN6spdlog7details14flag_formatterELi0ELb0EEC2B8ue170006IS4_vEEOT_, symObjAddr: 0x6538, symBinAddr: 0x1000074B8, symSize: 0x24 }
  - { offsetInCU: 0x680AB, offset: 0x680AB, size: 0x8, addend: 0x0, symName: __ZNSt3__122__compressed_pair_elemINS_14default_deleteIN6spdlog7details14flag_formatterEEELi1ELb1EEC2B8ue170006IS5_vEEOT_, symObjAddr: 0x655C, symBinAddr: 0x1000074DC, symSize: 0x18 }
  - { offsetInCU: 0x680ED, offset: 0x680ED, size: 0x8, addend: 0x0, symName: __ZNSt3__117__compressed_pairIPNS_10unique_ptrIN6spdlog7details14flag_formatterENS_14default_deleteIS4_EEEENS_9allocatorIS7_EEE6secondB8ue170006Ev, symObjAddr: 0x6574, symBinAddr: 0x1000074F4, symSize: 0x24 }
  - { offsetInCU: 0x68113, offset: 0x68113, size: 0x8, addend: 0x0, symName: __ZNSt3__122__compressed_pair_elemINS_9allocatorINS_10unique_ptrIN6spdlog7details14flag_formatterENS_14default_deleteIS5_EEEEEELi1ELb1EE5__getB8ue170006Ev, symObjAddr: 0x6598, symBinAddr: 0x100007518, symSize: 0x14 }
  - { offsetInCU: 0x68139, offset: 0x68139, size: 0x8, addend: 0x0, symName: __ZNSt3__16vectorINS_10unique_ptrIN6spdlog7details14flag_formatterENS_14default_deleteIS4_EEEENS_9allocatorIS7_EEE21_ConstructTransactionD2B8ue170006Ev, symObjAddr: 0x65AC, symBinAddr: 0x10000752C, symSize: 0x20 }
  - { offsetInCU: 0x68163, offset: 0x68163, size: 0x8, addend: 0x0, symName: __ZNKSt3__16vectorINS_10unique_ptrIN6spdlog7details14flag_formatterENS_14default_deleteIS4_EEEENS_9allocatorIS7_EEE11__recommendB8ue170006Em, symObjAddr: 0x65CC, symBinAddr: 0x10000754C, symSize: 0xB4 }
  - { offsetInCU: 0x681B8, offset: 0x681B8, size: 0x8, addend: 0x0, symName: __ZNKSt3__16vectorINS_10unique_ptrIN6spdlog7details14flag_formatterENS_14default_deleteIS4_EEEENS_9allocatorIS7_EEE4sizeB8ue170006Ev, symObjAddr: 0x6680, symBinAddr: 0x100007600, symSize: 0x28 }
  - { offsetInCU: 0x681DE, offset: 0x681DE, size: 0x8, addend: 0x0, symName: __ZNSt3__114__split_bufferINS_10unique_ptrIN6spdlog7details14flag_formatterENS_14default_deleteIS4_EEEERNS_9allocatorIS7_EEEC1EmmSA_, symObjAddr: 0x66A8, symBinAddr: 0x100007628, symSize: 0x44 }
  - { offsetInCU: 0x68234, offset: 0x68234, size: 0x8, addend: 0x0, symName: __ZNSt3__114__split_bufferINS_10unique_ptrIN6spdlog7details14flag_formatterENS_14default_deleteIS4_EEEERNS_9allocatorIS7_EEED1Ev, symObjAddr: 0x67FC, symBinAddr: 0x10000777C, symSize: 0x2C }
  - { offsetInCU: 0x68260, offset: 0x68260, size: 0x8, addend: 0x0, symName: __ZNKSt3__16vectorINS_10unique_ptrIN6spdlog7details14flag_formatterENS_14default_deleteIS4_EEEENS_9allocatorIS7_EEE8max_sizeEv, symObjAddr: 0x6828, symBinAddr: 0x1000077A8, symSize: 0x60 }
  - { offsetInCU: 0x68288, offset: 0x68288, size: 0x8, addend: 0x0, symName: __ZNKSt3__16vectorINS_10unique_ptrIN6spdlog7details14flag_formatterENS_14default_deleteIS4_EEEENS_9allocatorIS7_EEE20__throw_length_errorB8ue170006Ev, symObjAddr: 0x6888, symBinAddr: 0x100007808, symSize: 0x1C }
  - { offsetInCU: 0x682AE, offset: 0x682AE, size: 0x8, addend: 0x0, symName: __ZNKSt3__16vectorINS_10unique_ptrIN6spdlog7details14flag_formatterENS_14default_deleteIS4_EEEENS_9allocatorIS7_EEE8capacityB8ue170006Ev, symObjAddr: 0x68A4, symBinAddr: 0x100007824, symSize: 0x40 }
  - { offsetInCU: 0x682DF, offset: 0x682DF, size: 0x8, addend: 0x0, symName: __ZNSt3__116allocator_traitsINS_9allocatorINS_10unique_ptrIN6spdlog7details14flag_formatterENS_14default_deleteIS5_EEEEEEE8max_sizeB8ue170006IS9_vEEmRKS9_, symObjAddr: 0x693C, symBinAddr: 0x1000078BC, symSize: 0x24 }
  - { offsetInCU: 0x6830D, offset: 0x6830D, size: 0x8, addend: 0x0, symName: __ZNKSt3__16vectorINS_10unique_ptrIN6spdlog7details14flag_formatterENS_14default_deleteIS4_EEEENS_9allocatorIS7_EEE7__allocB8ue170006Ev, symObjAddr: 0x6960, symBinAddr: 0x1000078E0, symSize: 0x28 }
  - { offsetInCU: 0x68333, offset: 0x68333, size: 0x8, addend: 0x0, symName: __ZNSt3__114numeric_limitsIlE3maxB8ue170006Ev, symObjAddr: 0x6988, symBinAddr: 0x100007908, symSize: 0x14 }
  - { offsetInCU: 0x68351, offset: 0x68351, size: 0x8, addend: 0x0, symName: __ZNKSt3__16__lessIvvEclB8ue170006ImmEEbRKT_RKT0_, symObjAddr: 0x69F0, symBinAddr: 0x100007970, symSize: 0x34 }
  - { offsetInCU: 0x683A5, offset: 0x683A5, size: 0x8, addend: 0x0, symName: __ZNKSt3__19allocatorINS_10unique_ptrIN6spdlog7details14flag_formatterENS_14default_deleteIS4_EEEEE8max_sizeB8ue170006Ev, symObjAddr: 0x6A24, symBinAddr: 0x1000079A4, symSize: 0x14 }
  - { offsetInCU: 0x683CB, offset: 0x683CB, size: 0x8, addend: 0x0, symName: __ZNKSt3__117__compressed_pairIPNS_10unique_ptrIN6spdlog7details14flag_formatterENS_14default_deleteIS4_EEEENS_9allocatorIS7_EEE6secondB8ue170006Ev, symObjAddr: 0x6A38, symBinAddr: 0x1000079B8, symSize: 0x24 }
  - { offsetInCU: 0x683F1, offset: 0x683F1, size: 0x8, addend: 0x0, symName: __ZNKSt3__122__compressed_pair_elemINS_9allocatorINS_10unique_ptrIN6spdlog7details14flag_formatterENS_14default_deleteIS5_EEEEEELi1ELb1EE5__getB8ue170006Ev, symObjAddr: 0x6A5C, symBinAddr: 0x1000079DC, symSize: 0x14 }
  - { offsetInCU: 0x68417, offset: 0x68417, size: 0x8, addend: 0x0, symName: __ZNSt3__123__libcpp_numeric_limitsIlLb1EE3maxB8ue170006Ev, symObjAddr: 0x6A70, symBinAddr: 0x1000079F0, symSize: 0x8 }
  - { offsetInCU: 0x6842B, offset: 0x6842B, size: 0x8, addend: 0x0, symName: __ZNSt12length_errorC1B8ue170006EPKc, symObjAddr: 0x6ADC, symBinAddr: 0x100007A5C, symSize: 0x34 }
  - { offsetInCU: 0x68463, offset: 0x68463, size: 0x8, addend: 0x0, symName: __ZNSt12length_errorC2B8ue170006EPKc, symObjAddr: 0x6B10, symBinAddr: 0x100007A90, symSize: 0x4C }
  - { offsetInCU: 0x6849B, offset: 0x6849B, size: 0x8, addend: 0x0, symName: __ZNKSt3__16vectorINS_10unique_ptrIN6spdlog7details14flag_formatterENS_14default_deleteIS4_EEEENS_9allocatorIS7_EEE9__end_capB8ue170006Ev, symObjAddr: 0x6B5C, symBinAddr: 0x100007ADC, symSize: 0x28 }
  - { offsetInCU: 0x684C1, offset: 0x684C1, size: 0x8, addend: 0x0, symName: __ZNKSt3__117__compressed_pairIPNS_10unique_ptrIN6spdlog7details14flag_formatterENS_14default_deleteIS4_EEEENS_9allocatorIS7_EEE5firstB8ue170006Ev, symObjAddr: 0x6B84, symBinAddr: 0x100007B04, symSize: 0x24 }
  - { offsetInCU: 0x684E7, offset: 0x684E7, size: 0x8, addend: 0x0, symName: __ZNKSt3__122__compressed_pair_elemIPNS_10unique_ptrIN6spdlog7details14flag_formatterENS_14default_deleteIS4_EEEELi0ELb0EE5__getB8ue170006Ev, symObjAddr: 0x6BA8, symBinAddr: 0x100007B28, symSize: 0x14 }
  - { offsetInCU: 0x6850D, offset: 0x6850D, size: 0x8, addend: 0x0, symName: __ZNSt3__114__split_bufferINS_10unique_ptrIN6spdlog7details14flag_formatterENS_14default_deleteIS4_EEEERNS_9allocatorIS7_EEEC2EmmSA_, symObjAddr: 0x6C10, symBinAddr: 0x100007B90, symSize: 0xD4 }
  - { offsetInCU: 0x68580, offset: 0x68580, size: 0x8, addend: 0x0, symName: __ZNSt3__117__compressed_pairIPNS_10unique_ptrIN6spdlog7details14flag_formatterENS_14default_deleteIS4_EEEERNS_9allocatorIS7_EEEC1B8ue170006IDnSB_EEOT_OT0_, symObjAddr: 0x6CE4, symBinAddr: 0x100007C64, symSize: 0x3C }
  - { offsetInCU: 0x685D8, offset: 0x685D8, size: 0x8, addend: 0x0, symName: __ZNSt3__114__split_bufferINS_10unique_ptrIN6spdlog7details14flag_formatterENS_14default_deleteIS4_EEEERNS_9allocatorIS7_EEE7__allocB8ue170006Ev, symObjAddr: 0x6D60, symBinAddr: 0x100007CE0, symSize: 0x28 }
  - { offsetInCU: 0x685FE, offset: 0x685FE, size: 0x8, addend: 0x0, symName: __ZNSt3__114__split_bufferINS_10unique_ptrIN6spdlog7details14flag_formatterENS_14default_deleteIS4_EEEERNS_9allocatorIS7_EEE9__end_capB8ue170006Ev, symObjAddr: 0x6D88, symBinAddr: 0x100007D08, symSize: 0x28 }
  - { offsetInCU: 0x68624, offset: 0x68624, size: 0x8, addend: 0x0, symName: __ZNSt3__117__compressed_pairIPNS_10unique_ptrIN6spdlog7details14flag_formatterENS_14default_deleteIS4_EEEERNS_9allocatorIS7_EEEC2B8ue170006IDnSB_EEOT_OT0_, symObjAddr: 0x6DB0, symBinAddr: 0x100007D30, symSize: 0x48 }
  - { offsetInCU: 0x6867C, offset: 0x6867C, size: 0x8, addend: 0x0, symName: __ZNSt3__122__compressed_pair_elemIRNS_9allocatorINS_10unique_ptrIN6spdlog7details14flag_formatterENS_14default_deleteIS5_EEEEEELi1ELb0EEC2B8ue170006ISA_vEEOT_, symObjAddr: 0x6DF8, symBinAddr: 0x100007D78, symSize: 0x20 }
  - { offsetInCU: 0x686BE, offset: 0x686BE, size: 0x8, addend: 0x0, symName: __ZNSt3__19allocatorINS_10unique_ptrIN6spdlog7details14flag_formatterENS_14default_deleteIS4_EEEEE8allocateB8ue170006Em, symObjAddr: 0x6E18, symBinAddr: 0x100007D98, symSize: 0x58 }
  - { offsetInCU: 0x686F2, offset: 0x686F2, size: 0x8, addend: 0x0, symName: __ZNSt3__117__compressed_pairIPNS_10unique_ptrIN6spdlog7details14flag_formatterENS_14default_deleteIS4_EEEERNS_9allocatorIS7_EEE6secondB8ue170006Ev, symObjAddr: 0x6F54, symBinAddr: 0x100007ED4, symSize: 0x28 }
  - { offsetInCU: 0x68718, offset: 0x68718, size: 0x8, addend: 0x0, symName: __ZNSt3__122__compressed_pair_elemIRNS_9allocatorINS_10unique_ptrIN6spdlog7details14flag_formatterENS_14default_deleteIS5_EEEEEELi1ELb0EE5__getB8ue170006Ev, symObjAddr: 0x6F7C, symBinAddr: 0x100007EFC, symSize: 0x18 }
  - { offsetInCU: 0x6873E, offset: 0x6873E, size: 0x8, addend: 0x0, symName: __ZNSt3__117__compressed_pairIPNS_10unique_ptrIN6spdlog7details14flag_formatterENS_14default_deleteIS4_EEEERNS_9allocatorIS7_EEE5firstB8ue170006Ev, symObjAddr: 0x6F94, symBinAddr: 0x100007F14, symSize: 0x24 }
  - { offsetInCU: 0x68764, offset: 0x68764, size: 0x8, addend: 0x0, symName: __ZNKSt3__16vectorINS_10unique_ptrIN6spdlog7details14flag_formatterENS_14default_deleteIS4_EEEENS_9allocatorIS7_EEE17__annotate_deleteB8ue170006Ev, symObjAddr: 0x6FB8, symBinAddr: 0x100007F38, symSize: 0xB8 }
  - { offsetInCU: 0x6878A, offset: 0x6878A, size: 0x8, addend: 0x0, symName: __ZNSt3__116reverse_iteratorIPNS_10unique_ptrIN6spdlog7details14flag_formatterENS_14default_deleteIS4_EEEEEC1B8ue170006ES8_, symObjAddr: 0x719C, symBinAddr: 0x10000811C, symSize: 0x34 }
  - { offsetInCU: 0x687C2, offset: 0x687C2, size: 0x8, addend: 0x0, symName: __ZNKSt3__116reverse_iteratorIPNS_10unique_ptrIN6spdlog7details14flag_formatterENS_14default_deleteIS4_EEEEE4baseB8ue170006Ev, symObjAddr: 0x71D0, symBinAddr: 0x100008150, symSize: 0x18 }
  - { offsetInCU: 0x687E8, offset: 0x687E8, size: 0x8, addend: 0x0, symName: __ZNKSt3__16vectorINS_10unique_ptrIN6spdlog7details14flag_formatterENS_14default_deleteIS4_EEEENS_9allocatorIS7_EEE14__annotate_newB8ue170006Em, symObjAddr: 0x7224, symBinAddr: 0x1000081A4, symSize: 0xAC }
  - { offsetInCU: 0x6881D, offset: 0x6881D, size: 0x8, addend: 0x0, symName: __ZNKSt3__16vectorINS_10unique_ptrIN6spdlog7details14flag_formatterENS_14default_deleteIS4_EEEENS_9allocatorIS7_EEE31__annotate_contiguous_containerB8ue170006EPKvSC_SC_SC_, symObjAddr: 0x72D0, symBinAddr: 0x100008250, symSize: 0x20 }
  - { offsetInCU: 0x68873, offset: 0x68873, size: 0x8, addend: 0x0, symName: __ZNKSt3__16vectorINS_10unique_ptrIN6spdlog7details14flag_formatterENS_14default_deleteIS4_EEEENS_9allocatorIS7_EEE4dataB8ue170006Ev, symObjAddr: 0x72F0, symBinAddr: 0x100008270, symSize: 0x28 }
  - { offsetInCU: 0x68899, offset: 0x68899, size: 0x8, addend: 0x0, symName: __ZNSt3__129_AllocatorDestroyRangeReverseINS_9allocatorINS_10unique_ptrIN6spdlog7details14flag_formatterENS_14default_deleteIS5_EEEEEENS_16reverse_iteratorIPS8_EEEC1B8ue170006ERS9_RSC_SF_, symObjAddr: 0x7364, symBinAddr: 0x1000082E4, symSize: 0x44 }
  - { offsetInCU: 0x688F0, offset: 0x688F0, size: 0x8, addend: 0x0, symName: __ZNKSt3__116reverse_iteratorIPNS_10unique_ptrIN6spdlog7details14flag_formatterENS_14default_deleteIS4_EEEEEdeB8ue170006Ev, symObjAddr: 0x7414, symBinAddr: 0x100008394, symSize: 0x28 }
  - { offsetInCU: 0x68924, offset: 0x68924, size: 0x8, addend: 0x0, symName: __ZNSt3__116reverse_iteratorIPNS_10unique_ptrIN6spdlog7details14flag_formatterENS_14default_deleteIS4_EEEEEppB8ue170006Ev, symObjAddr: 0x743C, symBinAddr: 0x1000083BC, symSize: 0x20 }
  - { offsetInCU: 0x6894A, offset: 0x6894A, size: 0x8, addend: 0x0, symName: __ZNSt3__128__exception_guard_exceptionsINS_29_AllocatorDestroyRangeReverseINS_9allocatorINS_10unique_ptrIN6spdlog7details14flag_formatterENS_14default_deleteIS6_EEEEEENS_16reverse_iteratorIPS9_EEEEE10__completeB8ue170006Ev, symObjAddr: 0x745C, symBinAddr: 0x1000083DC, symSize: 0x1C }
  - { offsetInCU: 0x68970, offset: 0x68970, size: 0x8, addend: 0x0, symName: __ZNSt3__128__exception_guard_exceptionsINS_29_AllocatorDestroyRangeReverseINS_9allocatorINS_10unique_ptrIN6spdlog7details14flag_formatterENS_14default_deleteIS6_EEEEEENS_16reverse_iteratorIPS9_EEEEED1B8ue170006Ev, symObjAddr: 0x7478, symBinAddr: 0x1000083F8, symSize: 0x2C }
  - { offsetInCU: 0x6899A, offset: 0x6899A, size: 0x8, addend: 0x0, symName: __ZNSt3__128__exception_guard_exceptionsINS_29_AllocatorDestroyRangeReverseINS_9allocatorINS_10unique_ptrIN6spdlog7details14flag_formatterENS_14default_deleteIS6_EEEEEENS_16reverse_iteratorIPS9_EEEEEC1B8ue170006ESE_, symObjAddr: 0x74A4, symBinAddr: 0x100008424, symSize: 0x34 }
  - { offsetInCU: 0x689D3, offset: 0x689D3, size: 0x8, addend: 0x0, symName: __ZNSt3__128__exception_guard_exceptionsINS_29_AllocatorDestroyRangeReverseINS_9allocatorINS_10unique_ptrIN6spdlog7details14flag_formatterENS_14default_deleteIS6_EEEEEENS_16reverse_iteratorIPS9_EEEEEC2B8ue170006ESE_, symObjAddr: 0x74D8, symBinAddr: 0x100008458, symSize: 0x30 }
  - { offsetInCU: 0x68A0C, offset: 0x68A0C, size: 0x8, addend: 0x0, symName: __ZNSt3__129_AllocatorDestroyRangeReverseINS_9allocatorINS_10unique_ptrIN6spdlog7details14flag_formatterENS_14default_deleteIS5_EEEEEENS_16reverse_iteratorIPS8_EEEC2B8ue170006ERS9_RSC_SF_, symObjAddr: 0x7508, symBinAddr: 0x100008488, symSize: 0x38 }
  - { offsetInCU: 0x68A69, offset: 0x68A69, size: 0x8, addend: 0x0, symName: __ZNSt3__119__to_address_helperINS_16reverse_iteratorIPNS_10unique_ptrIN6spdlog7details14flag_formatterENS_14default_deleteIS5_EEEEEEvE6__callB8ue170006ERKSA_, symObjAddr: 0x7540, symBinAddr: 0x1000084C0, symSize: 0x38 }
  - { offsetInCU: 0x68A8C, offset: 0x68A8C, size: 0x8, addend: 0x0, symName: __ZNKSt3__116reverse_iteratorIPNS_10unique_ptrIN6spdlog7details14flag_formatterENS_14default_deleteIS4_EEEEEptB8ue170006Ev, symObjAddr: 0x7578, symBinAddr: 0x1000084F8, symSize: 0x24 }
  - { offsetInCU: 0x68AB2, offset: 0x68AB2, size: 0x8, addend: 0x0, symName: __ZNSt3__128__exception_guard_exceptionsINS_29_AllocatorDestroyRangeReverseINS_9allocatorINS_10unique_ptrIN6spdlog7details14flag_formatterENS_14default_deleteIS6_EEEEEENS_16reverse_iteratorIPS9_EEEEED2B8ue170006Ev, symObjAddr: 0x759C, symBinAddr: 0x10000851C, symSize: 0x50 }
  - { offsetInCU: 0x68ADC, offset: 0x68ADC, size: 0x8, addend: 0x0, symName: __ZNKSt3__129_AllocatorDestroyRangeReverseINS_9allocatorINS_10unique_ptrIN6spdlog7details14flag_formatterENS_14default_deleteIS5_EEEEEENS_16reverse_iteratorIPS8_EEEclB8ue170006Ev, symObjAddr: 0x75EC, symBinAddr: 0x10000856C, symSize: 0xB4 }
  - { offsetInCU: 0x68B03, offset: 0x68B03, size: 0x8, addend: 0x0, symName: __ZNSt3__116reverse_iteratorINS0_IPNS_10unique_ptrIN6spdlog7details14flag_formatterENS_14default_deleteIS4_EEEEEEEC1B8ue170006ES9_, symObjAddr: 0x7710, symBinAddr: 0x100008690, symSize: 0x3C }
  - { offsetInCU: 0x68B3B, offset: 0x68B3B, size: 0x8, addend: 0x0, symName: __ZNSt3__116allocator_traitsINS_9allocatorINS_10unique_ptrIN6spdlog7details14flag_formatterENS_14default_deleteIS5_EEEEEEE7destroyB8ue170006IS8_vEEvRS9_PT_, symObjAddr: 0x77AC, symBinAddr: 0x10000872C, symSize: 0x2C }
  - { offsetInCU: 0x68B78, offset: 0x68B78, size: 0x8, addend: 0x0, symName: __ZNSt3__116reverse_iteratorINS0_IPNS_10unique_ptrIN6spdlog7details14flag_formatterENS_14default_deleteIS4_EEEEEEEppB8ue170006Ev, symObjAddr: 0x77FC, symBinAddr: 0x10000877C, symSize: 0x30 }
  - { offsetInCU: 0x68B9E, offset: 0x68B9E, size: 0x8, addend: 0x0, symName: __ZNKSt3__116reverse_iteratorINS0_IPNS_10unique_ptrIN6spdlog7details14flag_formatterENS_14default_deleteIS4_EEEEEEE4baseB8ue170006Ev, symObjAddr: 0x782C, symBinAddr: 0x1000087AC, symSize: 0x24 }
  - { offsetInCU: 0x68BC4, offset: 0x68BC4, size: 0x8, addend: 0x0, symName: __ZNSt3__19allocatorINS_10unique_ptrIN6spdlog7details14flag_formatterENS_14default_deleteIS4_EEEEE7destroyB8ue170006EPS7_, symObjAddr: 0x7850, symBinAddr: 0x1000087D0, symSize: 0x28 }
  - { offsetInCU: 0x68BFE, offset: 0x68BFE, size: 0x8, addend: 0x0, symName: __ZNSt3__119__to_address_helperINS_16reverse_iteratorINS1_IPNS_10unique_ptrIN6spdlog7details14flag_formatterENS_14default_deleteIS5_EEEEEEEEvE6__callB8ue170006ERKSB_, symObjAddr: 0x7878, symBinAddr: 0x1000087F8, symSize: 0x38 }
  - { offsetInCU: 0x68C21, offset: 0x68C21, size: 0x8, addend: 0x0, symName: __ZNKSt3__116reverse_iteratorINS0_IPNS_10unique_ptrIN6spdlog7details14flag_formatterENS_14default_deleteIS4_EEEEEEEptB8ue170006Ev, symObjAddr: 0x78B0, symBinAddr: 0x100008830, symSize: 0x24 }
  - { offsetInCU: 0x68C47, offset: 0x68C47, size: 0x8, addend: 0x0, symName: __ZNKSt3__116reverse_iteratorINS0_IPNS_10unique_ptrIN6spdlog7details14flag_formatterENS_14default_deleteIS4_EEEEEEEdeB8ue170006Ev, symObjAddr: 0x78D4, symBinAddr: 0x100008854, symSize: 0x34 }
  - { offsetInCU: 0x68C7B, offset: 0x68C7B, size: 0x8, addend: 0x0, symName: __ZNSt3__116reverse_iteratorIPNS_10unique_ptrIN6spdlog7details14flag_formatterENS_14default_deleteIS4_EEEEEmmB8ue170006Ev, symObjAddr: 0x7908, symBinAddr: 0x100008888, symSize: 0x20 }
  - { offsetInCU: 0x68CA1, offset: 0x68CA1, size: 0x8, addend: 0x0, symName: __ZNSt3__116reverse_iteratorINS0_IPNS_10unique_ptrIN6spdlog7details14flag_formatterENS_14default_deleteIS4_EEEEEEEC2B8ue170006ES9_, symObjAddr: 0x7928, symBinAddr: 0x1000088A8, symSize: 0x2C }
  - { offsetInCU: 0x68CD9, offset: 0x68CD9, size: 0x8, addend: 0x0, symName: __ZNSt3__116reverse_iteratorIPNS_10unique_ptrIN6spdlog7details14flag_formatterENS_14default_deleteIS4_EEEEEC2B8ue170006ES8_, symObjAddr: 0x7954, symBinAddr: 0x1000088D4, symSize: 0x28 }
  - { offsetInCU: 0x68D11, offset: 0x68D11, size: 0x8, addend: 0x0, symName: __ZNSt3__114__split_bufferINS_10unique_ptrIN6spdlog7details14flag_formatterENS_14default_deleteIS4_EEEERNS_9allocatorIS7_EEED2Ev, symObjAddr: 0x797C, symBinAddr: 0x1000088FC, symSize: 0x8C }
  - { offsetInCU: 0x68D3D, offset: 0x68D3D, size: 0x8, addend: 0x0, symName: __ZNSt3__114__split_bufferINS_10unique_ptrIN6spdlog7details14flag_formatterENS_14default_deleteIS4_EEEERNS_9allocatorIS7_EEE5clearB8ue170006Ev, symObjAddr: 0x7A08, symBinAddr: 0x100008988, symSize: 0x28 }
  - { offsetInCU: 0x68D63, offset: 0x68D63, size: 0x8, addend: 0x0, symName: __ZNSt3__116allocator_traitsINS_9allocatorINS_10unique_ptrIN6spdlog7details14flag_formatterENS_14default_deleteIS5_EEEEEEE10deallocateB8ue170006ERS9_PS8_m, symObjAddr: 0x7A30, symBinAddr: 0x1000089B0, symSize: 0x34 }
  - { offsetInCU: 0x68DA5, offset: 0x68DA5, size: 0x8, addend: 0x0, symName: __ZNKSt3__114__split_bufferINS_10unique_ptrIN6spdlog7details14flag_formatterENS_14default_deleteIS4_EEEERNS_9allocatorIS7_EEE8capacityB8ue170006Ev, symObjAddr: 0x7A64, symBinAddr: 0x1000089E4, symSize: 0x40 }
  - { offsetInCU: 0x68DCB, offset: 0x68DCB, size: 0x8, addend: 0x0, symName: __ZNSt3__114__split_bufferINS_10unique_ptrIN6spdlog7details14flag_formatterENS_14default_deleteIS4_EEEERNS_9allocatorIS7_EEE17__destruct_at_endB8ue170006EPS7_, symObjAddr: 0x7AA4, symBinAddr: 0x100008A24, symSize: 0x2C }
  - { offsetInCU: 0x68DFF, offset: 0x68DFF, size: 0x8, addend: 0x0, symName: __ZNSt3__114__split_bufferINS_10unique_ptrIN6spdlog7details14flag_formatterENS_14default_deleteIS4_EEEERNS_9allocatorIS7_EEE17__destruct_at_endB8ue170006EPS7_NS_17integral_constantIbLb0EEE, symObjAddr: 0x7AD0, symBinAddr: 0x100008A50, symSize: 0x80 }
  - { offsetInCU: 0x68E40, offset: 0x68E40, size: 0x8, addend: 0x0, symName: __ZNSt3__19allocatorINS_10unique_ptrIN6spdlog7details14flag_formatterENS_14default_deleteIS4_EEEEE10deallocateB8ue170006EPS7_m, symObjAddr: 0x7B50, symBinAddr: 0x100008AD0, symSize: 0x40 }
  - { offsetInCU: 0x68E82, offset: 0x68E82, size: 0x8, addend: 0x0, symName: __ZNKSt3__114__split_bufferINS_10unique_ptrIN6spdlog7details14flag_formatterENS_14default_deleteIS4_EEEERNS_9allocatorIS7_EEE9__end_capB8ue170006Ev, symObjAddr: 0x7B90, symBinAddr: 0x100008B10, symSize: 0x28 }
  - { offsetInCU: 0x68EA8, offset: 0x68EA8, size: 0x8, addend: 0x0, symName: __ZNKSt3__117__compressed_pairIPNS_10unique_ptrIN6spdlog7details14flag_formatterENS_14default_deleteIS4_EEEERNS_9allocatorIS7_EEE5firstB8ue170006Ev, symObjAddr: 0x7BB8, symBinAddr: 0x100008B38, symSize: 0x24 }
  - { offsetInCU: 0x68ECE, offset: 0x68ECE, size: 0x8, addend: 0x0, symName: __ZN6spdlog7details14full_formatterC1ENS0_12padding_infoE, symObjAddr: 0x7BDC, symBinAddr: 0x100008B5C, symSize: 0x3C }
  - { offsetInCU: 0x68F07, offset: 0x68F07, size: 0x8, addend: 0x0, symName: __ZNSt3__110unique_ptrIN6spdlog7details14full_formatterENS_14default_deleteIS3_EEEC1B8ue170006ILb1EvEEPS3_, symObjAddr: 0x7C18, symBinAddr: 0x100008B98, symSize: 0x34 }
  - { offsetInCU: 0x68F4A, offset: 0x68F4A, size: 0x8, addend: 0x0, symName: __ZN6spdlog7details14full_formatterC2ENS0_12padding_infoE, symObjAddr: 0x7C4C, symBinAddr: 0x100008BCC, symSize: 0x110 }
  - { offsetInCU: 0x68F83, offset: 0x68F83, size: 0x8, addend: 0x0, symName: __ZN6spdlog7details14flag_formatterC2ENS0_12padding_infoE, symObjAddr: 0x7D5C, symBinAddr: 0x100008CDC, symSize: 0x34 }
  - { offsetInCU: 0x68FBB, offset: 0x68FBB, size: 0x8, addend: 0x0, symName: __ZNSt3__19allocatorIcEC1B8ue170006Ev, symObjAddr: 0x7D90, symBinAddr: 0x100008D10, symSize: 0x2C }
  - { offsetInCU: 0x68FE5, offset: 0x68FE5, size: 0x8, addend: 0x0, symName: __ZN3fmt3v1019basic_memory_bufferIcLm250ENSt3__19allocatorIcEEEC1ERKS4_, symObjAddr: 0x7DBC, symBinAddr: 0x100008D3C, symSize: 0x34 }
  - { offsetInCU: 0x6901E, offset: 0x6901E, size: 0x8, addend: 0x0, symName: __ZN6spdlog7details13mdc_formatterINS0_18null_scoped_padderEEC1ENS0_12padding_infoE, symObjAddr: 0x7DF0, symBinAddr: 0x100008D70, symSize: 0x3C }
  - { offsetInCU: 0x69057, offset: 0x69057, size: 0x8, addend: 0x0, symName: __ZN3fmt3v1019basic_memory_bufferIcLm250ENSt3__19allocatorIcEEED1Ev, symObjAddr: 0x7E2C, symBinAddr: 0x100008DAC, symSize: 0x2C }
  - { offsetInCU: 0x69081, offset: 0x69081, size: 0x8, addend: 0x0, symName: __ZN6spdlog7details14flag_formatterD2Ev, symObjAddr: 0x7E58, symBinAddr: 0x100008DD8, symSize: 0x14 }
  - { offsetInCU: 0x690AB, offset: 0x690AB, size: 0x8, addend: 0x0, symName: __ZN6spdlog7details14full_formatterD1Ev, symObjAddr: 0x7E6C, symBinAddr: 0x100008DEC, symSize: 0x2C }
  - { offsetInCU: 0x690D8, offset: 0x690D8, size: 0x8, addend: 0x0, symName: __ZN6spdlog7details14full_formatterD0Ev, symObjAddr: 0x7E98, symBinAddr: 0x100008E18, symSize: 0x30 }
  - { offsetInCU: 0x69184, offset: 0x69184, size: 0x8, addend: 0x0, symName: __ZN6spdlog7details14full_formatter6formatERKNS0_7log_msgERK2tmRN3fmt3v1019basic_memory_bufferIcLm250ENSt3__19allocatorIcEEEE, symObjAddr: 0x7EC8, symBinAddr: 0x100008E48, symSize: 0x4B4 }
  - { offsetInCU: 0x692D3, offset: 0x692D3, size: 0x8, addend: 0x0, symName: __ZN6spdlog7details14flag_formatterD1Ev, symObjAddr: 0x837C, symBinAddr: 0x1000092FC, symSize: 0x14 }
  - { offsetInCU: 0x692FD, offset: 0x692FD, size: 0x8, addend: 0x0, symName: __ZN6spdlog7details14flag_formatterD0Ev, symObjAddr: 0x8390, symBinAddr: 0x100009310, symSize: 0xC }
  - { offsetInCU: 0x69327, offset: 0x69327, size: 0x8, addend: 0x0, symName: __ZN3fmt3v1019basic_memory_bufferIcLm250ENSt3__19allocatorIcEEEC2ERKS4_, symObjAddr: 0x839C, symBinAddr: 0x10000931C, symSize: 0x68 }
  - { offsetInCU: 0x69360, offset: 0x69360, size: 0x8, addend: 0x0, symName: __ZN3fmt3v106detail6bufferIcEC2EPcmm, symObjAddr: 0x8404, symBinAddr: 0x100009384, symSize: 0x48 }
  - { offsetInCU: 0x693B7, offset: 0x693B7, size: 0x8, addend: 0x0, symName: __ZN3fmt3v106detail6bufferIcE3setEPcm, symObjAddr: 0x844C, symBinAddr: 0x1000093CC, symSize: 0x2C }
  - { offsetInCU: 0x693FB, offset: 0x693FB, size: 0x8, addend: 0x0, symName: __ZN3fmt3v1019basic_memory_bufferIcLm250ENSt3__19allocatorIcEEE4growEm, symObjAddr: 0x8478, symBinAddr: 0x1000093F8, symSize: 0x1A0 }
  - { offsetInCU: 0x69486, offset: 0x69486, size: 0x8, addend: 0x0, symName: __ZNSt3__116allocator_traitsINS_9allocatorIcEEE8max_sizeB8ue170006IS2_vEEmRKS2_, symObjAddr: 0x8640, symBinAddr: 0x1000095C0, symSize: 0x24 }
  - { offsetInCU: 0x694B4, offset: 0x694B4, size: 0x8, addend: 0x0, symName: __ZNK3fmt3v106detail6bufferIcE8capacityEv, symObjAddr: 0x8664, symBinAddr: 0x1000095E4, symSize: 0x18 }
  - { offsetInCU: 0x694DA, offset: 0x694DA, size: 0x8, addend: 0x0, symName: __ZN3fmt3v106detail6bufferIcE4dataEv, symObjAddr: 0x867C, symBinAddr: 0x1000095FC, symSize: 0x18 }
  - { offsetInCU: 0x69500, offset: 0x69500, size: 0x8, addend: 0x0, symName: __ZNSt3__116allocator_traitsINS_9allocatorIcEEE8allocateB8ue170006ERS2_m, symObjAddr: 0x8694, symBinAddr: 0x100009614, symSize: 0x2C }
  - { offsetInCU: 0x69533, offset: 0x69533, size: 0x8, addend: 0x0, symName: __ZNK3fmt3v106detail6bufferIcE4sizeEv, symObjAddr: 0x86C0, symBinAddr: 0x100009640, symSize: 0x18 }
  - { offsetInCU: 0x69559, offset: 0x69559, size: 0x8, addend: 0x0, symName: __ZNKSt3__19allocatorIcE8max_sizeB8ue170006Ev, symObjAddr: 0x8728, symBinAddr: 0x1000096A8, symSize: 0x14 }
  - { offsetInCU: 0x6957F, offset: 0x6957F, size: 0x8, addend: 0x0, symName: __ZNSt3__19allocatorIcE8allocateB8ue170006Em, symObjAddr: 0x873C, symBinAddr: 0x1000096BC, symSize: 0x58 }
  - { offsetInCU: 0x695D5, offset: 0x695D5, size: 0x8, addend: 0x0, symName: __ZNSt3__14pairIPcS1_EC1B8ue170006IS1_S1_LPv0EEEOT_OT0_, symObjAddr: 0x88DC, symBinAddr: 0x10000985C, symSize: 0x3C }
  - { offsetInCU: 0x69633, offset: 0x69633, size: 0x8, addend: 0x0, symName: __ZNSt3__14pairIPcS1_EC2B8ue170006IS1_S1_LPv0EEEOT_OT0_, symObjAddr: 0x8928, symBinAddr: 0x1000098A8, symSize: 0x34 }
  - { offsetInCU: 0x69691, offset: 0x69691, size: 0x8, addend: 0x0, symName: __ZN6spdlog7details13mdc_formatterINS0_18null_scoped_padderEEC2ENS0_12padding_infoE, symObjAddr: 0x895C, symBinAddr: 0x1000098DC, symSize: 0x5C }
  - { offsetInCU: 0x696CA, offset: 0x696CA, size: 0x8, addend: 0x0, symName: __ZN6spdlog7details13mdc_formatterINS0_18null_scoped_padderEED1Ev, symObjAddr: 0x89B8, symBinAddr: 0x100009938, symSize: 0x2C }
  - { offsetInCU: 0x696F7, offset: 0x696F7, size: 0x8, addend: 0x0, symName: __ZN6spdlog7details13mdc_formatterINS0_18null_scoped_padderEED0Ev, symObjAddr: 0x89E4, symBinAddr: 0x100009964, symSize: 0x30 }
  - { offsetInCU: 0x69724, offset: 0x69724, size: 0x8, addend: 0x0, symName: __ZN6spdlog7details13mdc_formatterINS0_18null_scoped_padderEE6formatERKNS0_7log_msgERK2tmRN3fmt3v1019basic_memory_bufferIcLm250ENSt3__19allocatorIcEEEE, symObjAddr: 0x8A14, symBinAddr: 0x100009994, symSize: 0x78 }
  - { offsetInCU: 0x6979D, offset: 0x6979D, size: 0x8, addend: 0x0, symName: __ZN6spdlog7details13mdc_formatterINS0_18null_scoped_padderEED2Ev, symObjAddr: 0x8A8C, symBinAddr: 0x100009A0C, symSize: 0x2C }
  - { offsetInCU: 0x697CA, offset: 0x697CA, size: 0x8, addend: 0x0, symName: __ZNKSt3__13mapINS_12basic_stringIcNS_11char_traitsIcEENS_9allocatorIcEEEES6_NS_4lessIS6_EENS4_INS_4pairIKS6_S6_EEEEE5emptyB8ue170006Ev, symObjAddr: 0x8B48, symBinAddr: 0x100009AC8, symSize: 0x34 }
  - { offsetInCU: 0x697F0, offset: 0x697F0, size: 0x8, addend: 0x0, symName: __ZN6spdlog7details18null_scoped_padderC1EmRKNS0_12padding_infoERN3fmt3v1019basic_memory_bufferIcLm250ENSt3__19allocatorIcEEEE, symObjAddr: 0x8B7C, symBinAddr: 0x100009AFC, symSize: 0x44 }
  - { offsetInCU: 0x6983B, offset: 0x6983B, size: 0x8, addend: 0x0, symName: __ZN6spdlog7details13mdc_formatterINS0_18null_scoped_padderEE10format_mdcERKNSt3__13mapINS4_12basic_stringIcNS4_11char_traitsIcEENS4_9allocatorIcEEEESB_NS4_4lessISB_EENS9_INS4_4pairIKSB_SB_EEEEEERN3fmt3v1019basic_memory_bufferIcLm250ESA_EE, symObjAddr: 0x8BC0, symBinAddr: 0x100009B40, symSize: 0x214 }
  - { offsetInCU: 0x699A8, offset: 0x699A8, size: 0x8, addend: 0x0, symName: __ZNSt3__13mapINS_12basic_stringIcNS_11char_traitsIcEENS_9allocatorIcEEEES6_NS_4lessIS6_EENS4_INS_4pairIKS6_S6_EEEEEC1B8ue170006Ev, symObjAddr: 0x8DD4, symBinAddr: 0x100009D54, symSize: 0x2C }
  - { offsetInCU: 0x699D2, offset: 0x699D2, size: 0x8, addend: 0x0, symName: __ZNSt3__13mapINS_12basic_stringIcNS_11char_traitsIcEENS_9allocatorIcEEEES6_NS_4lessIS6_EENS4_INS_4pairIKS6_S6_EEEEED1B8ue170006Ev, symObjAddr: 0x8E00, symBinAddr: 0x100009D80, symSize: 0x2C }
  - { offsetInCU: 0x699FC, offset: 0x699FC, size: 0x8, addend: 0x0, symName: __ZNSt3__13mapINS_12basic_stringIcNS_11char_traitsIcEENS_9allocatorIcEEEES6_NS_4lessIS6_EENS4_INS_4pairIKS6_S6_EEEEEC2B8ue170006Ev, symObjAddr: 0x8E2C, symBinAddr: 0x100009DAC, symSize: 0x40 }
  - { offsetInCU: 0x69A26, offset: 0x69A26, size: 0x8, addend: 0x0, symName: __ZNSt3__119__map_value_compareINS_12basic_stringIcNS_11char_traitsIcEENS_9allocatorIcEEEENS_12__value_typeIS6_S6_EENS_4lessIS6_EELb1EEC1B8ue170006ESA_, symObjAddr: 0x8E6C, symBinAddr: 0x100009DEC, symSize: 0x2C }
  - { offsetInCU: 0x69A5F, offset: 0x69A5F, size: 0x8, addend: 0x0, symName: __ZNSt3__16__treeINS_12__value_typeINS_12basic_stringIcNS_11char_traitsIcEENS_9allocatorIcEEEES7_EENS_19__map_value_compareIS7_S8_NS_4lessIS7_EELb1EEENS5_IS8_EEEC1ERKSC_, symObjAddr: 0x8E98, symBinAddr: 0x100009E18, symSize: 0x34 }
  - { offsetInCU: 0x69A9A, offset: 0x69A9A, size: 0x8, addend: 0x0, symName: __ZNSt3__119__map_value_compareINS_12basic_stringIcNS_11char_traitsIcEENS_9allocatorIcEEEENS_12__value_typeIS6_S6_EENS_4lessIS6_EELb1EEC2B8ue170006ESA_, symObjAddr: 0x8ECC, symBinAddr: 0x100009E4C, symSize: 0x14 }
  - { offsetInCU: 0x69AD3, offset: 0x69AD3, size: 0x8, addend: 0x0, symName: __ZNSt3__16__treeINS_12__value_typeINS_12basic_stringIcNS_11char_traitsIcEENS_9allocatorIcEEEES7_EENS_19__map_value_compareIS7_S8_NS_4lessIS7_EELb1EEENS5_IS8_EEEC2ERKSC_, symObjAddr: 0x8EE0, symBinAddr: 0x100009E60, symSize: 0x7C }
  - { offsetInCU: 0x69B0E, offset: 0x69B0E, size: 0x8, addend: 0x0, symName: __ZNSt3__117__compressed_pairINS_15__tree_end_nodeIPNS_16__tree_node_baseIPvEEEENS_9allocatorINS_11__tree_nodeINS_12__value_typeINS_12basic_stringIcNS_11char_traitsIcEENS7_IcEEEESE_EES3_EEEEEC1B8ue170006ILb1EvEEv, symObjAddr: 0x8F5C, symBinAddr: 0x100009EDC, symSize: 0x2C }
  - { offsetInCU: 0x69B43, offset: 0x69B43, size: 0x8, addend: 0x0, symName: __ZNSt3__117__compressed_pairImNS_19__map_value_compareINS_12basic_stringIcNS_11char_traitsIcEENS_9allocatorIcEEEENS_12__value_typeIS7_S7_EENS_4lessIS7_EELb1EEEEC1B8ue170006IiRKSC_EEOT_OT0_, symObjAddr: 0x8F88, symBinAddr: 0x100009F08, symSize: 0x3C }
  - { offsetInCU: 0x69B9B, offset: 0x69B9B, size: 0x8, addend: 0x0, symName: __ZNSt3__16__treeINS_12__value_typeINS_12basic_stringIcNS_11char_traitsIcEENS_9allocatorIcEEEES7_EENS_19__map_value_compareIS7_S8_NS_4lessIS7_EELb1EEENS5_IS8_EEE10__end_nodeB8ue170006Ev, symObjAddr: 0x8FC4, symBinAddr: 0x100009F44, symSize: 0x2C }
  - { offsetInCU: 0x69BC1, offset: 0x69BC1, size: 0x8, addend: 0x0, symName: __ZNSt3__16__treeINS_12__value_typeINS_12basic_stringIcNS_11char_traitsIcEENS_9allocatorIcEEEES7_EENS_19__map_value_compareIS7_S8_NS_4lessIS7_EELb1EEENS5_IS8_EEE12__begin_nodeB8ue170006Ev, symObjAddr: 0x8FF0, symBinAddr: 0x100009F70, symSize: 0x14 }
  - { offsetInCU: 0x69BE7, offset: 0x69BE7, size: 0x8, addend: 0x0, symName: __ZNSt3__117__compressed_pairINS_15__tree_end_nodeIPNS_16__tree_node_baseIPvEEEENS_9allocatorINS_11__tree_nodeINS_12__value_typeINS_12basic_stringIcNS_11char_traitsIcEENS7_IcEEEESE_EES3_EEEEEC2B8ue170006ILb1EvEEv, symObjAddr: 0x9004, symBinAddr: 0x100009F84, symSize: 0x34 }
  - { offsetInCU: 0x69C1C, offset: 0x69C1C, size: 0x8, addend: 0x0, symName: __ZNSt3__122__compressed_pair_elemINS_15__tree_end_nodeIPNS_16__tree_node_baseIPvEEEELi0ELb0EEC2B8ue170006ENS_16__value_init_tagE, symObjAddr: 0x9038, symBinAddr: 0x100009FB8, symSize: 0x2C }
  - { offsetInCU: 0x69C51, offset: 0x69C51, size: 0x8, addend: 0x0, symName: __ZNSt3__122__compressed_pair_elemINS_9allocatorINS_11__tree_nodeINS_12__value_typeINS_12basic_stringIcNS_11char_traitsIcEENS1_IcEEEES8_EEPvEEEELi1ELb1EEC2B8ue170006ENS_16__value_init_tagE, symObjAddr: 0x9064, symBinAddr: 0x100009FE4, symSize: 0x2C }
  - { offsetInCU: 0x69C86, offset: 0x69C86, size: 0x8, addend: 0x0, symName: __ZNSt3__115__tree_end_nodeIPNS_16__tree_node_baseIPvEEEC1B8ue170006Ev, symObjAddr: 0x9090, symBinAddr: 0x10000A010, symSize: 0x2C }
  - { offsetInCU: 0x69CB0, offset: 0x69CB0, size: 0x8, addend: 0x0, symName: __ZNSt3__115__tree_end_nodeIPNS_16__tree_node_baseIPvEEEC2B8ue170006Ev, symObjAddr: 0x90BC, symBinAddr: 0x10000A03C, symSize: 0x18 }
  - { offsetInCU: 0x69CDA, offset: 0x69CDA, size: 0x8, addend: 0x0, symName: __ZNSt3__19allocatorINS_11__tree_nodeINS_12__value_typeINS_12basic_stringIcNS_11char_traitsIcEENS0_IcEEEES7_EEPvEEEC2B8ue170006Ev, symObjAddr: 0x90D4, symBinAddr: 0x10000A054, symSize: 0x2C }
  - { offsetInCU: 0x69D04, offset: 0x69D04, size: 0x8, addend: 0x0, symName: __ZNSt3__116__non_trivial_ifILb1ENS_9allocatorINS_11__tree_nodeINS_12__value_typeINS_12basic_stringIcNS_11char_traitsIcEENS1_IcEEEES8_EEPvEEEEEC2B8ue170006Ev, symObjAddr: 0x9100, symBinAddr: 0x10000A080, symSize: 0x14 }
  - { offsetInCU: 0x69D2E, offset: 0x69D2E, size: 0x8, addend: 0x0, symName: __ZNSt3__117__compressed_pairImNS_19__map_value_compareINS_12basic_stringIcNS_11char_traitsIcEENS_9allocatorIcEEEENS_12__value_typeIS7_S7_EENS_4lessIS7_EELb1EEEEC2B8ue170006IiRKSC_EEOT_OT0_, symObjAddr: 0x9114, symBinAddr: 0x10000A094, symSize: 0x44 }
  - { offsetInCU: 0x69D86, offset: 0x69D86, size: 0x8, addend: 0x0, symName: __ZNSt3__122__compressed_pair_elemINS_19__map_value_compareINS_12basic_stringIcNS_11char_traitsIcEENS_9allocatorIcEEEENS_12__value_typeIS7_S7_EENS_4lessIS7_EELb1EEELi1ELb1EEC2B8ue170006IRKSC_vEEOT_, symObjAddr: 0x9158, symBinAddr: 0x10000A0D8, symSize: 0x18 }
  - { offsetInCU: 0x69DC8, offset: 0x69DC8, size: 0x8, addend: 0x0, symName: __ZNSt3__114pointer_traitsIPNS_15__tree_end_nodeIPNS_16__tree_node_baseIPvEEEEE10pointer_toB8ue170006ERS6_, symObjAddr: 0x9170, symBinAddr: 0x10000A0F0, symSize: 0x14 }
  - { offsetInCU: 0x69DEB, offset: 0x69DEB, size: 0x8, addend: 0x0, symName: __ZNSt3__117__compressed_pairINS_15__tree_end_nodeIPNS_16__tree_node_baseIPvEEEENS_9allocatorINS_11__tree_nodeINS_12__value_typeINS_12basic_stringIcNS_11char_traitsIcEENS7_IcEEEESE_EES3_EEEEE5firstB8ue170006Ev, symObjAddr: 0x9184, symBinAddr: 0x10000A104, symSize: 0x24 }
  - { offsetInCU: 0x69E11, offset: 0x69E11, size: 0x8, addend: 0x0, symName: __ZNSt3__122__compressed_pair_elemINS_15__tree_end_nodeIPNS_16__tree_node_baseIPvEEEELi0ELb0EE5__getB8ue170006Ev, symObjAddr: 0x91A8, symBinAddr: 0x10000A128, symSize: 0x14 }
  - { offsetInCU: 0x69E37, offset: 0x69E37, size: 0x8, addend: 0x0, symName: __ZNSt3__13mapINS_12basic_stringIcNS_11char_traitsIcEENS_9allocatorIcEEEES6_NS_4lessIS6_EENS4_INS_4pairIKS6_S6_EEEEED2B8ue170006Ev, symObjAddr: 0x91BC, symBinAddr: 0x10000A13C, symSize: 0x2C }
  - { offsetInCU: 0x69E61, offset: 0x69E61, size: 0x8, addend: 0x0, symName: __ZNSt3__16__treeINS_12__value_typeINS_12basic_stringIcNS_11char_traitsIcEENS_9allocatorIcEEEES7_EENS_19__map_value_compareIS7_S8_NS_4lessIS7_EELb1EEENS5_IS8_EEED1Ev, symObjAddr: 0x91E8, symBinAddr: 0x10000A168, symSize: 0x2C }
  - { offsetInCU: 0x69E8D, offset: 0x69E8D, size: 0x8, addend: 0x0, symName: __ZNSt3__16__treeINS_12__value_typeINS_12basic_stringIcNS_11char_traitsIcEENS_9allocatorIcEEEES7_EENS_19__map_value_compareIS7_S8_NS_4lessIS7_EELb1EEENS5_IS8_EEED2Ev, symObjAddr: 0x9214, symBinAddr: 0x10000A194, symSize: 0x38 }
  - { offsetInCU: 0x69EB9, offset: 0x69EB9, size: 0x8, addend: 0x0, symName: __ZNSt3__16__treeINS_12__value_typeINS_12basic_stringIcNS_11char_traitsIcEENS_9allocatorIcEEEES7_EENS_19__map_value_compareIS7_S8_NS_4lessIS7_EELb1EEENS5_IS8_EEE7destroyEPNS_11__tree_nodeIS8_PvEE, symObjAddr: 0x924C, symBinAddr: 0x10000A1CC, symSize: 0xAC }
  - { offsetInCU: 0x69F06, offset: 0x69F06, size: 0x8, addend: 0x0, symName: __ZNKSt3__16__treeINS_12__value_typeINS_12basic_stringIcNS_11char_traitsIcEENS_9allocatorIcEEEES7_EENS_19__map_value_compareIS7_S8_NS_4lessIS7_EELb1EEENS5_IS8_EEE6__rootB8ue170006Ev, symObjAddr: 0x92F8, symBinAddr: 0x10000A278, symSize: 0x28 }
  - { offsetInCU: 0x69F2C, offset: 0x69F2C, size: 0x8, addend: 0x0, symName: __ZNSt3__16__treeINS_12__value_typeINS_12basic_stringIcNS_11char_traitsIcEENS_9allocatorIcEEEES7_EENS_19__map_value_compareIS7_S8_NS_4lessIS7_EELb1EEENS5_IS8_EEE12__node_allocB8ue170006Ev, symObjAddr: 0x9320, symBinAddr: 0x10000A2A0, symSize: 0x28 }
  - { offsetInCU: 0x69F52, offset: 0x69F52, size: 0x8, addend: 0x0, symName: __ZNSt3__116allocator_traitsINS_9allocatorINS_11__tree_nodeINS_12__value_typeINS_12basic_stringIcNS_11char_traitsIcEENS1_IcEEEES8_EEPvEEEEE7destroyB8ue170006INS_4pairIKS8_S8_EEvvEEvRSC_PT_, symObjAddr: 0x9348, symBinAddr: 0x10000A2C8, symSize: 0x28 }
  - { offsetInCU: 0x69F8D, offset: 0x69F8D, size: 0x8, addend: 0x0, symName: __ZNSt3__122__tree_key_value_typesINS_12__value_typeINS_12basic_stringIcNS_11char_traitsIcEENS_9allocatorIcEEEES7_EEE9__get_ptrB8ue170006ERS8_, symObjAddr: 0x9370, symBinAddr: 0x10000A2F0, symSize: 0x24 }
  - { offsetInCU: 0x69FB1, offset: 0x69FB1, size: 0x8, addend: 0x0, symName: __ZNSt3__116allocator_traitsINS_9allocatorINS_11__tree_nodeINS_12__value_typeINS_12basic_stringIcNS_11char_traitsIcEENS1_IcEEEES8_EEPvEEEEE10deallocateB8ue170006ERSC_PSB_m, symObjAddr: 0x9394, symBinAddr: 0x10000A314, symSize: 0x34 }
  - { offsetInCU: 0x69FF3, offset: 0x69FF3, size: 0x8, addend: 0x0, symName: __ZNSt3__117__compressed_pairINS_15__tree_end_nodeIPNS_16__tree_node_baseIPvEEEENS_9allocatorINS_11__tree_nodeINS_12__value_typeINS_12basic_stringIcNS_11char_traitsIcEENS7_IcEEEESE_EES3_EEEEE6secondB8ue170006Ev, symObjAddr: 0x93C8, symBinAddr: 0x10000A348, symSize: 0x24 }
  - { offsetInCU: 0x6A019, offset: 0x6A019, size: 0x8, addend: 0x0, symName: __ZNSt3__122__compressed_pair_elemINS_9allocatorINS_11__tree_nodeINS_12__value_typeINS_12basic_stringIcNS_11char_traitsIcEENS1_IcEEEES8_EEPvEEEELi1ELb1EE5__getB8ue170006Ev, symObjAddr: 0x93EC, symBinAddr: 0x10000A36C, symSize: 0x14 }
  - { offsetInCU: 0x6A03F, offset: 0x6A03F, size: 0x8, addend: 0x0, symName: __ZNSt3__14pairIKNS_12basic_stringIcNS_11char_traitsIcEENS_9allocatorIcEEEES6_ED1Ev, symObjAddr: 0x9400, symBinAddr: 0x10000A380, symSize: 0x2C }
  - { offsetInCU: 0x6A06B, offset: 0x6A06B, size: 0x8, addend: 0x0, symName: __ZNSt3__14pairIKNS_12basic_stringIcNS_11char_traitsIcEENS_9allocatorIcEEEES6_ED2Ev, symObjAddr: 0x942C, symBinAddr: 0x10000A3AC, symSize: 0x38 }
  - { offsetInCU: 0x6A097, offset: 0x6A097, size: 0x8, addend: 0x0, symName: __ZNSt3__112__value_typeINS_12basic_stringIcNS_11char_traitsIcEENS_9allocatorIcEEEES6_E11__get_valueB8ue170006Ev, symObjAddr: 0x9464, symBinAddr: 0x10000A3E4, symSize: 0x24 }
  - { offsetInCU: 0x6A0BD, offset: 0x6A0BD, size: 0x8, addend: 0x0, symName: __ZNSt3__19allocatorINS_11__tree_nodeINS_12__value_typeINS_12basic_stringIcNS_11char_traitsIcEENS0_IcEEEES7_EEPvEEE10deallocateB8ue170006EPSA_m, symObjAddr: 0x94C0, symBinAddr: 0x10000A440, symSize: 0x44 }
  - { offsetInCU: 0x6A0FF, offset: 0x6A0FF, size: 0x8, addend: 0x0, symName: __ZNKSt3__16__treeINS_12__value_typeINS_12basic_stringIcNS_11char_traitsIcEENS_9allocatorIcEEEES7_EENS_19__map_value_compareIS7_S8_NS_4lessIS7_EELb1EEENS5_IS8_EEE10__end_nodeB8ue170006Ev, symObjAddr: 0x9504, symBinAddr: 0x10000A484, symSize: 0x2C }
  - { offsetInCU: 0x6A125, offset: 0x6A125, size: 0x8, addend: 0x0, symName: __ZNKSt3__117__compressed_pairINS_15__tree_end_nodeIPNS_16__tree_node_baseIPvEEEENS_9allocatorINS_11__tree_nodeINS_12__value_typeINS_12basic_stringIcNS_11char_traitsIcEENS7_IcEEEESE_EES3_EEEEE5firstB8ue170006Ev, symObjAddr: 0x9530, symBinAddr: 0x10000A4B0, symSize: 0x24 }
  - { offsetInCU: 0x6A14B, offset: 0x6A14B, size: 0x8, addend: 0x0, symName: __ZNKSt3__122__compressed_pair_elemINS_15__tree_end_nodeIPNS_16__tree_node_baseIPvEEEELi0ELb0EE5__getB8ue170006Ev, symObjAddr: 0x9554, symBinAddr: 0x10000A4D4, symSize: 0x14 }
  - { offsetInCU: 0x6A171, offset: 0x6A171, size: 0x8, addend: 0x0, symName: __ZNKSt3__16__treeINS_12__value_typeINS_12basic_stringIcNS_11char_traitsIcEENS_9allocatorIcEEEES7_EENS_19__map_value_compareIS7_S8_NS_4lessIS7_EELb1EEENS5_IS8_EEE4sizeB8ue170006Ev, symObjAddr: 0x9568, symBinAddr: 0x10000A4E8, symSize: 0x28 }
  - { offsetInCU: 0x6A197, offset: 0x6A197, size: 0x8, addend: 0x0, symName: __ZNKSt3__117__compressed_pairImNS_19__map_value_compareINS_12basic_stringIcNS_11char_traitsIcEENS_9allocatorIcEEEENS_12__value_typeIS7_S7_EENS_4lessIS7_EELb1EEEE5firstB8ue170006Ev, symObjAddr: 0x9590, symBinAddr: 0x10000A510, symSize: 0x24 }
  - { offsetInCU: 0x6A1BD, offset: 0x6A1BD, size: 0x8, addend: 0x0, symName: __ZNKSt3__122__compressed_pair_elemImLi0ELb0EE5__getB8ue170006Ev, symObjAddr: 0x95B4, symBinAddr: 0x10000A534, symSize: 0x14 }
  - { offsetInCU: 0x6A1E3, offset: 0x6A1E3, size: 0x8, addend: 0x0, symName: __ZN6spdlog7details18null_scoped_padderC2EmRKNS0_12padding_infoERN3fmt3v1019basic_memory_bufferIcLm250ENSt3__19allocatorIcEEEE, symObjAddr: 0x95C8, symBinAddr: 0x10000A548, symSize: 0x20 }
  - { offsetInCU: 0x6A22E, offset: 0x6A22E, size: 0x8, addend: 0x0, symName: __ZNKSt3__13mapINS_12basic_stringIcNS_11char_traitsIcEENS_9allocatorIcEEEES6_NS_4lessIS6_EENS4_INS_4pairIKS6_S6_EEEEE3endB8ue170006Ev, symObjAddr: 0x95E8, symBinAddr: 0x10000A568, symSize: 0x38 }
  - { offsetInCU: 0x6A254, offset: 0x6A254, size: 0x8, addend: 0x0, symName: __ZNSt3__120__map_const_iteratorINS_21__tree_const_iteratorINS_12__value_typeINS_12basic_stringIcNS_11char_traitsIcEENS_9allocatorIcEEEES8_EEPNS_11__tree_nodeIS9_PvEElEEEmmB8ue170006Ev, symObjAddr: 0x9620, symBinAddr: 0x10000A5A0, symSize: 0x2C }
  - { offsetInCU: 0x6A27A, offset: 0x6A27A, size: 0x8, addend: 0x0, symName: __ZNKSt3__13mapINS_12basic_stringIcNS_11char_traitsIcEENS_9allocatorIcEEEES6_NS_4lessIS6_EENS4_INS_4pairIKS6_S6_EEEEE5beginB8ue170006Ev, symObjAddr: 0x964C, symBinAddr: 0x10000A5CC, symSize: 0x38 }
  - { offsetInCU: 0x6A2A0, offset: 0x6A2A0, size: 0x8, addend: 0x0, symName: __ZNKSt3__120__map_const_iteratorINS_21__tree_const_iteratorINS_12__value_typeINS_12basic_stringIcNS_11char_traitsIcEENS_9allocatorIcEEEES8_EEPNS_11__tree_nodeIS9_PvEElEEEdeB8ue170006Ev, symObjAddr: 0x96B4, symBinAddr: 0x10000A634, symSize: 0x28 }
  - { offsetInCU: 0x6A2C6, offset: 0x6A2C6, size: 0x8, addend: 0x0, symName: __ZNKSt3__112basic_stringIcNS_11char_traitsIcEENS_9allocatorIcEEE4sizeB8ue170006Ev, symObjAddr: 0x96DC, symBinAddr: 0x10000A65C, symSize: 0x54 }
  - { offsetInCU: 0x6A2EC, offset: 0x6A2EC, size: 0x8, addend: 0x0, symName: __ZN3fmt3v1017basic_string_viewIcEC1INSt3__111char_traitsIcEENS4_9allocatorIcEEEERKNS4_12basic_stringIcT_T0_EE, symObjAddr: 0x97A4, symBinAddr: 0x10000A724, symSize: 0x34 }
  - { offsetInCU: 0x6A337, offset: 0x6A337, size: 0x8, addend: 0x0, symName: __ZNSt3__120__map_const_iteratorINS_21__tree_const_iteratorINS_12__value_typeINS_12basic_stringIcNS_11char_traitsIcEENS_9allocatorIcEEEES8_EEPNS_11__tree_nodeIS9_PvEElEEEppB8ue170006Ev, symObjAddr: 0x97D8, symBinAddr: 0x10000A758, symSize: 0x2C }
  - { offsetInCU: 0x6A35D, offset: 0x6A35D, size: 0x8, addend: 0x0, symName: __ZNKSt3__16__treeINS_12__value_typeINS_12basic_stringIcNS_11char_traitsIcEENS_9allocatorIcEEEES7_EENS_19__map_value_compareIS7_S8_NS_4lessIS7_EELb1EEENS5_IS8_EEE3endB8ue170006Ev, symObjAddr: 0x9804, symBinAddr: 0x10000A784, symSize: 0x34 }
  - { offsetInCU: 0x6A383, offset: 0x6A383, size: 0x8, addend: 0x0, symName: __ZNSt3__120__map_const_iteratorINS_21__tree_const_iteratorINS_12__value_typeINS_12basic_stringIcNS_11char_traitsIcEENS_9allocatorIcEEEES8_EEPNS_11__tree_nodeIS9_PvEElEEEC1B8ue170006ESE_, symObjAddr: 0x9838, symBinAddr: 0x10000A7B8, symSize: 0x34 }
  - { offsetInCU: 0x6A3BC, offset: 0x6A3BC, size: 0x8, addend: 0x0, symName: __ZNSt3__121__tree_const_iteratorINS_12__value_typeINS_12basic_stringIcNS_11char_traitsIcEENS_9allocatorIcEEEES7_EEPNS_11__tree_nodeIS8_PvEElEC1B8ue170006EPNS_15__tree_end_nodeIPNS_16__tree_node_baseISA_EEEE, symObjAddr: 0x986C, symBinAddr: 0x10000A7EC, symSize: 0x34 }
  - { offsetInCU: 0x6A3F5, offset: 0x6A3F5, size: 0x8, addend: 0x0, symName: __ZNSt3__121__tree_const_iteratorINS_12__value_typeINS_12basic_stringIcNS_11char_traitsIcEENS_9allocatorIcEEEES7_EEPNS_11__tree_nodeIS8_PvEElEC2B8ue170006EPNS_15__tree_end_nodeIPNS_16__tree_node_baseISA_EEEE, symObjAddr: 0x98A0, symBinAddr: 0x10000A820, symSize: 0x20 }
  - { offsetInCU: 0x6A42E, offset: 0x6A42E, size: 0x8, addend: 0x0, symName: __ZNSt3__120__map_const_iteratorINS_21__tree_const_iteratorINS_12__value_typeINS_12basic_stringIcNS_11char_traitsIcEENS_9allocatorIcEEEES8_EEPNS_11__tree_nodeIS9_PvEElEEEC2B8ue170006ESE_, symObjAddr: 0x98C0, symBinAddr: 0x10000A840, symSize: 0x20 }
  - { offsetInCU: 0x6A467, offset: 0x6A467, size: 0x8, addend: 0x0, symName: __ZNSt3__121__tree_const_iteratorINS_12__value_typeINS_12basic_stringIcNS_11char_traitsIcEENS_9allocatorIcEEEES7_EEPNS_11__tree_nodeIS8_PvEElEmmB8ue170006Ev, symObjAddr: 0x98E0, symBinAddr: 0x10000A860, symSize: 0x38 }
  - { offsetInCU: 0x6A48D, offset: 0x6A48D, size: 0x8, addend: 0x0, symName: __ZNKSt3__116__tree_node_baseIPvE15__parent_unsafeB8ue170006Ev, symObjAddr: 0x9A28, symBinAddr: 0x10000A9A8, symSize: 0x18 }
  - { offsetInCU: 0x6A4B3, offset: 0x6A4B3, size: 0x8, addend: 0x0, symName: __ZNKSt3__16__treeINS_12__value_typeINS_12basic_stringIcNS_11char_traitsIcEENS_9allocatorIcEEEES7_EENS_19__map_value_compareIS7_S8_NS_4lessIS7_EELb1EEENS5_IS8_EEE5beginB8ue170006Ev, symObjAddr: 0x9A40, symBinAddr: 0x10000A9C0, symSize: 0x34 }
  - { offsetInCU: 0x6A4D9, offset: 0x6A4D9, size: 0x8, addend: 0x0, symName: __ZNKSt3__16__treeINS_12__value_typeINS_12basic_stringIcNS_11char_traitsIcEENS_9allocatorIcEEEES7_EENS_19__map_value_compareIS7_S8_NS_4lessIS7_EELb1EEENS5_IS8_EEE12__begin_nodeB8ue170006Ev, symObjAddr: 0x9A74, symBinAddr: 0x10000A9F4, symSize: 0x14 }
  - { offsetInCU: 0x6A4FF, offset: 0x6A4FF, size: 0x8, addend: 0x0, symName: __ZNKSt3__121__tree_const_iteratorINS_12__value_typeINS_12basic_stringIcNS_11char_traitsIcEENS_9allocatorIcEEEES7_EEPNS_11__tree_nodeIS8_PvEElEptB8ue170006Ev, symObjAddr: 0x9AEC, symBinAddr: 0x10000AA6C, symSize: 0x2C }
  - { offsetInCU: 0x6A525, offset: 0x6A525, size: 0x8, addend: 0x0, symName: __ZNKSt3__112__value_typeINS_12basic_stringIcNS_11char_traitsIcEENS_9allocatorIcEEEES6_E11__get_valueB8ue170006Ev, symObjAddr: 0x9B18, symBinAddr: 0x10000AA98, symSize: 0x24 }
  - { offsetInCU: 0x6A54B, offset: 0x6A54B, size: 0x8, addend: 0x0, symName: __ZNSt3__114pointer_traitsIPKNS_12__value_typeINS_12basic_stringIcNS_11char_traitsIcEENS_9allocatorIcEEEES7_EEE10pointer_toB8ue170006ERS9_, symObjAddr: 0x9B3C, symBinAddr: 0x10000AABC, symSize: 0x14 }
  - { offsetInCU: 0x6A56E, offset: 0x6A56E, size: 0x8, addend: 0x0, symName: __ZNKSt3__121__tree_const_iteratorINS_12__value_typeINS_12basic_stringIcNS_11char_traitsIcEENS_9allocatorIcEEEES7_EEPNS_11__tree_nodeIS8_PvEElE8__get_npB8ue170006Ev, symObjAddr: 0x9B50, symBinAddr: 0x10000AAD0, symSize: 0x18 }
  - { offsetInCU: 0x6A594, offset: 0x6A594, size: 0x8, addend: 0x0, symName: __ZNKSt3__112basic_stringIcNS_11char_traitsIcEENS_9allocatorIcEEE15__get_long_sizeB8ue170006Ev, symObjAddr: 0x9BA0, symBinAddr: 0x10000AB20, symSize: 0x28 }
  - { offsetInCU: 0x6A5BA, offset: 0x6A5BA, size: 0x8, addend: 0x0, symName: __ZNKSt3__112basic_stringIcNS_11char_traitsIcEENS_9allocatorIcEEE16__get_short_sizeB8ue170006Ev, symObjAddr: 0x9BC8, symBinAddr: 0x10000AB48, symSize: 0x34 }
  - { offsetInCU: 0x6A5E0, offset: 0x6A5E0, size: 0x8, addend: 0x0, symName: __ZNK3fmt3v1017basic_string_viewIcE4dataEv, symObjAddr: 0x9BFC, symBinAddr: 0x10000AB7C, symSize: 0x18 }
  - { offsetInCU: 0x6A606, offset: 0x6A606, size: 0x8, addend: 0x0, symName: __ZN3fmt3v106detail6bufferIcE6appendIcEEvPKT_S7_, symObjAddr: 0x9C14, symBinAddr: 0x10000AB94, symSize: 0xF0 }
  - { offsetInCU: 0x6A682, offset: 0x6A682, size: 0x8, addend: 0x0, symName: __ZNK3fmt3v1017basic_string_viewIcE4sizeEv, symObjAddr: 0x9D04, symBinAddr: 0x10000AC84, symSize: 0x18 }
  - { offsetInCU: 0x6A6A8, offset: 0x6A6A8, size: 0x8, addend: 0x0, symName: __ZN3fmt3v106detail6bufferIcE11try_reserveEm, symObjAddr: 0x9D6C, symBinAddr: 0x10000ACEC, symSize: 0x58 }
  - { offsetInCU: 0x6A6FF, offset: 0x6A6FF, size: 0x8, addend: 0x0, symName: __ZNSt3__14pairIPKcPcEC1B8ue170006IS2_S3_LPv0EEEOT_OT0_, symObjAddr: 0x9EC8, symBinAddr: 0x10000AE48, symSize: 0x3C }
  - { offsetInCU: 0x6A75D, offset: 0x6A75D, size: 0x8, addend: 0x0, symName: __ZNSt3__14pairIPKcPcEC2B8ue170006IS2_S3_LPv0EEEOT_OT0_, symObjAddr: 0x9F04, symBinAddr: 0x10000AE84, symSize: 0x34 }
  - { offsetInCU: 0x6A7BB, offset: 0x6A7BB, size: 0x8, addend: 0x0, symName: __ZN3fmt3v1017basic_string_viewIcEC2INSt3__111char_traitsIcEENS4_9allocatorIcEEEERKNS4_12basic_stringIcT_T0_EE, symObjAddr: 0x9F38, symBinAddr: 0x10000AEB8, symSize: 0x4C }
  - { offsetInCU: 0x6A806, offset: 0x6A806, size: 0x8, addend: 0x0, symName: __ZNKSt3__112basic_stringIcNS_11char_traitsIcEENS_9allocatorIcEEE4dataB8ue170006Ev, symObjAddr: 0x9F84, symBinAddr: 0x10000AF04, symSize: 0x28 }
  - { offsetInCU: 0x6A82C, offset: 0x6A82C, size: 0x8, addend: 0x0, symName: __ZNKSt3__112basic_stringIcNS_11char_traitsIcEENS_9allocatorIcEEE13__get_pointerB8ue170006Ev, symObjAddr: 0x9FC0, symBinAddr: 0x10000AF40, symSize: 0x54 }
  - { offsetInCU: 0x6A852, offset: 0x6A852, size: 0x8, addend: 0x0, symName: __ZNKSt3__112basic_stringIcNS_11char_traitsIcEENS_9allocatorIcEEE18__get_long_pointerB8ue170006Ev, symObjAddr: 0xA014, symBinAddr: 0x10000AF94, symSize: 0x28 }
  - { offsetInCU: 0x6A878, offset: 0x6A878, size: 0x8, addend: 0x0, symName: __ZNKSt3__112basic_stringIcNS_11char_traitsIcEENS_9allocatorIcEEE19__get_short_pointerB8ue170006Ev, symObjAddr: 0xA03C, symBinAddr: 0x10000AFBC, symSize: 0x28 }
  - { offsetInCU: 0x6A89E, offset: 0x6A89E, size: 0x8, addend: 0x0, symName: __ZNSt3__114pointer_traitsIPKcE10pointer_toB8ue170006ERS1_, symObjAddr: 0xA064, symBinAddr: 0x10000AFE4, symSize: 0x14 }
  - { offsetInCU: 0x6A8C1, offset: 0x6A8C1, size: 0x8, addend: 0x0, symName: __ZNSt3__121__tree_const_iteratorINS_12__value_typeINS_12basic_stringIcNS_11char_traitsIcEENS_9allocatorIcEEEES7_EEPNS_11__tree_nodeIS8_PvEElEppB8ue170006Ev, symObjAddr: 0xA078, symBinAddr: 0x10000AFF8, symSize: 0x38 }
  - { offsetInCU: 0x6A8E7, offset: 0x6A8E7, size: 0x8, addend: 0x0, symName: __ZN3fmt3v1019basic_memory_bufferIcLm250ENSt3__19allocatorIcEEED2Ev, symObjAddr: 0xA170, symBinAddr: 0x10000B0F0, symSize: 0x34 }
  - { offsetInCU: 0x6A911, offset: 0x6A911, size: 0x8, addend: 0x0, symName: __ZN3fmt3v1019basic_memory_bufferIcLm250ENSt3__19allocatorIcEEE10deallocateEv, symObjAddr: 0xA1A4, symBinAddr: 0x10000B124, symSize: 0x78 }
  - { offsetInCU: 0x6A946, offset: 0x6A946, size: 0x8, addend: 0x0, symName: __ZN6spdlog7details14full_formatterD2Ev, symObjAddr: 0xA21C, symBinAddr: 0x10000B19C, symSize: 0x44 }
  - { offsetInCU: 0x6A973, offset: 0x6A973, size: 0x8, addend: 0x0, symName: __ZNKSt3__16chrono10time_pointINS0_12system_clockENS0_8durationIxNS_5ratioILl1ELl1000000EEEEEE16time_since_epochB8ue170006Ev, symObjAddr: 0xA260, symBinAddr: 0x10000B1E0, symSize: 0x20 }
  - { offsetInCU: 0x6A999, offset: 0x6A999, size: 0x8, addend: 0x0, symName: __ZN3fmt3v106detail6bufferIcE5clearEv, symObjAddr: 0xA2E4, symBinAddr: 0x10000B264, symSize: 0x18 }
  - { offsetInCU: 0x6A9BF, offset: 0x6A9BF, size: 0x8, addend: 0x0, symName: __ZN3fmt3v106detail6bufferIcE9push_backERKc, symObjAddr: 0xA2FC, symBinAddr: 0x10000B27C, symSize: 0x58 }
  - { offsetInCU: 0x6AB6D, offset: 0x6AB6D, size: 0x8, addend: 0x0, symName: __ZNKSt3__16chrono8durationIxNS_5ratioILl1ELl1000EEEE5countB8ue170006Ev, symObjAddr: 0xA730, symBinAddr: 0x10000B6B0, symSize: 0x18 }
  - { offsetInCU: 0x6AB93, offset: 0x6AB93, size: 0x8, addend: 0x0, symName: __ZNK6spdlog10source_loc5emptyEv, symObjAddr: 0xA768, symBinAddr: 0x10000B6E8, symSize: 0x24 }
  - { offsetInCU: 0x6ABB9, offset: 0x6ABB9, size: 0x8, addend: 0x0, symName: __ZN6spdlog7details24short_filename_formatterINS0_18null_scoped_padderEE8basenameEPKc, symObjAddr: 0xA78C, symBinAddr: 0x10000B70C, symSize: 0x64 }
  - { offsetInCU: 0x6ABFA, offset: 0x6ABFA, size: 0x8, addend: 0x0, symName: __ZNKSt3__16chrono8durationIxNS_5ratioILl1ELl1000000EEEE5countB8ue170006Ev, symObjAddr: 0xA83C, symBinAddr: 0x10000B7BC, symSize: 0x18 }
  - { offsetInCU: 0x6AC2B, offset: 0x6AC2B, size: 0x8, addend: 0x0, symName: __ZNSt3__16chrono8durationIxNS_5ratioILl1ELl1EEEEC1B8ue170006IxEERKT_PNS_9enable_ifIXaasr14is_convertibleIS8_xEE5valueooL_ZNS_17integral_constantIbLb0EE5valueEEntsr23treat_as_floating_pointIS6_EE5valueEvE4typeE, symObjAddr: 0xA854, symBinAddr: 0x10000B7D4, symSize: 0x3C }
  - { offsetInCU: 0x6AC78, offset: 0x6AC78, size: 0x8, addend: 0x0, symName: __ZNSt3__16chrono8durationIxNS_5ratioILl1ELl1EEEEC2B8ue170006IxEERKT_PNS_9enable_ifIXaasr14is_convertibleIS8_xEE5valueooL_ZNS_17integral_constantIbLb0EE5valueEEntsr23treat_as_floating_pointIS6_EE5valueEvE4typeE, symObjAddr: 0xA890, symBinAddr: 0x10000B810, symSize: 0x28 }
  - { offsetInCU: 0x6ACCF, offset: 0x6ACCF, size: 0x8, addend: 0x0, symName: __ZNKSt3__16chrono13__duration_eqINS0_8durationIxNS_5ratioILl1ELl1EEEEES5_EclB8ue170006ERKS5_S8_, symObjAddr: 0xA8EC, symBinAddr: 0x10000B86C, symSize: 0x4C }
  - { offsetInCU: 0x6AD13, offset: 0x6AD13, size: 0x8, addend: 0x0, symName: __ZNKSt3__16chrono8durationIxNS_5ratioILl1ELl1EEEE5countB8ue170006Ev, symObjAddr: 0xA938, symBinAddr: 0x10000B8B8, symSize: 0x18 }
  - { offsetInCU: 0x6AD39, offset: 0x6AD39, size: 0x8, addend: 0x0, symName: __ZN3fmt3v1010format_intC1Ei, symObjAddr: 0xA950, symBinAddr: 0x10000B8D0, symSize: 0x34 }
  - { offsetInCU: 0x6AD72, offset: 0x6AD72, size: 0x8, addend: 0x0, symName: __ZNK3fmt3v1010format_int4dataEv, symObjAddr: 0xA984, symBinAddr: 0x10000B904, symSize: 0x18 }
  - { offsetInCU: 0x6AD98, offset: 0x6AD98, size: 0x8, addend: 0x0, symName: __ZNK3fmt3v1010format_int4sizeEv, symObjAddr: 0xA99C, symBinAddr: 0x10000B91C, symSize: 0x34 }
  - { offsetInCU: 0x6ADBE, offset: 0x6ADBE, size: 0x8, addend: 0x0, symName: __ZN3fmt3v1010format_intC2Ei, symObjAddr: 0xA9D0, symBinAddr: 0x10000B950, symSize: 0x3C }
  - { offsetInCU: 0x6ADF7, offset: 0x6ADF7, size: 0x8, addend: 0x0, symName: __ZN3fmt3v1010format_int13format_signedIiEEPcT_, symObjAddr: 0xAA0C, symBinAddr: 0x10000B98C, symSize: 0xA4 }
  - { offsetInCU: 0x6AE62, offset: 0x6AE62, size: 0x8, addend: 0x0, symName: __ZN3fmt3v1010format_int15format_unsignedIjEEPcT_, symObjAddr: 0xAAB0, symBinAddr: 0x10000BA30, symSize: 0x44 }
  - { offsetInCU: 0x6AEB9, offset: 0x6AEB9, size: 0x8, addend: 0x0, symName: __ZZN6spdlog7details10fmt_helper4pad2EiRN3fmt3v1019basic_memory_bufferIcLm250ENSt3__19allocatorIcEEEEENKUlvE_clEv, symObjAddr: 0xAD1C, symBinAddr: 0x10000BC9C, symSize: 0x10 }
  - { offsetInCU: 0x6B090, offset: 0x6B090, size: 0x8, addend: 0x0, symName: __ZZN3fmt3v106detail13get_containerINS0_19basic_memory_bufferIcLm250ENSt3__19allocatorIcEEEEEERT_NS4_20back_insert_iteratorIS8_EEEN8accessorC1ENSA_IS7_EE, symObjAddr: 0xAF20, symBinAddr: 0x10000BEA0, symSize: 0x34 }
  - { offsetInCU: 0x6B0C9, offset: 0x6B0C9, size: 0x8, addend: 0x0, symName: __ZZN3fmt3v106detail13get_containerINS0_19basic_memory_bufferIcLm250ENSt3__19allocatorIcEEEEEERT_NS4_20back_insert_iteratorIS8_EEEN8accessorC2ENSA_IS7_EE, symObjAddr: 0xAF54, symBinAddr: 0x10000BED4, symSize: 0x20 }
  - { offsetInCU: 0x6B102, offset: 0x6B102, size: 0x8, addend: 0x0, symName: __ZNSt3__120back_insert_iteratorIN3fmt3v1019basic_memory_bufferIcLm250ENS_9allocatorIcEEEEEC1B8ue170006ERS6_, symObjAddr: 0xAF74, symBinAddr: 0x10000BEF4, symSize: 0x34 }
  - { offsetInCU: 0x6B13A, offset: 0x6B13A, size: 0x8, addend: 0x0, symName: __ZNSt3__120back_insert_iteratorIN3fmt3v1019basic_memory_bufferIcLm250ENS_9allocatorIcEEEEEC2B8ue170006ERS6_, symObjAddr: 0xAFA8, symBinAddr: 0x10000BF28, symSize: 0x20 }
  - { offsetInCU: 0x6B172, offset: 0x6B172, size: 0x8, addend: 0x0, symName: __ZZZN6spdlog7details10fmt_helper4pad2EiRN3fmt3v1019basic_memory_bufferIcLm250ENSt3__19allocatorIcEEEEENKUlvE_clEvENK18FMT_COMPILE_STRINGcvNS3_17basic_string_viewIcEEEv, symObjAddr: 0xAFC8, symBinAddr: 0x10000BF48, symSize: 0x38 }
  - { offsetInCU: 0x6B19C, offset: 0x6B19C, size: 0x8, addend: 0x0, symName: __ZNSt3__111char_traitsIcE11to_int_typeB8ue170006Ec, symObjAddr: 0xB09C, symBinAddr: 0x10000C01C, symSize: 0x14 }
  - { offsetInCU: 0x6B1C0, offset: 0x6B1C0, size: 0x8, addend: 0x0, symName: __ZN3fmt3v1017basic_string_viewIcEC1EPKcm, symObjAddr: 0xB0B0, symBinAddr: 0x10000C030, symSize: 0x3C }
  - { offsetInCU: 0x6B208, offset: 0x6B208, size: 0x8, addend: 0x0, symName: __ZN3fmt3v1017basic_string_viewIcEC2EPKcm, symObjAddr: 0xB0EC, symBinAddr: 0x10000C06C, symSize: 0x2C }
  - { offsetInCU: 0x6B250, offset: 0x6B250, size: 0x8, addend: 0x0, symName: __ZNSt3__16chrono8durationIxNS_5ratioILl1ELl1000EEEEC1B8ue170006IxEERKT_PNS_9enable_ifIXaasr14is_convertibleIS8_xEE5valueooL_ZNS_17integral_constantIbLb0EE5valueEEntsr23treat_as_floating_pointIS6_EE5valueEvE4typeE, symObjAddr: 0xB1E8, symBinAddr: 0x10000C168, symSize: 0x3C }
  - { offsetInCU: 0x6B29D, offset: 0x6B29D, size: 0x8, addend: 0x0, symName: __ZNSt3__16chrono8durationIxNS_5ratioILl1ELl1000EEEEC2B8ue170006IxEERKT_PNS_9enable_ifIXaasr14is_convertibleIS8_xEE5valueooL_ZNS_17integral_constantIbLb0EE5valueEEntsr23treat_as_floating_pointIS6_EE5valueEvE4typeE, symObjAddr: 0xB224, symBinAddr: 0x10000C1A4, symSize: 0x28 }
  - { offsetInCU: 0x6B2EA, offset: 0x6B2EA, size: 0x8, addend: 0x0, symName: __ZN3fmt3v1010format_intC1Ej, symObjAddr: 0xB388, symBinAddr: 0x10000C308, symSize: 0x34 }
  - { offsetInCU: 0x6B323, offset: 0x6B323, size: 0x8, addend: 0x0, symName: __ZN3fmt3v1010format_intC2Ej, symObjAddr: 0xB3BC, symBinAddr: 0x10000C33C, symSize: 0x3C }
  - { offsetInCU: 0x6B35B, offset: 0x6B35B, size: 0x8, addend: 0x0, symName: __Z7strrchrB8ue170006Ua9enable_ifIXLb1EEEPKci, symObjAddr: 0xB3F8, symBinAddr: 0x10000C378, symSize: 0x2C }
  - { offsetInCU: 0x6B396, offset: 0x6B396, size: 0x8, addend: 0x0, symName: __ZNSt3__110unique_ptrIN6spdlog7details14full_formatterENS_14default_deleteIS3_EEEC2B8ue170006ILb1EvEEPS3_, symObjAddr: 0xB424, symBinAddr: 0x10000C3A4, symSize: 0x44 }
  - { offsetInCU: 0x6B3D9, offset: 0x6B3D9, size: 0x8, addend: 0x0, symName: __ZNSt3__117__compressed_pairIPN6spdlog7details14full_formatterENS_14default_deleteIS3_EEEC1B8ue170006IRS4_NS_16__value_init_tagEEEOT_OT0_, symObjAddr: 0xB468, symBinAddr: 0x10000C3E8, symSize: 0x3C }
  - { offsetInCU: 0x6B431, offset: 0x6B431, size: 0x8, addend: 0x0, symName: __ZNSt3__117__compressed_pairIPN6spdlog7details14full_formatterENS_14default_deleteIS3_EEEC2B8ue170006IRS4_NS_16__value_init_tagEEEOT_OT0_, symObjAddr: 0xB4A4, symBinAddr: 0x10000C424, symSize: 0x40 }
  - { offsetInCU: 0x6B489, offset: 0x6B489, size: 0x8, addend: 0x0, symName: __ZNSt3__122__compressed_pair_elemIPN6spdlog7details14full_formatterELi0ELb0EEC2B8ue170006IRS4_vEEOT_, symObjAddr: 0xB4E4, symBinAddr: 0x10000C464, symSize: 0x24 }
  - { offsetInCU: 0x6B4CB, offset: 0x6B4CB, size: 0x8, addend: 0x0, symName: __ZNSt3__122__compressed_pair_elemINS_14default_deleteIN6spdlog7details14full_formatterEEELi1ELb1EEC2B8ue170006ENS_16__value_init_tagE, symObjAddr: 0xB508, symBinAddr: 0x10000C488, symSize: 0x14 }
  - { offsetInCU: 0x6B500, offset: 0x6B500, size: 0x8, addend: 0x0, symName: __ZN6spdlog7details12padding_infoC2Ev, symObjAddr: 0xB51C, symBinAddr: 0x10000C49C, symSize: 0x24 }
  - { offsetInCU: 0x6B52A, offset: 0x6B52A, size: 0x8, addend: 0x0, symName: __ZNSt3__110unique_ptrIN6spdlog7details14flag_formatterENS_14default_deleteIS3_EEEC2B8ue170006INS2_14full_formatterENS4_IS8_EEvvEEONS0_IT_T0_EE, symObjAddr: 0xB540, symBinAddr: 0x10000C4C0, symSize: 0x60 }
  - { offsetInCU: 0x6B576, offset: 0x6B576, size: 0x8, addend: 0x0, symName: __ZNSt3__110unique_ptrIN6spdlog7details14full_formatterENS_14default_deleteIS3_EEE7releaseB8ue170006Ev, symObjAddr: 0xB5A0, symBinAddr: 0x10000C520, symSize: 0x44 }
  - { offsetInCU: 0x6B5AB, offset: 0x6B5AB, size: 0x8, addend: 0x0, symName: __ZNSt3__110unique_ptrIN6spdlog7details14full_formatterENS_14default_deleteIS3_EEE11get_deleterB8ue170006Ev, symObjAddr: 0xB5E4, symBinAddr: 0x10000C564, symSize: 0x24 }
  - { offsetInCU: 0x6B5DD, offset: 0x6B5DD, size: 0x8, addend: 0x0, symName: __ZNSt3__117__compressed_pairIPN6spdlog7details14flag_formatterENS_14default_deleteIS3_EEEC1B8ue170006IPNS2_14full_formatterENS5_IS9_EEEEOT_OT0_, symObjAddr: 0xB608, symBinAddr: 0x10000C588, symSize: 0x3C }
  - { offsetInCU: 0x6B635, offset: 0x6B635, size: 0x8, addend: 0x0, symName: __ZNSt3__117__compressed_pairIPN6spdlog7details14full_formatterENS_14default_deleteIS3_EEE5firstB8ue170006Ev, symObjAddr: 0xB644, symBinAddr: 0x10000C5C4, symSize: 0x24 }
  - { offsetInCU: 0x6B65B, offset: 0x6B65B, size: 0x8, addend: 0x0, symName: __ZNSt3__122__compressed_pair_elemIPN6spdlog7details14full_formatterELi0ELb0EE5__getB8ue170006Ev, symObjAddr: 0xB668, symBinAddr: 0x10000C5E8, symSize: 0x14 }
  - { offsetInCU: 0x6B681, offset: 0x6B681, size: 0x8, addend: 0x0, symName: __ZNSt3__117__compressed_pairIPN6spdlog7details14full_formatterENS_14default_deleteIS3_EEE6secondB8ue170006Ev, symObjAddr: 0xB67C, symBinAddr: 0x10000C5FC, symSize: 0x24 }
  - { offsetInCU: 0x6B6A7, offset: 0x6B6A7, size: 0x8, addend: 0x0, symName: __ZNSt3__122__compressed_pair_elemINS_14default_deleteIN6spdlog7details14full_formatterEEELi1ELb1EE5__getB8ue170006Ev, symObjAddr: 0xB6A0, symBinAddr: 0x10000C620, symSize: 0x14 }
  - { offsetInCU: 0x6B6CD, offset: 0x6B6CD, size: 0x8, addend: 0x0, symName: __ZNSt3__117__compressed_pairIPN6spdlog7details14flag_formatterENS_14default_deleteIS3_EEEC2B8ue170006IPNS2_14full_formatterENS5_IS9_EEEEOT_OT0_, symObjAddr: 0xB6B4, symBinAddr: 0x10000C634, symSize: 0x44 }
  - { offsetInCU: 0x6B725, offset: 0x6B725, size: 0x8, addend: 0x0, symName: __ZNSt3__122__compressed_pair_elemIPN6spdlog7details14flag_formatterELi0ELb0EEC2B8ue170006IPNS2_14full_formatterEvEEOT_, symObjAddr: 0xB6F8, symBinAddr: 0x10000C678, symSize: 0x24 }
  - { offsetInCU: 0x6B767, offset: 0x6B767, size: 0x8, addend: 0x0, symName: __ZNSt3__122__compressed_pair_elemINS_14default_deleteIN6spdlog7details14flag_formatterEEELi1ELb1EEC2B8ue170006INS1_INS3_14full_formatterEEEvEEOT_, symObjAddr: 0xB71C, symBinAddr: 0x10000C69C, symSize: 0x38 }
  - { offsetInCU: 0x6B7A9, offset: 0x6B7A9, size: 0x8, addend: 0x0, symName: __ZNSt3__114default_deleteIN6spdlog7details14flag_formatterEEC2B8ue170006INS2_14full_formatterEEERKNS0_IT_EEPNS_9enable_ifIXsr14is_convertibleIPS7_PS3_EE5valueEvE4typeE, symObjAddr: 0xB754, symBinAddr: 0x10000C6D4, symSize: 0x1C }
  - { offsetInCU: 0x6B7F2, offset: 0x6B7F2, size: 0x8, addend: 0x0, symName: __ZNSt3__110unique_ptrIN6spdlog7details14flag_formatterENS_14default_deleteIS3_EEED2B8ue170006Ev, symObjAddr: 0xB770, symBinAddr: 0x10000C6F0, symSize: 0x30 }
  - { offsetInCU: 0x6B81C, offset: 0x6B81C, size: 0x8, addend: 0x0, symName: __ZNSt3__110unique_ptrIN6spdlog7details14flag_formatterENS_14default_deleteIS3_EEE5resetB8ue170006EPS3_, symObjAddr: 0xB7A0, symBinAddr: 0x10000C720, symSize: 0x78 }
  - { offsetInCU: 0x6B860, offset: 0x6B860, size: 0x8, addend: 0x0, symName: __ZNKSt3__114default_deleteIN6spdlog7details14flag_formatterEEclB8ue170006EPS3_, symObjAddr: 0xB818, symBinAddr: 0x10000C798, symSize: 0x4C }
  - { offsetInCU: 0x6B894, offset: 0x6B894, size: 0x8, addend: 0x0, symName: __ZNSt3__110unique_ptrIN6spdlog7details14full_formatterENS_14default_deleteIS3_EEED2B8ue170006Ev, symObjAddr: 0xB864, symBinAddr: 0x10000C7E4, symSize: 0x30 }
  - { offsetInCU: 0x6B8BE, offset: 0x6B8BE, size: 0x8, addend: 0x0, symName: __ZNSt3__110unique_ptrIN6spdlog7details14full_formatterENS_14default_deleteIS3_EEE5resetB8ue170006EPS3_, symObjAddr: 0xB894, symBinAddr: 0x10000C814, symSize: 0x78 }
  - { offsetInCU: 0x6B902, offset: 0x6B902, size: 0x8, addend: 0x0, symName: __ZNKSt3__114default_deleteIN6spdlog7details14full_formatterEEclB8ue170006EPS3_, symObjAddr: 0xB90C, symBinAddr: 0x10000C88C, symSize: 0x4C }
  - { offsetInCU: 0x6B936, offset: 0x6B936, size: 0x8, addend: 0x0, symName: __ZNSt3__113unordered_mapIcNS_10unique_ptrIN6spdlog21custom_flag_formatterENS_14default_deleteIS3_EEEENS_4hashIcEENS_8equal_toIcEENS_9allocatorINS_4pairIKcS6_EEEEED2B8ue170006Ev, symObjAddr: 0xB958, symBinAddr: 0x10000C8D8, symSize: 0x2C }
  - { offsetInCU: 0x6B960, offset: 0x6B960, size: 0x8, addend: 0x0, symName: __ZNSt3__112__hash_tableINS_17__hash_value_typeIcNS_10unique_ptrIN6spdlog21custom_flag_formatterENS_14default_deleteIS4_EEEEEENS_22__unordered_map_hasherIcS8_NS_4hashIcEENS_8equal_toIcEELb1EEENS_21__unordered_map_equalIcS8_SD_SB_Lb1EEENS_9allocatorIS8_EEED1Ev, symObjAddr: 0xB984, symBinAddr: 0x10000C904, symSize: 0x2C }
  - { offsetInCU: 0x6B98C, offset: 0x6B98C, size: 0x8, addend: 0x0, symName: __ZNSt3__112__hash_tableINS_17__hash_value_typeIcNS_10unique_ptrIN6spdlog21custom_flag_formatterENS_14default_deleteIS4_EEEEEENS_22__unordered_map_hasherIcS8_NS_4hashIcEENS_8equal_toIcEELb1EEENS_21__unordered_map_equalIcS8_SD_SB_Lb1EEENS_9allocatorIS8_EEED2Ev, symObjAddr: 0xB9B0, symBinAddr: 0x10000C930, symSize: 0x48 }
  - { offsetInCU: 0x6B9B8, offset: 0x6B9B8, size: 0x8, addend: 0x0, symName: __ZNSt3__112__hash_tableINS_17__hash_value_typeIcNS_10unique_ptrIN6spdlog21custom_flag_formatterENS_14default_deleteIS4_EEEEEENS_22__unordered_map_hasherIcS8_NS_4hashIcEENS_8equal_toIcEELb1EEENS_21__unordered_map_equalIcS8_SD_SB_Lb1EEENS_9allocatorIS8_EEE17__deallocate_nodeEPNS_16__hash_node_baseIPNS_11__hash_nodeIS8_PvEEEE, symObjAddr: 0xB9F8, symBinAddr: 0x10000C978, symSize: 0xA8 }
  - { offsetInCU: 0x6BA23, offset: 0x6BA23, size: 0x8, addend: 0x0, symName: __ZNSt3__117__compressed_pairINS_16__hash_node_baseIPNS_11__hash_nodeINS_17__hash_value_typeIcNS_10unique_ptrIN6spdlog21custom_flag_formatterENS_14default_deleteIS6_EEEEEEPvEEEENS_9allocatorISC_EEE5firstB8ue170006Ev, symObjAddr: 0xBAA0, symBinAddr: 0x10000CA20, symSize: 0x24 }
  - { offsetInCU: 0x6BA49, offset: 0x6BA49, size: 0x8, addend: 0x0, symName: __ZNSt3__110unique_ptrIA_PNS_16__hash_node_baseIPNS_11__hash_nodeINS_17__hash_value_typeIcNS0_IN6spdlog21custom_flag_formatterENS_14default_deleteIS5_EEEEEEPvEEEENS_25__bucket_list_deallocatorINS_9allocatorISE_EEEEED1B8ue170006Ev, symObjAddr: 0xBAC4, symBinAddr: 0x10000CA44, symSize: 0x2C }
  - { offsetInCU: 0x6BA73, offset: 0x6BA73, size: 0x8, addend: 0x0, symName: __ZNSt3__112__hash_tableINS_17__hash_value_typeIcNS_10unique_ptrIN6spdlog21custom_flag_formatterENS_14default_deleteIS4_EEEEEENS_22__unordered_map_hasherIcS8_NS_4hashIcEENS_8equal_toIcEELb1EEENS_21__unordered_map_equalIcS8_SD_SB_Lb1EEENS_9allocatorIS8_EEE12__node_allocB8ue170006Ev, symObjAddr: 0xBAF0, symBinAddr: 0x10000CA70, symSize: 0x28 }
  - { offsetInCU: 0x6BA99, offset: 0x6BA99, size: 0x8, addend: 0x0, symName: __ZNSt3__116__hash_node_baseIPNS_11__hash_nodeINS_17__hash_value_typeIcNS_10unique_ptrIN6spdlog21custom_flag_formatterENS_14default_deleteIS5_EEEEEEPvEEE8__upcastB8ue170006Ev, symObjAddr: 0xBB18, symBinAddr: 0x10000CA98, symSize: 0x24 }
  - { offsetInCU: 0x6BABF, offset: 0x6BABF, size: 0x8, addend: 0x0, symName: __ZNSt3__116allocator_traitsINS_9allocatorINS_11__hash_nodeINS_17__hash_value_typeIcNS_10unique_ptrIN6spdlog21custom_flag_formatterENS_14default_deleteIS6_EEEEEEPvEEEEE7destroyB8ue170006INS_4pairIKcS9_EEvvEEvRSD_PT_, symObjAddr: 0xBB3C, symBinAddr: 0x10000CABC, symSize: 0x28 }
  - { offsetInCU: 0x6BAFA, offset: 0x6BAFA, size: 0x8, addend: 0x0, symName: __ZNSt3__122__hash_key_value_typesINS_17__hash_value_typeIcNS_10unique_ptrIN6spdlog21custom_flag_formatterENS_14default_deleteIS4_EEEEEEE9__get_ptrB8ue170006ERS8_, symObjAddr: 0xBB64, symBinAddr: 0x10000CAE4, symSize: 0x24 }
  - { offsetInCU: 0x6BB1D, offset: 0x6BB1D, size: 0x8, addend: 0x0, symName: __ZNSt3__116allocator_traitsINS_9allocatorINS_11__hash_nodeINS_17__hash_value_typeIcNS_10unique_ptrIN6spdlog21custom_flag_formatterENS_14default_deleteIS6_EEEEEEPvEEEEE10deallocateB8ue170006ERSD_PSC_m, symObjAddr: 0xBB88, symBinAddr: 0x10000CB08, symSize: 0x34 }
  - { offsetInCU: 0x6BB5F, offset: 0x6BB5F, size: 0x8, addend: 0x0, symName: __ZNSt3__117__compressed_pairINS_16__hash_node_baseIPNS_11__hash_nodeINS_17__hash_value_typeIcNS_10unique_ptrIN6spdlog21custom_flag_formatterENS_14default_deleteIS6_EEEEEEPvEEEENS_9allocatorISC_EEE6secondB8ue170006Ev, symObjAddr: 0xBBBC, symBinAddr: 0x10000CB3C, symSize: 0x24 }
  - { offsetInCU: 0x6BB85, offset: 0x6BB85, size: 0x8, addend: 0x0, symName: __ZNSt3__122__compressed_pair_elemINS_9allocatorINS_11__hash_nodeINS_17__hash_value_typeIcNS_10unique_ptrIN6spdlog21custom_flag_formatterENS_14default_deleteIS6_EEEEEEPvEEEELi1ELb1EE5__getB8ue170006Ev, symObjAddr: 0xBBE0, symBinAddr: 0x10000CB60, symSize: 0x14 }
  - { offsetInCU: 0x6BBAB, offset: 0x6BBAB, size: 0x8, addend: 0x0, symName: __ZNSt3__114pointer_traitsIPNS_16__hash_node_baseIPNS_11__hash_nodeINS_17__hash_value_typeIcNS_10unique_ptrIN6spdlog21custom_flag_formatterENS_14default_deleteIS6_EEEEEEPvEEEEE10pointer_toB8ue170006ERSE_, symObjAddr: 0xBBF4, symBinAddr: 0x10000CB74, symSize: 0x14 }
  - { offsetInCU: 0x6BBCE, offset: 0x6BBCE, size: 0x8, addend: 0x0, symName: __ZNSt3__14pairIKcNS_10unique_ptrIN6spdlog21custom_flag_formatterENS_14default_deleteIS4_EEEEED1Ev, symObjAddr: 0xBC08, symBinAddr: 0x10000CB88, symSize: 0x2C }
  - { offsetInCU: 0x6BBFA, offset: 0x6BBFA, size: 0x8, addend: 0x0, symName: __ZNSt3__14pairIKcNS_10unique_ptrIN6spdlog21custom_flag_formatterENS_14default_deleteIS4_EEEEED2Ev, symObjAddr: 0xBC34, symBinAddr: 0x10000CBB4, symSize: 0x30 }
  - { offsetInCU: 0x6BC26, offset: 0x6BC26, size: 0x8, addend: 0x0, symName: __ZNSt3__110unique_ptrIN6spdlog21custom_flag_formatterENS_14default_deleteIS2_EEED1B8ue170006Ev, symObjAddr: 0xBC64, symBinAddr: 0x10000CBE4, symSize: 0x2C }
  - { offsetInCU: 0x6BC50, offset: 0x6BC50, size: 0x8, addend: 0x0, symName: __ZNSt3__110unique_ptrIN6spdlog21custom_flag_formatterENS_14default_deleteIS2_EEED2B8ue170006Ev, symObjAddr: 0xBC90, symBinAddr: 0x10000CC10, symSize: 0x30 }
  - { offsetInCU: 0x6BC7A, offset: 0x6BC7A, size: 0x8, addend: 0x0, symName: __ZNSt3__110unique_ptrIN6spdlog21custom_flag_formatterENS_14default_deleteIS2_EEE5resetB8ue170006EPS2_, symObjAddr: 0xBCC0, symBinAddr: 0x10000CC40, symSize: 0x78 }
  - { offsetInCU: 0x6BCBE, offset: 0x6BCBE, size: 0x8, addend: 0x0, symName: __ZNSt3__117__compressed_pairIPN6spdlog21custom_flag_formatterENS_14default_deleteIS2_EEE5firstB8ue170006Ev, symObjAddr: 0xBD38, symBinAddr: 0x10000CCB8, symSize: 0x24 }
  - { offsetInCU: 0x6BCE4, offset: 0x6BCE4, size: 0x8, addend: 0x0, symName: __ZNSt3__117__compressed_pairIPN6spdlog21custom_flag_formatterENS_14default_deleteIS2_EEE6secondB8ue170006Ev, symObjAddr: 0xBD5C, symBinAddr: 0x10000CCDC, symSize: 0x24 }
  - { offsetInCU: 0x6BD0A, offset: 0x6BD0A, size: 0x8, addend: 0x0, symName: __ZNKSt3__114default_deleteIN6spdlog21custom_flag_formatterEEclB8ue170006EPS2_, symObjAddr: 0xBD80, symBinAddr: 0x10000CD00, symSize: 0x4C }
  - { offsetInCU: 0x6BD3E, offset: 0x6BD3E, size: 0x8, addend: 0x0, symName: __ZNSt3__122__compressed_pair_elemIPN6spdlog21custom_flag_formatterELi0ELb0EE5__getB8ue170006Ev, symObjAddr: 0xBDCC, symBinAddr: 0x10000CD4C, symSize: 0x14 }
  - { offsetInCU: 0x6BD64, offset: 0x6BD64, size: 0x8, addend: 0x0, symName: __ZNSt3__122__compressed_pair_elemINS_14default_deleteIN6spdlog21custom_flag_formatterEEELi1ELb1EE5__getB8ue170006Ev, symObjAddr: 0xBDE0, symBinAddr: 0x10000CD60, symSize: 0x14 }
  - { offsetInCU: 0x6BD8A, offset: 0x6BD8A, size: 0x8, addend: 0x0, symName: __ZNSt3__117__hash_value_typeIcNS_10unique_ptrIN6spdlog21custom_flag_formatterENS_14default_deleteIS3_EEEEE11__get_valueB8ue170006Ev, symObjAddr: 0xBDF4, symBinAddr: 0x10000CD74, symSize: 0x24 }
  - { offsetInCU: 0x6BDB0, offset: 0x6BDB0, size: 0x8, addend: 0x0, symName: __ZNSt3__19allocatorINS_11__hash_nodeINS_17__hash_value_typeIcNS_10unique_ptrIN6spdlog21custom_flag_formatterENS_14default_deleteIS5_EEEEEEPvEEE10deallocateB8ue170006EPSB_m, symObjAddr: 0xBE50, symBinAddr: 0x10000CDD0, symSize: 0x40 }
  - { offsetInCU: 0x6BDF2, offset: 0x6BDF2, size: 0x8, addend: 0x0, symName: __ZNSt3__122__compressed_pair_elemINS_16__hash_node_baseIPNS_11__hash_nodeINS_17__hash_value_typeIcNS_10unique_ptrIN6spdlog21custom_flag_formatterENS_14default_deleteIS6_EEEEEEPvEEEELi0ELb0EE5__getB8ue170006Ev, symObjAddr: 0xBE90, symBinAddr: 0x10000CE10, symSize: 0x14 }
  - { offsetInCU: 0x6BE18, offset: 0x6BE18, size: 0x8, addend: 0x0, symName: __ZNSt3__110unique_ptrIA_PNS_16__hash_node_baseIPNS_11__hash_nodeINS_17__hash_value_typeIcNS0_IN6spdlog21custom_flag_formatterENS_14default_deleteIS5_EEEEEEPvEEEENS_25__bucket_list_deallocatorINS_9allocatorISE_EEEEED2B8ue170006Ev, symObjAddr: 0xBEA4, symBinAddr: 0x10000CE24, symSize: 0x30 }
  - { offsetInCU: 0x6BE42, offset: 0x6BE42, size: 0x8, addend: 0x0, symName: __ZNSt3__110unique_ptrIA_PNS_16__hash_node_baseIPNS_11__hash_nodeINS_17__hash_value_typeIcNS0_IN6spdlog21custom_flag_formatterENS_14default_deleteIS5_EEEEEEPvEEEENS_25__bucket_list_deallocatorINS_9allocatorISE_EEEEE5resetB8ue170006EDn, symObjAddr: 0xBED4, symBinAddr: 0x10000CE54, symSize: 0x6C }
  - { offsetInCU: 0x6BE83, offset: 0x6BE83, size: 0x8, addend: 0x0, symName: __ZNSt3__117__compressed_pairIPPNS_16__hash_node_baseIPNS_11__hash_nodeINS_17__hash_value_typeIcNS_10unique_ptrIN6spdlog21custom_flag_formatterENS_14default_deleteIS6_EEEEEEPvEEEENS_25__bucket_list_deallocatorINS_9allocatorISF_EEEEE5firstB8ue170006Ev, symObjAddr: 0xBF40, symBinAddr: 0x10000CEC0, symSize: 0x24 }
  - { offsetInCU: 0x6BEA9, offset: 0x6BEA9, size: 0x8, addend: 0x0, symName: __ZNSt3__117__compressed_pairIPPNS_16__hash_node_baseIPNS_11__hash_nodeINS_17__hash_value_typeIcNS_10unique_ptrIN6spdlog21custom_flag_formatterENS_14default_deleteIS6_EEEEEEPvEEEENS_25__bucket_list_deallocatorINS_9allocatorISF_EEEEE6secondB8ue170006Ev, symObjAddr: 0xBF64, symBinAddr: 0x10000CEE4, symSize: 0x28 }
  - { offsetInCU: 0x6BECF, offset: 0x6BECF, size: 0x8, addend: 0x0, symName: __ZNSt3__125__bucket_list_deallocatorINS_9allocatorIPNS_16__hash_node_baseIPNS_11__hash_nodeINS_17__hash_value_typeIcNS_10unique_ptrIN6spdlog21custom_flag_formatterENS_14default_deleteIS7_EEEEEEPvEEEEEEEclB8ue170006EPSG_, symObjAddr: 0xBF8C, symBinAddr: 0x10000CF0C, symSize: 0x58 }
  - { offsetInCU: 0x6BF04, offset: 0x6BF04, size: 0x8, addend: 0x0, symName: __ZNSt3__122__compressed_pair_elemIPPNS_16__hash_node_baseIPNS_11__hash_nodeINS_17__hash_value_typeIcNS_10unique_ptrIN6spdlog21custom_flag_formatterENS_14default_deleteIS6_EEEEEEPvEEEELi0ELb0EE5__getB8ue170006Ev, symObjAddr: 0xBFE4, symBinAddr: 0x10000CF64, symSize: 0x14 }
  - { offsetInCU: 0x6BF2A, offset: 0x6BF2A, size: 0x8, addend: 0x0, symName: __ZNSt3__122__compressed_pair_elemINS_25__bucket_list_deallocatorINS_9allocatorIPNS_16__hash_node_baseIPNS_11__hash_nodeINS_17__hash_value_typeIcNS_10unique_ptrIN6spdlog21custom_flag_formatterENS_14default_deleteIS8_EEEEEEPvEEEEEEEELi1ELb0EE5__getB8ue170006Ev, symObjAddr: 0xBFF8, symBinAddr: 0x10000CF78, symSize: 0x14 }
  - { offsetInCU: 0x6BF50, offset: 0x6BF50, size: 0x8, addend: 0x0, symName: __ZNSt3__116allocator_traitsINS_9allocatorIPNS_16__hash_node_baseIPNS_11__hash_nodeINS_17__hash_value_typeIcNS_10unique_ptrIN6spdlog21custom_flag_formatterENS_14default_deleteIS7_EEEEEEPvEEEEEEE10deallocateB8ue170006ERSH_PSG_m, symObjAddr: 0xC00C, symBinAddr: 0x10000CF8C, symSize: 0x34 }
  - { offsetInCU: 0x6BF92, offset: 0x6BF92, size: 0x8, addend: 0x0, symName: __ZNSt3__125__bucket_list_deallocatorINS_9allocatorIPNS_16__hash_node_baseIPNS_11__hash_nodeINS_17__hash_value_typeIcNS_10unique_ptrIN6spdlog21custom_flag_formatterENS_14default_deleteIS7_EEEEEEPvEEEEEEE7__allocB8ue170006Ev, symObjAddr: 0xC040, symBinAddr: 0x10000CFC0, symSize: 0x24 }
  - { offsetInCU: 0x6BFB8, offset: 0x6BFB8, size: 0x8, addend: 0x0, symName: __ZNSt3__125__bucket_list_deallocatorINS_9allocatorIPNS_16__hash_node_baseIPNS_11__hash_nodeINS_17__hash_value_typeIcNS_10unique_ptrIN6spdlog21custom_flag_formatterENS_14default_deleteIS7_EEEEEEPvEEEEEEE4sizeB8ue170006Ev, symObjAddr: 0xC064, symBinAddr: 0x10000CFE4, symSize: 0x24 }
  - { offsetInCU: 0x6BFDE, offset: 0x6BFDE, size: 0x8, addend: 0x0, symName: __ZNSt3__19allocatorIPNS_16__hash_node_baseIPNS_11__hash_nodeINS_17__hash_value_typeIcNS_10unique_ptrIN6spdlog21custom_flag_formatterENS_14default_deleteIS6_EEEEEEPvEEEEE10deallocateB8ue170006EPSF_m, symObjAddr: 0xC088, symBinAddr: 0x10000D008, symSize: 0x40 }
  - { offsetInCU: 0x6C020, offset: 0x6C020, size: 0x8, addend: 0x0, symName: __ZNSt3__117__compressed_pairImNS_9allocatorIPNS_16__hash_node_baseIPNS_11__hash_nodeINS_17__hash_value_typeIcNS_10unique_ptrIN6spdlog21custom_flag_formatterENS_14default_deleteIS7_EEEEEEPvEEEEEEE6secondB8ue170006Ev, symObjAddr: 0xC0C8, symBinAddr: 0x10000D048, symSize: 0x24 }
  - { offsetInCU: 0x6C046, offset: 0x6C046, size: 0x8, addend: 0x0, symName: __ZNSt3__122__compressed_pair_elemINS_9allocatorIPNS_16__hash_node_baseIPNS_11__hash_nodeINS_17__hash_value_typeIcNS_10unique_ptrIN6spdlog21custom_flag_formatterENS_14default_deleteIS7_EEEEEEPvEEEEEELi1ELb1EE5__getB8ue170006Ev, symObjAddr: 0xC0EC, symBinAddr: 0x10000D06C, symSize: 0x14 }
  - { offsetInCU: 0x6C06C, offset: 0x6C06C, size: 0x8, addend: 0x0, symName: __ZNSt3__117__compressed_pairImNS_9allocatorIPNS_16__hash_node_baseIPNS_11__hash_nodeINS_17__hash_value_typeIcNS_10unique_ptrIN6spdlog21custom_flag_formatterENS_14default_deleteIS7_EEEEEEPvEEEEEEE5firstB8ue170006Ev, symObjAddr: 0xC100, symBinAddr: 0x10000D080, symSize: 0x24 }
  - { offsetInCU: 0x6C092, offset: 0x6C092, size: 0x8, addend: 0x0, symName: __ZNSt3__122__compressed_pair_elemImLi0ELb0EE5__getB8ue170006Ev, symObjAddr: 0xC124, symBinAddr: 0x10000D0A4, symSize: 0x14 }
  - { offsetInCU: 0x6C0B8, offset: 0x6C0B8, size: 0x8, addend: 0x0, symName: __ZNSt3__16vectorINS_10unique_ptrIN6spdlog7details14flag_formatterENS_14default_deleteIS4_EEEENS_9allocatorIS7_EEED2B8ue170006Ev, symObjAddr: 0xC138, symBinAddr: 0x10000D0B8, symSize: 0x44 }
  - { offsetInCU: 0x6C0E2, offset: 0x6C0E2, size: 0x8, addend: 0x0, symName: __ZNSt3__16vectorINS_10unique_ptrIN6spdlog7details14flag_formatterENS_14default_deleteIS4_EEEENS_9allocatorIS7_EEE16__destroy_vectorC1B8ue170006ERSA_, symObjAddr: 0xC17C, symBinAddr: 0x10000D0FC, symSize: 0x34 }
  - { offsetInCU: 0x6C11B, offset: 0x6C11B, size: 0x8, addend: 0x0, symName: __ZNSt3__16vectorINS_10unique_ptrIN6spdlog7details14flag_formatterENS_14default_deleteIS4_EEEENS_9allocatorIS7_EEE16__destroy_vectorclB8ue170006Ev, symObjAddr: 0xC1B0, symBinAddr: 0x10000D130, symSize: 0x90 }
  - { offsetInCU: 0x6C141, offset: 0x6C141, size: 0x8, addend: 0x0, symName: __ZNSt3__16vectorINS_10unique_ptrIN6spdlog7details14flag_formatterENS_14default_deleteIS4_EEEENS_9allocatorIS7_EEE16__destroy_vectorC2B8ue170006ERSA_, symObjAddr: 0xC240, symBinAddr: 0x10000D1C0, symSize: 0x20 }
  - { offsetInCU: 0x6C17A, offset: 0x6C17A, size: 0x8, addend: 0x0, symName: __ZNSt3__16vectorINS_10unique_ptrIN6spdlog7details14flag_formatterENS_14default_deleteIS4_EEEENS_9allocatorIS7_EEE7__clearB8ue170006Ev, symObjAddr: 0xC260, symBinAddr: 0x10000D1E0, symSize: 0x28 }
  - { offsetInCU: 0x6C1A0, offset: 0x6C1A0, size: 0x8, addend: 0x0, symName: __ZNSt3__16vectorINS_10unique_ptrIN6spdlog7details14flag_formatterENS_14default_deleteIS4_EEEENS_9allocatorIS7_EEE22__base_destruct_at_endB8ue170006EPS7_, symObjAddr: 0xC288, symBinAddr: 0x10000D208, symSize: 0x8C }
  - { offsetInCU: 0x6C1E4, offset: 0x6C1E4, size: 0x8, addend: 0x0, symName: __ZN6spdlog17pattern_formatterD2Ev, symObjAddr: 0xC314, symBinAddr: 0x10000D294, symSize: 0x5C }
  - { offsetInCU: 0x6C210, offset: 0x6C210, size: 0x8, addend: 0x0, symName: __ZN6spdlog17pattern_formatter9get_time_ERKNS_7details7log_msgE, symObjAddr: 0xC370, symBinAddr: 0x10000D2F0, symSize: 0x84 }
  - { offsetInCU: 0x6C248, offset: 0x6C248, size: 0x8, addend: 0x0, symName: __ZNSt3__16vectorINS_10unique_ptrIN6spdlog7details14flag_formatterENS_14default_deleteIS4_EEEENS_9allocatorIS7_EEE5beginB8ue170006Ev, symObjAddr: 0xC3F4, symBinAddr: 0x10000D374, symSize: 0x30 }
  - { offsetInCU: 0x6C270, offset: 0x6C270, size: 0x8, addend: 0x0, symName: __ZNSt3__16vectorINS_10unique_ptrIN6spdlog7details14flag_formatterENS_14default_deleteIS4_EEEENS_9allocatorIS7_EEE3endB8ue170006Ev, symObjAddr: 0xC424, symBinAddr: 0x10000D3A4, symSize: 0x30 }
  - { offsetInCU: 0x6C298, offset: 0x6C298, size: 0x8, addend: 0x0, symName: __ZNKSt3__111__wrap_iterIPNS_10unique_ptrIN6spdlog7details14flag_formatterENS_14default_deleteIS4_EEEEEdeB8ue170006Ev, symObjAddr: 0xC488, symBinAddr: 0x10000D408, symSize: 0x18 }
  - { offsetInCU: 0x6C2BE, offset: 0x6C2BE, size: 0x8, addend: 0x0, symName: __ZNKSt3__110unique_ptrIN6spdlog7details14flag_formatterENS_14default_deleteIS3_EEEptB8ue170006Ev, symObjAddr: 0xC4A0, symBinAddr: 0x10000D420, symSize: 0x28 }
  - { offsetInCU: 0x6C2E4, offset: 0x6C2E4, size: 0x8, addend: 0x0, symName: __ZNSt3__111__wrap_iterIPNS_10unique_ptrIN6spdlog7details14flag_formatterENS_14default_deleteIS4_EEEEEppB8ue170006Ev, symObjAddr: 0xC4C8, symBinAddr: 0x10000D448, symSize: 0x20 }
  - { offsetInCU: 0x6C30A, offset: 0x6C30A, size: 0x8, addend: 0x0, symName: __ZNSt3__16vectorINS_10unique_ptrIN6spdlog7details14flag_formatterENS_14default_deleteIS4_EEEENS_9allocatorIS7_EEE11__make_iterB8ue170006EPS7_, symObjAddr: 0xC548, symBinAddr: 0x10000D4C8, symSize: 0x30 }
  - { offsetInCU: 0x6C33F, offset: 0x6C33F, size: 0x8, addend: 0x0, symName: __ZNSt3__111__wrap_iterIPNS_10unique_ptrIN6spdlog7details14flag_formatterENS_14default_deleteIS4_EEEEEC1B8ue170006ES8_, symObjAddr: 0xC578, symBinAddr: 0x10000D4F8, symSize: 0x34 }
  - { offsetInCU: 0x6C377, offset: 0x6C377, size: 0x8, addend: 0x0, symName: __ZNSt3__111__wrap_iterIPNS_10unique_ptrIN6spdlog7details14flag_formatterENS_14default_deleteIS4_EEEEEC2B8ue170006ES8_, symObjAddr: 0xC5AC, symBinAddr: 0x10000D52C, symSize: 0x20 }
  - { offsetInCU: 0x6C3AF, offset: 0x6C3AF, size: 0x8, addend: 0x0, symName: __ZNKSt3__111__wrap_iterIPNS_10unique_ptrIN6spdlog7details14flag_formatterENS_14default_deleteIS4_EEEEE4baseB8ue170006Ev, symObjAddr: 0xC614, symBinAddr: 0x10000D594, symSize: 0x18 }
  - { offsetInCU: 0x6C3D5, offset: 0x6C3D5, size: 0x8, addend: 0x0, symName: __ZNKSt3__117__compressed_pairIPN6spdlog7details14flag_formatterENS_14default_deleteIS3_EEE5firstB8ue170006Ev, symObjAddr: 0xC62C, symBinAddr: 0x10000D5AC, symSize: 0x24 }
  - { offsetInCU: 0x6C3FB, offset: 0x6C3FB, size: 0x8, addend: 0x0, symName: __ZNKSt3__122__compressed_pair_elemIPN6spdlog7details14flag_formatterELi0ELb0EE5__getB8ue170006Ev, symObjAddr: 0xC650, symBinAddr: 0x10000D5D0, symSize: 0x14 }
  - { offsetInCU: 0x6C421, offset: 0x6C421, size: 0x8, addend: 0x0, symName: __ZNKSt3__113unordered_mapIcNS_10unique_ptrIN6spdlog21custom_flag_formatterENS_14default_deleteIS3_EEEENS_4hashIcEENS_8equal_toIcEENS_9allocatorINS_4pairIKcS6_EEEEE5beginB8ue170006Ev, symObjAddr: 0xC664, symBinAddr: 0x10000D5E4, symSize: 0x38 }
  - { offsetInCU: 0x6C447, offset: 0x6C447, size: 0x8, addend: 0x0, symName: __ZNKSt3__113unordered_mapIcNS_10unique_ptrIN6spdlog21custom_flag_formatterENS_14default_deleteIS3_EEEENS_4hashIcEENS_8equal_toIcEENS_9allocatorINS_4pairIKcS6_EEEEE3endB8ue170006Ev, symObjAddr: 0xC69C, symBinAddr: 0x10000D61C, symSize: 0x38 }
  - { offsetInCU: 0x6C46D, offset: 0x6C46D, size: 0x8, addend: 0x0, symName: __ZNKSt3__125__hash_map_const_iteratorINS_21__hash_const_iteratorIPNS_11__hash_nodeINS_17__hash_value_typeIcNS_10unique_ptrIN6spdlog21custom_flag_formatterENS_14default_deleteIS6_EEEEEEPvEEEEEdeB8ue170006Ev, symObjAddr: 0xC704, symBinAddr: 0x10000D684, symSize: 0x28 }
  - { offsetInCU: 0x6C493, offset: 0x6C493, size: 0x8, addend: 0x0, symName: __ZNKSt3__110unique_ptrIN6spdlog21custom_flag_formatterENS_14default_deleteIS2_EEEptB8ue170006Ev, symObjAddr: 0xC72C, symBinAddr: 0x10000D6AC, symSize: 0x28 }
  - { offsetInCU: 0x6C4B9, offset: 0x6C4B9, size: 0x8, addend: 0x0, symName: __ZNSt3__113unordered_mapIcNS_10unique_ptrIN6spdlog21custom_flag_formatterENS_14default_deleteIS3_EEEENS_4hashIcEENS_8equal_toIcEENS_9allocatorINS_4pairIKcS6_EEEEEixERSD_, symObjAddr: 0xC754, symBinAddr: 0x10000D6D4, symSize: 0x80 }
  - { offsetInCU: 0x6C4F0, offset: 0x6C4F0, size: 0x8, addend: 0x0, symName: __ZNSt3__110unique_ptrIN6spdlog21custom_flag_formatterENS_14default_deleteIS2_EEEaSB8ue170006EOS5_, symObjAddr: 0xC7D4, symBinAddr: 0x10000D754, symSize: 0x50 }
  - { offsetInCU: 0x6C524, offset: 0x6C524, size: 0x8, addend: 0x0, symName: __ZNSt3__125__hash_map_const_iteratorINS_21__hash_const_iteratorIPNS_11__hash_nodeINS_17__hash_value_typeIcNS_10unique_ptrIN6spdlog21custom_flag_formatterENS_14default_deleteIS6_EEEEEEPvEEEEEppB8ue170006Ev, symObjAddr: 0xC824, symBinAddr: 0x10000D7A4, symSize: 0x2C }
  - { offsetInCU: 0x6C54A, offset: 0x6C54A, size: 0x8, addend: 0x0, symName: __ZNKSt3__110unique_ptrIN6spdlog17pattern_formatterENS_14default_deleteIS2_EEEptB8ue170006Ev, symObjAddr: 0xC9AC, symBinAddr: 0x10000D92C, symSize: 0x28 }
  - { offsetInCU: 0x6C570, offset: 0x6C570, size: 0x8, addend: 0x0, symName: __ZN6spdlog17pattern_formatter14need_localtimeEb, symObjAddr: 0xC9D4, symBinAddr: 0x10000D954, symSize: 0x2C }
  - { offsetInCU: 0x6C5A8, offset: 0x6C5A8, size: 0x8, addend: 0x0, symName: __ZNSt3__110unique_ptrIN6spdlog9formatterENS_14default_deleteIS2_EEEC1B8ue170006INS1_17pattern_formatterENS3_IS7_EEvvEEONS0_IT_T0_EE, symObjAddr: 0xCA00, symBinAddr: 0x10000D980, symSize: 0x34 }
  - { offsetInCU: 0x6C5F4, offset: 0x6C5F4, size: 0x8, addend: 0x0, symName: __ZNSt3__110unique_ptrIN6spdlog17pattern_formatterENS_14default_deleteIS2_EEED1B8ue170006Ev, symObjAddr: 0xCA34, symBinAddr: 0x10000D9B4, symSize: 0x2C }
  - { offsetInCU: 0x6C61E, offset: 0x6C61E, size: 0x8, addend: 0x0, symName: __ZNKSt3__112__hash_tableINS_17__hash_value_typeIcNS_10unique_ptrIN6spdlog21custom_flag_formatterENS_14default_deleteIS4_EEEEEENS_22__unordered_map_hasherIcS8_NS_4hashIcEENS_8equal_toIcEELb1EEENS_21__unordered_map_equalIcS8_SD_SB_Lb1EEENS_9allocatorIS8_EEE5beginEv, symObjAddr: 0xCA60, symBinAddr: 0x10000D9E0, symSize: 0x38 }
  - { offsetInCU: 0x6C646, offset: 0x6C646, size: 0x8, addend: 0x0, symName: __ZNSt3__125__hash_map_const_iteratorINS_21__hash_const_iteratorIPNS_11__hash_nodeINS_17__hash_value_typeIcNS_10unique_ptrIN6spdlog21custom_flag_formatterENS_14default_deleteIS6_EEEEEEPvEEEEEC1B8ue170006ESE_, symObjAddr: 0xCA98, symBinAddr: 0x10000DA18, symSize: 0x34 }
  - { offsetInCU: 0x6C67F, offset: 0x6C67F, size: 0x8, addend: 0x0, symName: __ZNKSt3__117__compressed_pairINS_16__hash_node_baseIPNS_11__hash_nodeINS_17__hash_value_typeIcNS_10unique_ptrIN6spdlog21custom_flag_formatterENS_14default_deleteIS6_EEEEEEPvEEEENS_9allocatorISC_EEE5firstB8ue170006Ev, symObjAddr: 0xCACC, symBinAddr: 0x10000DA4C, symSize: 0x24 }
  - { offsetInCU: 0x6C6A5, offset: 0x6C6A5, size: 0x8, addend: 0x0, symName: __ZNSt3__121__hash_const_iteratorIPNS_11__hash_nodeINS_17__hash_value_typeIcNS_10unique_ptrIN6spdlog21custom_flag_formatterENS_14default_deleteIS5_EEEEEEPvEEEC1B8ue170006EPNS_16__hash_node_baseISC_EE, symObjAddr: 0xCAF0, symBinAddr: 0x10000DA70, symSize: 0x34 }
  - { offsetInCU: 0x6C6DE, offset: 0x6C6DE, size: 0x8, addend: 0x0, symName: __ZNKSt3__122__compressed_pair_elemINS_16__hash_node_baseIPNS_11__hash_nodeINS_17__hash_value_typeIcNS_10unique_ptrIN6spdlog21custom_flag_formatterENS_14default_deleteIS6_EEEEEEPvEEEELi0ELb0EE5__getB8ue170006Ev, symObjAddr: 0xCB24, symBinAddr: 0x10000DAA4, symSize: 0x14 }
  - { offsetInCU: 0x6C704, offset: 0x6C704, size: 0x8, addend: 0x0, symName: __ZNSt3__121__hash_const_iteratorIPNS_11__hash_nodeINS_17__hash_value_typeIcNS_10unique_ptrIN6spdlog21custom_flag_formatterENS_14default_deleteIS5_EEEEEEPvEEEC2B8ue170006EPNS_16__hash_node_baseISC_EE, symObjAddr: 0xCB38, symBinAddr: 0x10000DAB8, symSize: 0x20 }
  - { offsetInCU: 0x6C73D, offset: 0x6C73D, size: 0x8, addend: 0x0, symName: __ZNSt3__125__hash_map_const_iteratorINS_21__hash_const_iteratorIPNS_11__hash_nodeINS_17__hash_value_typeIcNS_10unique_ptrIN6spdlog21custom_flag_formatterENS_14default_deleteIS6_EEEEEEPvEEEEEC2B8ue170006ESE_, symObjAddr: 0xCB58, symBinAddr: 0x10000DAD8, symSize: 0x20 }
  - { offsetInCU: 0x6C776, offset: 0x6C776, size: 0x8, addend: 0x0, symName: __ZNKSt3__112__hash_tableINS_17__hash_value_typeIcNS_10unique_ptrIN6spdlog21custom_flag_formatterENS_14default_deleteIS4_EEEEEENS_22__unordered_map_hasherIcS8_NS_4hashIcEENS_8equal_toIcEELb1EEENS_21__unordered_map_equalIcS8_SD_SB_Lb1EEENS_9allocatorIS8_EEE3endEv, symObjAddr: 0xCB78, symBinAddr: 0x10000DAF8, symSize: 0x2C }
  - { offsetInCU: 0x6C79E, offset: 0x6C79E, size: 0x8, addend: 0x0, symName: __ZNKSt3__121__hash_const_iteratorIPNS_11__hash_nodeINS_17__hash_value_typeIcNS_10unique_ptrIN6spdlog21custom_flag_formatterENS_14default_deleteIS5_EEEEEEPvEEEptB8ue170006Ev, symObjAddr: 0xCC08, symBinAddr: 0x10000DB88, symSize: 0x30 }
  - { offsetInCU: 0x6C7C4, offset: 0x6C7C4, size: 0x8, addend: 0x0, symName: __ZNKSt3__117__hash_value_typeIcNS_10unique_ptrIN6spdlog21custom_flag_formatterENS_14default_deleteIS3_EEEEE11__get_valueB8ue170006Ev, symObjAddr: 0xCC38, symBinAddr: 0x10000DBB8, symSize: 0x24 }
  - { offsetInCU: 0x6C7EA, offset: 0x6C7EA, size: 0x8, addend: 0x0, symName: __ZNSt3__114pointer_traitsIPKNS_17__hash_value_typeIcNS_10unique_ptrIN6spdlog21custom_flag_formatterENS_14default_deleteIS4_EEEEEEE10pointer_toB8ue170006ERS9_, symObjAddr: 0xCC5C, symBinAddr: 0x10000DBDC, symSize: 0x14 }
  - { offsetInCU: 0x6C80D, offset: 0x6C80D, size: 0x8, addend: 0x0, symName: __ZNKSt3__117__compressed_pairIPN6spdlog21custom_flag_formatterENS_14default_deleteIS2_EEE5firstB8ue170006Ev, symObjAddr: 0xCCA8, symBinAddr: 0x10000DC28, symSize: 0x24 }
  - { offsetInCU: 0x6C833, offset: 0x6C833, size: 0x8, addend: 0x0, symName: __ZNKSt3__122__compressed_pair_elemIPN6spdlog21custom_flag_formatterELi0ELb0EE5__getB8ue170006Ev, symObjAddr: 0xCCCC, symBinAddr: 0x10000DC4C, symSize: 0x14 }
  - { offsetInCU: 0x6C870, offset: 0x6C870, size: 0x8, addend: 0x0, symName: __ZNSt3__112__hash_tableINS_17__hash_value_typeIcNS_10unique_ptrIN6spdlog21custom_flag_formatterENS_14default_deleteIS4_EEEEEENS_22__unordered_map_hasherIcS8_NS_4hashIcEENS_8equal_toIcEELb1EEENS_21__unordered_map_equalIcS8_SD_SB_Lb1EEENS_9allocatorIS8_EEE25__emplace_unique_key_argsIcJRKNS_21piecewise_construct_tENS_5tupleIJRKcEEENSO_IJEEEEEENS_4pairINS_15__hash_iteratorIPNS_11__hash_nodeIS8_PvEEEEbEERKT_DpOT0_, symObjAddr: 0xCCE0, symBinAddr: 0x10000DC60, symSize: 0x4E8 }
  - { offsetInCU: 0x6C97F, offset: 0x6C97F, size: 0x8, addend: 0x0, symName: __ZNKSt3__115__hash_iteratorIPNS_11__hash_nodeINS_17__hash_value_typeIcNS_10unique_ptrIN6spdlog21custom_flag_formatterENS_14default_deleteIS5_EEEEEEPvEEEptB8ue170006Ev, symObjAddr: 0xD1F8, symBinAddr: 0x10000E178, symSize: 0x30 }
  - { offsetInCU: 0x6C9A5, offset: 0x6C9A5, size: 0x8, addend: 0x0, symName: __ZNSt3__112__hash_tableINS_17__hash_value_typeIcNS_10unique_ptrIN6spdlog21custom_flag_formatterENS_14default_deleteIS4_EEEEEENS_22__unordered_map_hasherIcS8_NS_4hashIcEENS_8equal_toIcEELb1EEENS_21__unordered_map_equalIcS8_SD_SB_Lb1EEENS_9allocatorIS8_EEE13hash_functionB8ue170006Ev, symObjAddr: 0xD228, symBinAddr: 0x10000E1A8, symSize: 0x28 }
  - { offsetInCU: 0x6C9CB, offset: 0x6C9CB, size: 0x8, addend: 0x0, symName: __ZNKSt3__122__unordered_map_hasherIcNS_17__hash_value_typeIcNS_10unique_ptrIN6spdlog21custom_flag_formatterENS_14default_deleteIS4_EEEEEENS_4hashIcEENS_8equal_toIcEELb1EEclB8ue170006ERKc, symObjAddr: 0xD250, symBinAddr: 0x10000E1D0, symSize: 0x30 }
  - { offsetInCU: 0x6CA00, offset: 0x6CA00, size: 0x8, addend: 0x0, symName: __ZNKSt3__112__hash_tableINS_17__hash_value_typeIcNS_10unique_ptrIN6spdlog21custom_flag_formatterENS_14default_deleteIS4_EEEEEENS_22__unordered_map_hasherIcS8_NS_4hashIcEENS_8equal_toIcEELb1EEENS_21__unordered_map_equalIcS8_SD_SB_Lb1EEENS_9allocatorIS8_EEE12bucket_countB8ue170006Ev, symObjAddr: 0xD280, symBinAddr: 0x10000E200, symSize: 0x28 }
  - { offsetInCU: 0x6CA26, offset: 0x6CA26, size: 0x8, addend: 0x0, symName: __ZNKSt3__110unique_ptrIA_PNS_16__hash_node_baseIPNS_11__hash_nodeINS_17__hash_value_typeIcNS0_IN6spdlog21custom_flag_formatterENS_14default_deleteIS5_EEEEEEPvEEEENS_25__bucket_list_deallocatorINS_9allocatorISE_EEEEEixB8ue170006Em, symObjAddr: 0xD340, symBinAddr: 0x10000E2C0, symSize: 0x34 }
  - { offsetInCU: 0x6CA5B, offset: 0x6CA5B, size: 0x8, addend: 0x0, symName: __ZNKSt3__116__hash_node_baseIPNS_11__hash_nodeINS_17__hash_value_typeIcNS_10unique_ptrIN6spdlog21custom_flag_formatterENS_14default_deleteIS5_EEEEEEPvEEE6__hashB8ue170006Ev, symObjAddr: 0xD374, symBinAddr: 0x10000E2F4, symSize: 0x18 }
  - { offsetInCU: 0x6CA81, offset: 0x6CA81, size: 0x8, addend: 0x0, symName: __ZNSt3__112__hash_tableINS_17__hash_value_typeIcNS_10unique_ptrIN6spdlog21custom_flag_formatterENS_14default_deleteIS4_EEEEEENS_22__unordered_map_hasherIcS8_NS_4hashIcEENS_8equal_toIcEELb1EEENS_21__unordered_map_equalIcS8_SD_SB_Lb1EEENS_9allocatorIS8_EEE6key_eqB8ue170006Ev, symObjAddr: 0xD38C, symBinAddr: 0x10000E30C, symSize: 0x28 }
  - { offsetInCU: 0x6CAA7, offset: 0x6CAA7, size: 0x8, addend: 0x0, symName: __ZNKSt3__121__unordered_map_equalIcNS_17__hash_value_typeIcNS_10unique_ptrIN6spdlog21custom_flag_formatterENS_14default_deleteIS4_EEEEEENS_8equal_toIcEENS_4hashIcEELb1EEclB8ue170006ERKS8_RKc, symObjAddr: 0xD3B4, symBinAddr: 0x10000E334, symSize: 0x48 }
  - { offsetInCU: 0x6CAEB, offset: 0x6CAEB, size: 0x8, addend: 0x0, symName: __ZNSt3__112__hash_tableINS_17__hash_value_typeIcNS_10unique_ptrIN6spdlog21custom_flag_formatterENS_14default_deleteIS4_EEEEEENS_22__unordered_map_hasherIcS8_NS_4hashIcEENS_8equal_toIcEELb1EEENS_21__unordered_map_equalIcS8_SD_SB_Lb1EEENS_9allocatorIS8_EEE21__construct_node_hashIRKNS_21piecewise_construct_tEJNS_5tupleIJRKcEEENSO_IJEEEEEENS2_INS_11__hash_nodeIS8_PvEENS_22__hash_node_destructorINSH_ISV_EEEEEEmOT_DpOT0_, symObjAddr: 0xD3FC, symBinAddr: 0x10000E37C, symSize: 0x150 }
  - { offsetInCU: 0x6CB8A, offset: 0x6CB8A, size: 0x8, addend: 0x0, symName: __ZNSt3__112__hash_tableINS_17__hash_value_typeIcNS_10unique_ptrIN6spdlog21custom_flag_formatterENS_14default_deleteIS4_EEEEEENS_22__unordered_map_hasherIcS8_NS_4hashIcEENS_8equal_toIcEELb1EEENS_21__unordered_map_equalIcS8_SD_SB_Lb1EEENS_9allocatorIS8_EEE4sizeB8ue170006Ev, symObjAddr: 0xD54C, symBinAddr: 0x10000E4CC, symSize: 0x28 }
  - { offsetInCU: 0x6CBB0, offset: 0x6CBB0, size: 0x8, addend: 0x0, symName: __ZNSt3__112__hash_tableINS_17__hash_value_typeIcNS_10unique_ptrIN6spdlog21custom_flag_formatterENS_14default_deleteIS4_EEEEEENS_22__unordered_map_hasherIcS8_NS_4hashIcEENS_8equal_toIcEELb1EEENS_21__unordered_map_equalIcS8_SD_SB_Lb1EEENS_9allocatorIS8_EEE15max_load_factorB8ue170006Ev, symObjAddr: 0xD574, symBinAddr: 0x10000E4F4, symSize: 0x28 }
  - { offsetInCU: 0x6CBD6, offset: 0x6CBD6, size: 0x8, addend: 0x0, symName: __ZNSt3__112__hash_tableINS_17__hash_value_typeIcNS_10unique_ptrIN6spdlog21custom_flag_formatterENS_14default_deleteIS4_EEEEEENS_22__unordered_map_hasherIcS8_NS_4hashIcEENS_8equal_toIcEELb1EEENS_21__unordered_map_equalIcS8_SD_SB_Lb1EEENS_9allocatorIS8_EEE15__rehash_uniqueB8ue170006Em, symObjAddr: 0xD59C, symBinAddr: 0x10000E51C, symSize: 0x2C }
  - { offsetInCU: 0x6CC0A, offset: 0x6CC0A, size: 0x8, addend: 0x0, symName: __Z4ceilB8ue170006f, symObjAddr: 0xD618, symBinAddr: 0x10000E598, symSize: 0x18 }
  - { offsetInCU: 0x6CC39, offset: 0x6CC39, size: 0x8, addend: 0x0, symName: __ZNSt3__116__hash_node_baseIPNS_11__hash_nodeINS_17__hash_value_typeIcNS_10unique_ptrIN6spdlog21custom_flag_formatterENS_14default_deleteIS5_EEEEEEPvEEE5__ptrB8ue170006Ev, symObjAddr: 0xD630, symBinAddr: 0x10000E5B0, symSize: 0x24 }
  - { offsetInCU: 0x6CC5F, offset: 0x6CC5F, size: 0x8, addend: 0x0, symName: __ZNKSt3__110unique_ptrINS_11__hash_nodeINS_17__hash_value_typeIcNS0_IN6spdlog21custom_flag_formatterENS_14default_deleteIS4_EEEEEEPvEENS_22__hash_node_destructorINS_9allocatorISA_EEEEEptB8ue170006Ev, symObjAddr: 0xD654, symBinAddr: 0x10000E5D4, symSize: 0x28 }
  - { offsetInCU: 0x6CC85, offset: 0x6CC85, size: 0x8, addend: 0x0, symName: __ZNKSt3__110unique_ptrINS_11__hash_nodeINS_17__hash_value_typeIcNS0_IN6spdlog21custom_flag_formatterENS_14default_deleteIS4_EEEEEEPvEENS_22__hash_node_destructorINS_9allocatorISA_EEEEE3getB8ue170006Ev, symObjAddr: 0xD67C, symBinAddr: 0x10000E5FC, symSize: 0x28 }
  - { offsetInCU: 0x6CCAB, offset: 0x6CCAB, size: 0x8, addend: 0x0, symName: __ZNSt3__110unique_ptrINS_11__hash_nodeINS_17__hash_value_typeIcNS0_IN6spdlog21custom_flag_formatterENS_14default_deleteIS4_EEEEEEPvEENS_22__hash_node_destructorINS_9allocatorISA_EEEEE7releaseB8ue170006Ev, symObjAddr: 0xD6A4, symBinAddr: 0x10000E624, symSize: 0x44 }
  - { offsetInCU: 0x6CCE0, offset: 0x6CCE0, size: 0x8, addend: 0x0, symName: __ZNSt3__110unique_ptrINS_11__hash_nodeINS_17__hash_value_typeIcNS0_IN6spdlog21custom_flag_formatterENS_14default_deleteIS4_EEEEEEPvEENS_22__hash_node_destructorINS_9allocatorISA_EEEEED1B8ue170006Ev, symObjAddr: 0xD6E8, symBinAddr: 0x10000E668, symSize: 0x2C }
  - { offsetInCU: 0x6CD0A, offset: 0x6CD0A, size: 0x8, addend: 0x0, symName: __ZNSt3__115__hash_iteratorIPNS_11__hash_nodeINS_17__hash_value_typeIcNS_10unique_ptrIN6spdlog21custom_flag_formatterENS_14default_deleteIS5_EEEEEEPvEEEC1B8ue170006EPNS_16__hash_node_baseISC_EE, symObjAddr: 0xD714, symBinAddr: 0x10000E694, symSize: 0x34 }
  - { offsetInCU: 0x6CD49, offset: 0x6CD49, size: 0x8, addend: 0x0, symName: __ZNSt3__14pairINS_15__hash_iteratorIPNS_11__hash_nodeINS_17__hash_value_typeIcNS_10unique_ptrIN6spdlog21custom_flag_formatterENS_14default_deleteIS6_EEEEEEPvEEEEbEC1B8ue170006ISE_RbLSB_0EEEOT_OT0_, symObjAddr: 0xD748, symBinAddr: 0x10000E6C8, symSize: 0x3C }
  - { offsetInCU: 0x6CDA7, offset: 0x6CDA7, size: 0x8, addend: 0x0, symName: __ZNSt3__117__compressed_pairImNS_22__unordered_map_hasherIcNS_17__hash_value_typeIcNS_10unique_ptrIN6spdlog21custom_flag_formatterENS_14default_deleteIS5_EEEEEENS_4hashIcEENS_8equal_toIcEELb1EEEE6secondB8ue170006Ev, symObjAddr: 0xD784, symBinAddr: 0x10000E704, symSize: 0x24 }
  - { offsetInCU: 0x6CDCD, offset: 0x6CDCD, size: 0x8, addend: 0x0, symName: __ZNSt3__122__compressed_pair_elemINS_22__unordered_map_hasherIcNS_17__hash_value_typeIcNS_10unique_ptrIN6spdlog21custom_flag_formatterENS_14default_deleteIS5_EEEEEENS_4hashIcEENS_8equal_toIcEELb1EEELi1ELb1EE5__getB8ue170006Ev, symObjAddr: 0xD7A8, symBinAddr: 0x10000E728, symSize: 0x14 }
  - { offsetInCU: 0x6CDF3, offset: 0x6CDF3, size: 0x8, addend: 0x0, symName: __ZNKSt3__14hashIcEclB8ue170006Ec, symObjAddr: 0xD7BC, symBinAddr: 0x10000E73C, symSize: 0x18 }
  - { offsetInCU: 0x6CE28, offset: 0x6CE28, size: 0x8, addend: 0x0, symName: __ZNKSt3__110unique_ptrIA_PNS_16__hash_node_baseIPNS_11__hash_nodeINS_17__hash_value_typeIcNS0_IN6spdlog21custom_flag_formatterENS_14default_deleteIS5_EEEEEEPvEEEENS_25__bucket_list_deallocatorINS_9allocatorISE_EEEEE11get_deleterB8ue170006Ev, symObjAddr: 0xD7D4, symBinAddr: 0x10000E754, symSize: 0x24 }
  - { offsetInCU: 0x6CE4E, offset: 0x6CE4E, size: 0x8, addend: 0x0, symName: __ZNKSt3__125__bucket_list_deallocatorINS_9allocatorIPNS_16__hash_node_baseIPNS_11__hash_nodeINS_17__hash_value_typeIcNS_10unique_ptrIN6spdlog21custom_flag_formatterENS_14default_deleteIS7_EEEEEEPvEEEEEEE4sizeB8ue170006Ev, symObjAddr: 0xD7F8, symBinAddr: 0x10000E778, symSize: 0x28 }
  - { offsetInCU: 0x6CE74, offset: 0x6CE74, size: 0x8, addend: 0x0, symName: __ZNKSt3__117__compressed_pairIPPNS_16__hash_node_baseIPNS_11__hash_nodeINS_17__hash_value_typeIcNS_10unique_ptrIN6spdlog21custom_flag_formatterENS_14default_deleteIS6_EEEEEEPvEEEENS_25__bucket_list_deallocatorINS_9allocatorISF_EEEEE6secondB8ue170006Ev, symObjAddr: 0xD820, symBinAddr: 0x10000E7A0, symSize: 0x28 }
  - { offsetInCU: 0x6CE9A, offset: 0x6CE9A, size: 0x8, addend: 0x0, symName: __ZNKSt3__122__compressed_pair_elemINS_25__bucket_list_deallocatorINS_9allocatorIPNS_16__hash_node_baseIPNS_11__hash_nodeINS_17__hash_value_typeIcNS_10unique_ptrIN6spdlog21custom_flag_formatterENS_14default_deleteIS8_EEEEEEPvEEEEEEEELi1ELb0EE5__getB8ue170006Ev, symObjAddr: 0xD848, symBinAddr: 0x10000E7C8, symSize: 0x14 }
  - { offsetInCU: 0x6CEC0, offset: 0x6CEC0, size: 0x8, addend: 0x0, symName: __ZNKSt3__117__compressed_pairImNS_9allocatorIPNS_16__hash_node_baseIPNS_11__hash_nodeINS_17__hash_value_typeIcNS_10unique_ptrIN6spdlog21custom_flag_formatterENS_14default_deleteIS7_EEEEEEPvEEEEEEE5firstB8ue170006Ev, symObjAddr: 0xD85C, symBinAddr: 0x10000E7DC, symSize: 0x24 }
  - { offsetInCU: 0x6CEE6, offset: 0x6CEE6, size: 0x8, addend: 0x0, symName: __ZNKSt3__117__compressed_pairIPPNS_16__hash_node_baseIPNS_11__hash_nodeINS_17__hash_value_typeIcNS_10unique_ptrIN6spdlog21custom_flag_formatterENS_14default_deleteIS6_EEEEEEPvEEEENS_25__bucket_list_deallocatorINS_9allocatorISF_EEEEE5firstB8ue170006Ev, symObjAddr: 0xD880, symBinAddr: 0x10000E800, symSize: 0x24 }
  - { offsetInCU: 0x6CF0C, offset: 0x6CF0C, size: 0x8, addend: 0x0, symName: __ZNKSt3__122__compressed_pair_elemIPPNS_16__hash_node_baseIPNS_11__hash_nodeINS_17__hash_value_typeIcNS_10unique_ptrIN6spdlog21custom_flag_formatterENS_14default_deleteIS6_EEEEEEPvEEEELi0ELb0EE5__getB8ue170006Ev, symObjAddr: 0xD8A4, symBinAddr: 0x10000E824, symSize: 0x14 }
  - { offsetInCU: 0x6CF32, offset: 0x6CF32, size: 0x8, addend: 0x0, symName: __ZNSt3__117__compressed_pairIfNS_21__unordered_map_equalIcNS_17__hash_value_typeIcNS_10unique_ptrIN6spdlog21custom_flag_formatterENS_14default_deleteIS5_EEEEEENS_8equal_toIcEENS_4hashIcEELb1EEEE6secondB8ue170006Ev, symObjAddr: 0xD8B8, symBinAddr: 0x10000E838, symSize: 0x24 }
  - { offsetInCU: 0x6CF58, offset: 0x6CF58, size: 0x8, addend: 0x0, symName: __ZNSt3__122__compressed_pair_elemINS_21__unordered_map_equalIcNS_17__hash_value_typeIcNS_10unique_ptrIN6spdlog21custom_flag_formatterENS_14default_deleteIS5_EEEEEENS_8equal_toIcEENS_4hashIcEELb1EEELi1ELb1EE5__getB8ue170006Ev, symObjAddr: 0xD8DC, symBinAddr: 0x10000E85C, symSize: 0x14 }
  - { offsetInCU: 0x6CF7E, offset: 0x6CF7E, size: 0x8, addend: 0x0, symName: __ZNKSt3__18equal_toIcEclB8ue170006ERKcS3_, symObjAddr: 0xD8F0, symBinAddr: 0x10000E870, symSize: 0x34 }
  - { offsetInCU: 0x6CFC2, offset: 0x6CFC2, size: 0x8, addend: 0x0, symName: __ZNSt3__116allocator_traitsINS_9allocatorINS_11__hash_nodeINS_17__hash_value_typeIcNS_10unique_ptrIN6spdlog21custom_flag_formatterENS_14default_deleteIS6_EEEEEEPvEEEEE8allocateB8ue170006ERSD_m, symObjAddr: 0xD924, symBinAddr: 0x10000E8A4, symSize: 0x2C }
  - { offsetInCU: 0x6CFF5, offset: 0x6CFF5, size: 0x8, addend: 0x0, symName: __ZNSt3__122__hash_node_destructorINS_9allocatorINS_11__hash_nodeINS_17__hash_value_typeIcNS_10unique_ptrIN6spdlog21custom_flag_formatterENS_14default_deleteIS6_EEEEEEPvEEEEEC1B8ue170006ERSD_b, symObjAddr: 0xD950, symBinAddr: 0x10000E8D0, symSize: 0x48 }
  - { offsetInCU: 0x6D043, offset: 0x6D043, size: 0x8, addend: 0x0, symName: __ZNSt3__110unique_ptrINS_11__hash_nodeINS_17__hash_value_typeIcNS0_IN6spdlog21custom_flag_formatterENS_14default_deleteIS4_EEEEEEPvEENS_22__hash_node_destructorINS_9allocatorISA_EEEEEC1B8ue170006ILb1EvEEPSA_NS_16__dependent_typeINS_27__unique_ptr_deleter_sfinaeISE_EEXT_EE20__good_rval_ref_typeE, symObjAddr: 0xD998, symBinAddr: 0x10000E918, symSize: 0x3C }
  - { offsetInCU: 0x6D094, offset: 0x6D094, size: 0x8, addend: 0x0, symName: __ZNSt3__116allocator_traitsINS_9allocatorINS_11__hash_nodeINS_17__hash_value_typeIcNS_10unique_ptrIN6spdlog21custom_flag_formatterENS_14default_deleteIS6_EEEEEEPvEEEEE9constructB8ue170006INS_4pairIKcS9_EEJRKNS_21piecewise_construct_tENS_5tupleIJRSH_EEENSM_IJEEEEvEEvRSD_PT_DpOT0_, symObjAddr: 0xD9D4, symBinAddr: 0x10000E954, symSize: 0x44 }
  - { offsetInCU: 0x6D117, offset: 0x6D117, size: 0x8, addend: 0x0, symName: __ZNSt3__110unique_ptrINS_11__hash_nodeINS_17__hash_value_typeIcNS0_IN6spdlog21custom_flag_formatterENS_14default_deleteIS4_EEEEEEPvEENS_22__hash_node_destructorINS_9allocatorISA_EEEEE11get_deleterB8ue170006Ev, symObjAddr: 0xDA18, symBinAddr: 0x10000E998, symSize: 0x24 }
  - { offsetInCU: 0x6D13D, offset: 0x6D13D, size: 0x8, addend: 0x0, symName: __ZNSt3__19allocatorINS_11__hash_nodeINS_17__hash_value_typeIcNS_10unique_ptrIN6spdlog21custom_flag_formatterENS_14default_deleteIS5_EEEEEEPvEEE8allocateB8ue170006Em, symObjAddr: 0xDA3C, symBinAddr: 0x10000E9BC, symSize: 0x58 }
  - { offsetInCU: 0x6D17C, offset: 0x6D17C, size: 0x8, addend: 0x0, symName: __ZNSt3__116allocator_traitsINS_9allocatorINS_11__hash_nodeINS_17__hash_value_typeIcNS_10unique_ptrIN6spdlog21custom_flag_formatterENS_14default_deleteIS6_EEEEEEPvEEEEE8max_sizeB8ue170006ISD_vEEmRKSD_, symObjAddr: 0xDA94, symBinAddr: 0x10000EA14, symSize: 0x24 }
  - { offsetInCU: 0x6D1AA, offset: 0x6D1AA, size: 0x8, addend: 0x0, symName: __ZNKSt3__19allocatorINS_11__hash_nodeINS_17__hash_value_typeIcNS_10unique_ptrIN6spdlog21custom_flag_formatterENS_14default_deleteIS5_EEEEEEPvEEE8max_sizeB8ue170006Ev, symObjAddr: 0xDAB8, symBinAddr: 0x10000EA38, symSize: 0x14 }
  - { offsetInCU: 0x6D1D0, offset: 0x6D1D0, size: 0x8, addend: 0x0, symName: __ZNSt3__122__hash_node_destructorINS_9allocatorINS_11__hash_nodeINS_17__hash_value_typeIcNS_10unique_ptrIN6spdlog21custom_flag_formatterENS_14default_deleteIS6_EEEEEEPvEEEEEC2B8ue170006ERSD_b, symObjAddr: 0xDACC, symBinAddr: 0x10000EA4C, symSize: 0x38 }
  - { offsetInCU: 0x6D218, offset: 0x6D218, size: 0x8, addend: 0x0, symName: __ZNSt3__110unique_ptrINS_11__hash_nodeINS_17__hash_value_typeIcNS0_IN6spdlog21custom_flag_formatterENS_14default_deleteIS4_EEEEEEPvEENS_22__hash_node_destructorINS_9allocatorISA_EEEEEC2B8ue170006ILb1EvEEPSA_NS_16__dependent_typeINS_27__unique_ptr_deleter_sfinaeISE_EEXT_EE20__good_rval_ref_typeE, symObjAddr: 0xDB04, symBinAddr: 0x10000EA84, symSize: 0x48 }
  - { offsetInCU: 0x6D269, offset: 0x6D269, size: 0x8, addend: 0x0, symName: __ZNSt3__117__compressed_pairIPNS_11__hash_nodeINS_17__hash_value_typeIcNS_10unique_ptrIN6spdlog21custom_flag_formatterENS_14default_deleteIS5_EEEEEEPvEENS_22__hash_node_destructorINS_9allocatorISB_EEEEEC1B8ue170006IRSC_SG_EEOT_OT0_, symObjAddr: 0xDB4C, symBinAddr: 0x10000EACC, symSize: 0x3C }
  - { offsetInCU: 0x6D2C1, offset: 0x6D2C1, size: 0x8, addend: 0x0, symName: __ZNSt3__117__compressed_pairIPNS_11__hash_nodeINS_17__hash_value_typeIcNS_10unique_ptrIN6spdlog21custom_flag_formatterENS_14default_deleteIS5_EEEEEEPvEENS_22__hash_node_destructorINS_9allocatorISB_EEEEEC2B8ue170006IRSC_SG_EEOT_OT0_, symObjAddr: 0xDB88, symBinAddr: 0x10000EB08, symSize: 0x48 }
  - { offsetInCU: 0x6D319, offset: 0x6D319, size: 0x8, addend: 0x0, symName: __ZNSt3__122__compressed_pair_elemIPNS_11__hash_nodeINS_17__hash_value_typeIcNS_10unique_ptrIN6spdlog21custom_flag_formatterENS_14default_deleteIS5_EEEEEEPvEELi0ELb0EEC2B8ue170006IRSC_vEEOT_, symObjAddr: 0xDBD0, symBinAddr: 0x10000EB50, symSize: 0x24 }
  - { offsetInCU: 0x6D35B, offset: 0x6D35B, size: 0x8, addend: 0x0, symName: __ZNSt3__122__compressed_pair_elemINS_22__hash_node_destructorINS_9allocatorINS_11__hash_nodeINS_17__hash_value_typeIcNS_10unique_ptrIN6spdlog21custom_flag_formatterENS_14default_deleteIS7_EEEEEEPvEEEEEELi1ELb0EEC2B8ue170006ISF_vEEOT_, symObjAddr: 0xDBF4, symBinAddr: 0x10000EB74, symSize: 0x24 }
  - { offsetInCU: 0x6D39D, offset: 0x6D39D, size: 0x8, addend: 0x0, symName: __ZNSt3__19allocatorINS_11__hash_nodeINS_17__hash_value_typeIcNS_10unique_ptrIN6spdlog21custom_flag_formatterENS_14default_deleteIS5_EEEEEEPvEEE9constructB8ue170006INS_4pairIKcS8_EEJRKNS_21piecewise_construct_tENS_5tupleIJRSF_EEENSK_IJEEEEEEvPT_DpOT0_, symObjAddr: 0xDC18, symBinAddr: 0x10000EB98, symSize: 0x44 }
  - { offsetInCU: 0x6D41D, offset: 0x6D41D, size: 0x8, addend: 0x0, symName: __ZNSt3__14pairIKcNS_10unique_ptrIN6spdlog21custom_flag_formatterENS_14default_deleteIS4_EEEEEC1B8ue170006IJRS1_EJEEENS_21piecewise_construct_tENS_5tupleIJDpT_EEENSC_IJDpT0_EEE, symObjAddr: 0xDC5C, symBinAddr: 0x10000EBDC, symSize: 0x44 }
  - { offsetInCU: 0x6D487, offset: 0x6D487, size: 0x8, addend: 0x0, symName: __ZNSt3__14pairIKcNS_10unique_ptrIN6spdlog21custom_flag_formatterENS_14default_deleteIS4_EEEEEC1B8ue170006IJRS1_EJEJLm0EEJEEENS_21piecewise_construct_tERNS_5tupleIJDpT_EEERNSC_IJDpT0_EEENS_15__tuple_indicesIJXspT1_EEEENSL_IJXspT2_EEEE, symObjAddr: 0xDCA0, symBinAddr: 0x10000EC20, symSize: 0x3C }
  - { offsetInCU: 0x6D51C, offset: 0x6D51C, size: 0x8, addend: 0x0, symName: __ZNSt3__14pairIKcNS_10unique_ptrIN6spdlog21custom_flag_formatterENS_14default_deleteIS4_EEEEEC2B8ue170006IJRS1_EJEJLm0EEJEEENS_21piecewise_construct_tERNS_5tupleIJDpT_EEERNSC_IJDpT0_EEENS_15__tuple_indicesIJXspT1_EEEENSL_IJXspT2_EEEE, symObjAddr: 0xDCDC, symBinAddr: 0x10000EC5C, symSize: 0x4C }
  - { offsetInCU: 0x6D5B1, offset: 0x6D5B1, size: 0x8, addend: 0x0, symName: __ZNSt3__110unique_ptrIN6spdlog21custom_flag_formatterENS_14default_deleteIS2_EEEC1B8ue170006ILb1EvEEv, symObjAddr: 0xDD4C, symBinAddr: 0x10000ECCC, symSize: 0x2C }
  - { offsetInCU: 0x6D5E6, offset: 0x6D5E6, size: 0x8, addend: 0x0, symName: __ZNSt3__112__tuple_leafILm0ERKcLb0EE3getB8ue170006Ev, symObjAddr: 0xDD78, symBinAddr: 0x10000ECF8, symSize: 0x18 }
  - { offsetInCU: 0x6D60C, offset: 0x6D60C, size: 0x8, addend: 0x0, symName: __ZNSt3__110unique_ptrIN6spdlog21custom_flag_formatterENS_14default_deleteIS2_EEEC2B8ue170006ILb1EvEEv, symObjAddr: 0xDD90, symBinAddr: 0x10000ED10, symSize: 0x3C }
  - { offsetInCU: 0x6D641, offset: 0x6D641, size: 0x8, addend: 0x0, symName: __ZNSt3__117__compressed_pairIPN6spdlog21custom_flag_formatterENS_14default_deleteIS2_EEEC1B8ue170006INS_16__value_init_tagES8_EEOT_OT0_, symObjAddr: 0xDDCC, symBinAddr: 0x10000ED4C, symSize: 0x3C }
  - { offsetInCU: 0x6D699, offset: 0x6D699, size: 0x8, addend: 0x0, symName: __ZNSt3__117__compressed_pairIPN6spdlog21custom_flag_formatterENS_14default_deleteIS2_EEEC2B8ue170006INS_16__value_init_tagES8_EEOT_OT0_, symObjAddr: 0xDE08, symBinAddr: 0x10000ED88, symSize: 0x3C }
  - { offsetInCU: 0x6D6F1, offset: 0x6D6F1, size: 0x8, addend: 0x0, symName: __ZNSt3__122__compressed_pair_elemIPN6spdlog21custom_flag_formatterELi0ELb0EEC2B8ue170006ENS_16__value_init_tagE, symObjAddr: 0xDE44, symBinAddr: 0x10000EDC4, symSize: 0x18 }
  - { offsetInCU: 0x6D726, offset: 0x6D726, size: 0x8, addend: 0x0, symName: __ZNSt3__122__compressed_pair_elemINS_14default_deleteIN6spdlog21custom_flag_formatterEEELi1ELb1EEC2B8ue170006ENS_16__value_init_tagE, symObjAddr: 0xDE5C, symBinAddr: 0x10000EDDC, symSize: 0x14 }
  - { offsetInCU: 0x6D75B, offset: 0x6D75B, size: 0x8, addend: 0x0, symName: __ZNSt3__117__compressed_pairIPNS_11__hash_nodeINS_17__hash_value_typeIcNS_10unique_ptrIN6spdlog21custom_flag_formatterENS_14default_deleteIS5_EEEEEEPvEENS_22__hash_node_destructorINS_9allocatorISB_EEEEE6secondB8ue170006Ev, symObjAddr: 0xDE70, symBinAddr: 0x10000EDF0, symSize: 0x28 }
  - { offsetInCU: 0x6D781, offset: 0x6D781, size: 0x8, addend: 0x0, symName: __ZNSt3__122__compressed_pair_elemINS_22__hash_node_destructorINS_9allocatorINS_11__hash_nodeINS_17__hash_value_typeIcNS_10unique_ptrIN6spdlog21custom_flag_formatterENS_14default_deleteIS7_EEEEEEPvEEEEEELi1ELb0EE5__getB8ue170006Ev, symObjAddr: 0xDE98, symBinAddr: 0x10000EE18, symSize: 0x14 }
  - { offsetInCU: 0x6D7A7, offset: 0x6D7A7, size: 0x8, addend: 0x0, symName: __ZNSt3__117__compressed_pairImNS_22__unordered_map_hasherIcNS_17__hash_value_typeIcNS_10unique_ptrIN6spdlog21custom_flag_formatterENS_14default_deleteIS5_EEEEEENS_4hashIcEENS_8equal_toIcEELb1EEEE5firstB8ue170006Ev, symObjAddr: 0xDEAC, symBinAddr: 0x10000EE2C, symSize: 0x24 }
  - { offsetInCU: 0x6D7CD, offset: 0x6D7CD, size: 0x8, addend: 0x0, symName: __ZNSt3__117__compressed_pairIfNS_21__unordered_map_equalIcNS_17__hash_value_typeIcNS_10unique_ptrIN6spdlog21custom_flag_formatterENS_14default_deleteIS5_EEEEEENS_8equal_toIcEENS_4hashIcEELb1EEEE5firstB8ue170006Ev, symObjAddr: 0xDED0, symBinAddr: 0x10000EE50, symSize: 0x24 }
  - { offsetInCU: 0x6D7F3, offset: 0x6D7F3, size: 0x8, addend: 0x0, symName: __ZNSt3__122__compressed_pair_elemIfLi0ELb0EE5__getB8ue170006Ev, symObjAddr: 0xDEF4, symBinAddr: 0x10000EE74, symSize: 0x14 }
  - { offsetInCU: 0x6D819, offset: 0x6D819, size: 0x8, addend: 0x0, symName: __ZNSt3__112__hash_tableINS_17__hash_value_typeIcNS_10unique_ptrIN6spdlog21custom_flag_formatterENS_14default_deleteIS4_EEEEEENS_22__unordered_map_hasherIcS8_NS_4hashIcEENS_8equal_toIcEELb1EEENS_21__unordered_map_equalIcS8_SD_SB_Lb1EEENS_9allocatorIS8_EEE8__rehashILb1EEEvm, symObjAddr: 0xDF08, symBinAddr: 0x10000EE88, symSize: 0x1A8 }
  - { offsetInCU: 0x6D869, offset: 0x6D869, size: 0x8, addend: 0x0, symName: __ZNSt3__112__hash_tableINS_17__hash_value_typeIcNS_10unique_ptrIN6spdlog21custom_flag_formatterENS_14default_deleteIS4_EEEEEENS_22__unordered_map_hasherIcS8_NS_4hashIcEENS_8equal_toIcEELb1EEENS_21__unordered_map_equalIcS8_SD_SB_Lb1EEENS_9allocatorIS8_EEE11__do_rehashILb1EEEvm, symObjAddr: 0xE0B0, symBinAddr: 0x10000F030, symSize: 0x288 }
  - { offsetInCU: 0x6D94C, offset: 0x6D94C, size: 0x8, addend: 0x0, symName: __ZNSt3__110unique_ptrIA_PNS_16__hash_node_baseIPNS_11__hash_nodeINS_17__hash_value_typeIcNS0_IN6spdlog21custom_flag_formatterENS_14default_deleteIS5_EEEEEEPvEEEENS_25__bucket_list_deallocatorINS_9allocatorISE_EEEEE11get_deleterB8ue170006Ev, symObjAddr: 0xE3A4, symBinAddr: 0x10000F324, symSize: 0x24 }
  - { offsetInCU: 0x6D972, offset: 0x6D972, size: 0x8, addend: 0x0, symName: __ZNSt3__110unique_ptrIA_PNS_16__hash_node_baseIPNS_11__hash_nodeINS_17__hash_value_typeIcNS0_IN6spdlog21custom_flag_formatterENS_14default_deleteIS5_EEEEEEPvEEEENS_25__bucket_list_deallocatorINS_9allocatorISE_EEEEE5resetB8ue170006IPSE_EENS_9enable_ifIXsr28_CheckArrayPointerConversionIT_EE5valueEvE4typeESO_, symObjAddr: 0xE3C8, symBinAddr: 0x10000F348, symSize: 0x78 }
  - { offsetInCU: 0x6D9BF, offset: 0x6D9BF, size: 0x8, addend: 0x0, symName: __ZNSt3__116allocator_traitsINS_9allocatorIPNS_16__hash_node_baseIPNS_11__hash_nodeINS_17__hash_value_typeIcNS_10unique_ptrIN6spdlog21custom_flag_formatterENS_14default_deleteIS7_EEEEEEPvEEEEEEE8allocateB8ue170006ERSH_m, symObjAddr: 0xE440, symBinAddr: 0x10000F3C0, symSize: 0x2C }
  - { offsetInCU: 0x6D9F2, offset: 0x6D9F2, size: 0x8, addend: 0x0, symName: __ZNSt3__19allocatorIPNS_16__hash_node_baseIPNS_11__hash_nodeINS_17__hash_value_typeIcNS_10unique_ptrIN6spdlog21custom_flag_formatterENS_14default_deleteIS6_EEEEEEPvEEEEE8allocateB8ue170006Em, symObjAddr: 0xE46C, symBinAddr: 0x10000F3EC, symSize: 0x58 }
  - { offsetInCU: 0x6DA31, offset: 0x6DA31, size: 0x8, addend: 0x0, symName: __ZNSt3__116allocator_traitsINS_9allocatorIPNS_16__hash_node_baseIPNS_11__hash_nodeINS_17__hash_value_typeIcNS_10unique_ptrIN6spdlog21custom_flag_formatterENS_14default_deleteIS7_EEEEEEPvEEEEEEE8max_sizeB8ue170006ISH_vEEmRKSH_, symObjAddr: 0xE4C4, symBinAddr: 0x10000F444, symSize: 0x24 }
  - { offsetInCU: 0x6DA5F, offset: 0x6DA5F, size: 0x8, addend: 0x0, symName: __ZNKSt3__19allocatorIPNS_16__hash_node_baseIPNS_11__hash_nodeINS_17__hash_value_typeIcNS_10unique_ptrIN6spdlog21custom_flag_formatterENS_14default_deleteIS6_EEEEEEPvEEEEE8max_sizeB8ue170006Ev, symObjAddr: 0xE4E8, symBinAddr: 0x10000F468, symSize: 0x14 }
  - { offsetInCU: 0x6DA85, offset: 0x6DA85, size: 0x8, addend: 0x0, symName: __ZNKSt3__117__compressed_pairIPNS_11__hash_nodeINS_17__hash_value_typeIcNS_10unique_ptrIN6spdlog21custom_flag_formatterENS_14default_deleteIS5_EEEEEEPvEENS_22__hash_node_destructorINS_9allocatorISB_EEEEE5firstB8ue170006Ev, symObjAddr: 0xE518, symBinAddr: 0x10000F498, symSize: 0x24 }
  - { offsetInCU: 0x6DAAB, offset: 0x6DAAB, size: 0x8, addend: 0x0, symName: __ZNKSt3__122__compressed_pair_elemIPNS_11__hash_nodeINS_17__hash_value_typeIcNS_10unique_ptrIN6spdlog21custom_flag_formatterENS_14default_deleteIS5_EEEEEEPvEELi0ELb0EE5__getB8ue170006Ev, symObjAddr: 0xE53C, symBinAddr: 0x10000F4BC, symSize: 0x14 }
  - { offsetInCU: 0x6DAD1, offset: 0x6DAD1, size: 0x8, addend: 0x0, symName: __ZNSt3__117__compressed_pairIPNS_11__hash_nodeINS_17__hash_value_typeIcNS_10unique_ptrIN6spdlog21custom_flag_formatterENS_14default_deleteIS5_EEEEEEPvEENS_22__hash_node_destructorINS_9allocatorISB_EEEEE5firstB8ue170006Ev, symObjAddr: 0xE550, symBinAddr: 0x10000F4D0, symSize: 0x24 }
  - { offsetInCU: 0x6DAF7, offset: 0x6DAF7, size: 0x8, addend: 0x0, symName: __ZNSt3__122__compressed_pair_elemIPNS_11__hash_nodeINS_17__hash_value_typeIcNS_10unique_ptrIN6spdlog21custom_flag_formatterENS_14default_deleteIS5_EEEEEEPvEELi0ELb0EE5__getB8ue170006Ev, symObjAddr: 0xE574, symBinAddr: 0x10000F4F4, symSize: 0x14 }
  - { offsetInCU: 0x6DB1D, offset: 0x6DB1D, size: 0x8, addend: 0x0, symName: __ZNSt3__110unique_ptrINS_11__hash_nodeINS_17__hash_value_typeIcNS0_IN6spdlog21custom_flag_formatterENS_14default_deleteIS4_EEEEEEPvEENS_22__hash_node_destructorINS_9allocatorISA_EEEEED2B8ue170006Ev, symObjAddr: 0xE588, symBinAddr: 0x10000F508, symSize: 0x30 }
  - { offsetInCU: 0x6DB47, offset: 0x6DB47, size: 0x8, addend: 0x0, symName: __ZNSt3__110unique_ptrINS_11__hash_nodeINS_17__hash_value_typeIcNS0_IN6spdlog21custom_flag_formatterENS_14default_deleteIS4_EEEEEEPvEENS_22__hash_node_destructorINS_9allocatorISA_EEEEE5resetB8ue170006EPSA_, symObjAddr: 0xE5B8, symBinAddr: 0x10000F538, symSize: 0x78 }
  - { offsetInCU: 0x6DB8B, offset: 0x6DB8B, size: 0x8, addend: 0x0, symName: __ZNSt3__122__hash_node_destructorINS_9allocatorINS_11__hash_nodeINS_17__hash_value_typeIcNS_10unique_ptrIN6spdlog21custom_flag_formatterENS_14default_deleteIS6_EEEEEEPvEEEEEclB8ue170006EPSC_, symObjAddr: 0xE630, symBinAddr: 0x10000F5B0, symSize: 0x94 }
  - { offsetInCU: 0x6DBC0, offset: 0x6DBC0, size: 0x8, addend: 0x0, symName: __ZNSt3__115__hash_iteratorIPNS_11__hash_nodeINS_17__hash_value_typeIcNS_10unique_ptrIN6spdlog21custom_flag_formatterENS_14default_deleteIS5_EEEEEEPvEEEC2B8ue170006EPNS_16__hash_node_baseISC_EE, symObjAddr: 0xE6C4, symBinAddr: 0x10000F644, symSize: 0x20 }
  - { offsetInCU: 0x6DBF9, offset: 0x6DBF9, size: 0x8, addend: 0x0, symName: __ZNSt3__14pairINS_15__hash_iteratorIPNS_11__hash_nodeINS_17__hash_value_typeIcNS_10unique_ptrIN6spdlog21custom_flag_formatterENS_14default_deleteIS6_EEEEEEPvEEEEbEC2B8ue170006ISE_RbLSB_0EEEOT_OT0_, symObjAddr: 0xE6E4, symBinAddr: 0x10000F664, symSize: 0x38 }
  - { offsetInCU: 0x6DC57, offset: 0x6DC57, size: 0x8, addend: 0x0, symName: __ZNSt3__15tupleIJRKcEEC1B8ue170006INS_4_AndELi0EEES2_, symObjAddr: 0xE71C, symBinAddr: 0x10000F69C, symSize: 0x34 }
  - { offsetInCU: 0x6DCA0, offset: 0x6DCA0, size: 0x8, addend: 0x0, symName: __ZNSt3__15tupleIJRKcEEC2B8ue170006INS_4_AndELi0EEES2_, symObjAddr: 0xE750, symBinAddr: 0x10000F6D0, symSize: 0x34 }
  - { offsetInCU: 0x6DCE9, offset: 0x6DCE9, size: 0x8, addend: 0x0, symName: __ZNSt3__112__tuple_implINS_15__tuple_indicesIJLm0EEEEJRKcEEC1B8ue170006IJLm0EEJS4_EJEJEJS4_EEENS1_IJXspT_EEEENS_13__tuple_typesIJDpT0_EEENS1_IJXspT1_EEEENS8_IJDpT2_EEEDpOT3_, symObjAddr: 0xE784, symBinAddr: 0x10000F704, symSize: 0x34 }
  - { offsetInCU: 0x6DD85, offset: 0x6DD85, size: 0x8, addend: 0x0, symName: __ZNSt3__112__tuple_implINS_15__tuple_indicesIJLm0EEEEJRKcEEC2B8ue170006IJLm0EEJS4_EJEJEJS4_EEENS1_IJXspT_EEEENS_13__tuple_typesIJDpT0_EEENS1_IJXspT1_EEEENS8_IJDpT2_EEEDpOT3_, symObjAddr: 0xE7B8, symBinAddr: 0x10000F738, symSize: 0x34 }
  - { offsetInCU: 0x6DE21, offset: 0x6DE21, size: 0x8, addend: 0x0, symName: __ZNSt3__112__tuple_leafILm0ERKcLb0EEC2B8ue170006IS2_vEEOT_, symObjAddr: 0xE7EC, symBinAddr: 0x10000F76C, symSize: 0x20 }
  - { offsetInCU: 0x6DE64, offset: 0x6DE64, size: 0x8, addend: 0x0, symName: __ZNSt3__114pointer_traitsIPNS_17__hash_value_typeIcNS_10unique_ptrIN6spdlog21custom_flag_formatterENS_14default_deleteIS4_EEEEEEE10pointer_toB8ue170006ERS8_, symObjAddr: 0xE80C, symBinAddr: 0x10000F78C, symSize: 0x14 }
  - { offsetInCU: 0x6DE87, offset: 0x6DE87, size: 0x8, addend: 0x0, symName: __ZNSt3__110unique_ptrIN6spdlog21custom_flag_formatterENS_14default_deleteIS2_EEE7releaseB8ue170006Ev, symObjAddr: 0xE820, symBinAddr: 0x10000F7A0, symSize: 0x44 }
  - { offsetInCU: 0x6DEBC, offset: 0x6DEBC, size: 0x8, addend: 0x0, symName: __ZNSt3__110unique_ptrIN6spdlog21custom_flag_formatterENS_14default_deleteIS2_EEE11get_deleterB8ue170006Ev, symObjAddr: 0xE864, symBinAddr: 0x10000F7E4, symSize: 0x24 }
  - { offsetInCU: 0x6DEE2, offset: 0x6DEE2, size: 0x8, addend: 0x0, symName: __ZNSt3__121__hash_const_iteratorIPNS_11__hash_nodeINS_17__hash_value_typeIcNS_10unique_ptrIN6spdlog21custom_flag_formatterENS_14default_deleteIS5_EEEEEEPvEEEppB8ue170006Ev, symObjAddr: 0xE888, symBinAddr: 0x10000F808, symSize: 0x20 }
  - { offsetInCU: 0x6DF08, offset: 0x6DF08, size: 0x8, addend: 0x0, symName: __ZNSt3__113unordered_mapIcNS_10unique_ptrIN6spdlog21custom_flag_formatterENS_14default_deleteIS3_EEEENS_4hashIcEENS_8equal_toIcEENS_9allocatorINS_4pairIKcS6_EEEEEC1EOSG_, symObjAddr: 0xE8A8, symBinAddr: 0x10000F828, symSize: 0x34 }
  - { offsetInCU: 0x6DF43, offset: 0x6DF43, size: 0x8, addend: 0x0, symName: __ZN6spdlog17pattern_formatterC1ENSt3__112basic_stringIcNS1_11char_traitsIcEENS1_9allocatorIcEEEENS_17pattern_time_typeES7_NS1_13unordered_mapIcNS1_10unique_ptrINS_21custom_flag_formatterENS1_14default_deleteISB_EEEENS1_4hashIcEENS1_8equal_toIcEENS5_INS1_4pairIKcSE_EEEEEE, symObjAddr: 0xE8DC, symBinAddr: 0x10000F85C, symSize: 0x4C }
  - { offsetInCU: 0x6DFAF, offset: 0x6DFAF, size: 0x8, addend: 0x0, symName: __ZNSt3__110unique_ptrIN6spdlog17pattern_formatterENS_14default_deleteIS2_EEEC1B8ue170006ILb1EvEEPS2_, symObjAddr: 0xE928, symBinAddr: 0x10000F8A8, symSize: 0x34 }
  - { offsetInCU: 0x6DFF2, offset: 0x6DFF2, size: 0x8, addend: 0x0, symName: __ZNSt3__113unordered_mapIcNS_10unique_ptrIN6spdlog21custom_flag_formatterENS_14default_deleteIS3_EEEENS_4hashIcEENS_8equal_toIcEENS_9allocatorINS_4pairIKcS6_EEEEEC2EOSG_, symObjAddr: 0xE95C, symBinAddr: 0x10000F8DC, symSize: 0x34 }
  - { offsetInCU: 0x6E02D, offset: 0x6E02D, size: 0x8, addend: 0x0, symName: __ZNSt3__112__hash_tableINS_17__hash_value_typeIcNS_10unique_ptrIN6spdlog21custom_flag_formatterENS_14default_deleteIS4_EEEEEENS_22__unordered_map_hasherIcS8_NS_4hashIcEENS_8equal_toIcEELb1EEENS_21__unordered_map_equalIcS8_SD_SB_Lb1EEENS_9allocatorIS8_EEEC1EOSJ_, symObjAddr: 0xE990, symBinAddr: 0x10000F910, symSize: 0x34 }
  - { offsetInCU: 0x6E068, offset: 0x6E068, size: 0x8, addend: 0x0, symName: __ZNSt3__112__hash_tableINS_17__hash_value_typeIcNS_10unique_ptrIN6spdlog21custom_flag_formatterENS_14default_deleteIS4_EEEEEENS_22__unordered_map_hasherIcS8_NS_4hashIcEENS_8equal_toIcEELb1EEENS_21__unordered_map_equalIcS8_SD_SB_Lb1EEENS_9allocatorIS8_EEEC2EOSJ_, symObjAddr: 0xE9C4, symBinAddr: 0x10000F944, symSize: 0xF8 }
  - { offsetInCU: 0x6E0A3, offset: 0x6E0A3, size: 0x8, addend: 0x0, symName: __ZNSt3__110unique_ptrIA_PNS_16__hash_node_baseIPNS_11__hash_nodeINS_17__hash_value_typeIcNS0_IN6spdlog21custom_flag_formatterENS_14default_deleteIS5_EEEEEEPvEEEENS_25__bucket_list_deallocatorINS_9allocatorISE_EEEEEC1B8ue170006EOSK_, symObjAddr: 0xEABC, symBinAddr: 0x10000FA3C, symSize: 0x34 }
  - { offsetInCU: 0x6E0DC, offset: 0x6E0DC, size: 0x8, addend: 0x0, symName: __ZNSt3__110unique_ptrIA_PNS_16__hash_node_baseIPNS_11__hash_nodeINS_17__hash_value_typeIcNS0_IN6spdlog21custom_flag_formatterENS_14default_deleteIS5_EEEEEEPvEEEENS_25__bucket_list_deallocatorINS_9allocatorISE_EEEEEC2B8ue170006EOSK_, symObjAddr: 0xEAF0, symBinAddr: 0x10000FA70, symSize: 0x60 }
  - { offsetInCU: 0x6E115, offset: 0x6E115, size: 0x8, addend: 0x0, symName: __ZNSt3__110unique_ptrIA_PNS_16__hash_node_baseIPNS_11__hash_nodeINS_17__hash_value_typeIcNS0_IN6spdlog21custom_flag_formatterENS_14default_deleteIS5_EEEEEEPvEEEENS_25__bucket_list_deallocatorINS_9allocatorISE_EEEEE7releaseB8ue170006Ev, symObjAddr: 0xEB50, symBinAddr: 0x10000FAD0, symSize: 0x44 }
  - { offsetInCU: 0x6E150, offset: 0x6E150, size: 0x8, addend: 0x0, symName: __ZNSt3__117__compressed_pairIPPNS_16__hash_node_baseIPNS_11__hash_nodeINS_17__hash_value_typeIcNS_10unique_ptrIN6spdlog21custom_flag_formatterENS_14default_deleteIS6_EEEEEEPvEEEENS_25__bucket_list_deallocatorINS_9allocatorISF_EEEEEC1B8ue170006ISG_SK_EEOT_OT0_, symObjAddr: 0xEB94, symBinAddr: 0x10000FB14, symSize: 0x3C }
  - { offsetInCU: 0x6E1A8, offset: 0x6E1A8, size: 0x8, addend: 0x0, symName: __ZNSt3__117__compressed_pairIPPNS_16__hash_node_baseIPNS_11__hash_nodeINS_17__hash_value_typeIcNS_10unique_ptrIN6spdlog21custom_flag_formatterENS_14default_deleteIS6_EEEEEEPvEEEENS_25__bucket_list_deallocatorINS_9allocatorISF_EEEEEC2B8ue170006ISG_SK_EEOT_OT0_, symObjAddr: 0xEBD0, symBinAddr: 0x10000FB50, symSize: 0x48 }
  - { offsetInCU: 0x6E200, offset: 0x6E200, size: 0x8, addend: 0x0, symName: __ZNSt3__122__compressed_pair_elemIPPNS_16__hash_node_baseIPNS_11__hash_nodeINS_17__hash_value_typeIcNS_10unique_ptrIN6spdlog21custom_flag_formatterENS_14default_deleteIS6_EEEEEEPvEEEELi0ELb0EEC2B8ue170006ISG_vEEOT_, symObjAddr: 0xEC18, symBinAddr: 0x10000FB98, symSize: 0x24 }
  - { offsetInCU: 0x6E242, offset: 0x6E242, size: 0x8, addend: 0x0, symName: __ZNSt3__122__compressed_pair_elemINS_25__bucket_list_deallocatorINS_9allocatorIPNS_16__hash_node_baseIPNS_11__hash_nodeINS_17__hash_value_typeIcNS_10unique_ptrIN6spdlog21custom_flag_formatterENS_14default_deleteIS8_EEEEEEPvEEEEEEEELi1ELb0EEC2B8ue170006ISJ_vEEOT_, symObjAddr: 0xEC3C, symBinAddr: 0x10000FBBC, symSize: 0x34 }
  - { offsetInCU: 0x6E284, offset: 0x6E284, size: 0x8, addend: 0x0, symName: __ZNSt3__125__bucket_list_deallocatorINS_9allocatorIPNS_16__hash_node_baseIPNS_11__hash_nodeINS_17__hash_value_typeIcNS_10unique_ptrIN6spdlog21custom_flag_formatterENS_14default_deleteIS7_EEEEEEPvEEEEEEEC1B8ue170006EOSI_, symObjAddr: 0xEC70, symBinAddr: 0x10000FBF0, symSize: 0x34 }
  - { offsetInCU: 0x6E2BD, offset: 0x6E2BD, size: 0x8, addend: 0x0, symName: __ZNSt3__125__bucket_list_deallocatorINS_9allocatorIPNS_16__hash_node_baseIPNS_11__hash_nodeINS_17__hash_value_typeIcNS_10unique_ptrIN6spdlog21custom_flag_formatterENS_14default_deleteIS7_EEEEEEPvEEEEEEEC2B8ue170006EOSI_, symObjAddr: 0xECA4, symBinAddr: 0x10000FC24, symSize: 0x48 }
  - { offsetInCU: 0x6E2F6, offset: 0x6E2F6, size: 0x8, addend: 0x0, symName: __ZN6spdlog17pattern_formatterC2ENSt3__112basic_stringIcNS1_11char_traitsIcEENS1_9allocatorIcEEEENS_17pattern_time_typeES7_NS1_13unordered_mapIcNS1_10unique_ptrINS_21custom_flag_formatterENS1_14default_deleteISB_EEEENS1_4hashIcEENS1_8equal_toIcEENS5_INS1_4pairIKcSE_EEEEEE, symObjAddr: 0xECEC, symBinAddr: 0x10000FC6C, symSize: 0x150 }
  - { offsetInCU: 0x6E362, offset: 0x6E362, size: 0x8, addend: 0x0, symName: __ZN6spdlog17pattern_formatter16compile_pattern_ERKNSt3__112basic_stringIcNS1_11char_traitsIcEENS1_9allocatorIcEEEE, symObjAddr: 0xEE3C, symBinAddr: 0x10000FDBC, symSize: 0x2B8 }
  - { offsetInCU: 0x6E3F3, offset: 0x6E3F3, size: 0x8, addend: 0x0, symName: __ZNKSt3__112basic_stringIcNS_11char_traitsIcEENS_9allocatorIcEEE3endB8ue170006Ev, symObjAddr: 0xF0F4, symBinAddr: 0x100010074, symSize: 0x64 }
  - { offsetInCU: 0x6E419, offset: 0x6E419, size: 0x8, addend: 0x0, symName: __ZNSt3__110unique_ptrIN6spdlog7details19aggregate_formatterENS_14default_deleteIS3_EEEC1B8ue170006ILb1EvEEv, symObjAddr: 0xF158, symBinAddr: 0x1000100D8, symSize: 0x2C }
  - { offsetInCU: 0x6E44E, offset: 0x6E44E, size: 0x8, addend: 0x0, symName: __ZNSt3__16vectorINS_10unique_ptrIN6spdlog7details14flag_formatterENS_14default_deleteIS4_EEEENS_9allocatorIS7_EEE5clearB8ue170006Ev, symObjAddr: 0xF184, symBinAddr: 0x100010104, symSize: 0x44 }
  - { offsetInCU: 0x6E483, offset: 0x6E483, size: 0x8, addend: 0x0, symName: __ZNKSt3__112basic_stringIcNS_11char_traitsIcEENS_9allocatorIcEEE5beginB8ue170006Ev, symObjAddr: 0xF1C8, symBinAddr: 0x100010148, symSize: 0x3C }
  - { offsetInCU: 0x6E4A9, offset: 0x6E4A9, size: 0x8, addend: 0x0, symName: __ZNKSt3__111__wrap_iterIPKcEdeB8ue170006Ev, symObjAddr: 0xF238, symBinAddr: 0x1000101B8, symSize: 0x18 }
  - { offsetInCU: 0x6E4CF, offset: 0x6E4CF, size: 0x8, addend: 0x0, symName: __ZNKSt3__110unique_ptrIN6spdlog7details19aggregate_formatterENS_14default_deleteIS3_EEEcvbB8ue170006Ev, symObjAddr: 0xF250, symBinAddr: 0x1000101D0, symSize: 0x34 }
  - { offsetInCU: 0x6E4F5, offset: 0x6E4F5, size: 0x8, addend: 0x0, symName: __ZNSt3__110unique_ptrIN6spdlog7details14flag_formatterENS_14default_deleteIS3_EEEC1B8ue170006INS2_19aggregate_formatterENS4_IS8_EEvvEEONS0_IT_T0_EE, symObjAddr: 0xF284, symBinAddr: 0x100010204, symSize: 0x34 }
  - { offsetInCU: 0x6E541, offset: 0x6E541, size: 0x8, addend: 0x0, symName: __ZN6spdlog17pattern_formatter15handle_padspec_ERNSt3__111__wrap_iterIPKcEES5_, symObjAddr: 0xF2B8, symBinAddr: 0x100010238, symSize: 0x220 }
  - { offsetInCU: 0x6E5E2, offset: 0x6E5E2, size: 0x8, addend: 0x0, symName: __ZNSt3__111__wrap_iterIPKcEppB8ue170006Ev, symObjAddr: 0xF4D8, symBinAddr: 0x100010458, symSize: 0x20 }
  - { offsetInCU: 0x6E608, offset: 0x6E608, size: 0x8, addend: 0x0, symName: __ZNK6spdlog7details12padding_info7enabledEv, symObjAddr: 0xF4F8, symBinAddr: 0x100010478, symSize: 0x1C }
  - { offsetInCU: 0x6E62E, offset: 0x6E62E, size: 0x8, addend: 0x0, symName: __ZN6spdlog17pattern_formatter12handle_flag_INS_7details13scoped_padderEEEvcNS2_12padding_infoE, symObjAddr: 0xF514, symBinAddr: 0x100010494, symSize: 0x16B4 }
  - { offsetInCU: 0x6E6BF, offset: 0x6E6BF, size: 0x8, addend: 0x0, symName: __ZN6spdlog17pattern_formatter12handle_flag_INS_7details18null_scoped_padderEEEvcNS2_12padding_infoE, symObjAddr: 0x10D30, symBinAddr: 0x100011CB0, symSize: 0x169C }
  - { offsetInCU: 0x6E750, offset: 0x6E750, size: 0x8, addend: 0x0, symName: __ZNSt3__110unique_ptrIN6spdlog7details19aggregate_formatterENS_14default_deleteIS3_EEEaSB8ue170006EOS6_, symObjAddr: 0x12584, symBinAddr: 0x100013504, symSize: 0x50 }
  - { offsetInCU: 0x6E784, offset: 0x6E784, size: 0x8, addend: 0x0, symName: __ZNSt3__110unique_ptrIN6spdlog7details19aggregate_formatterENS_14default_deleteIS3_EEED1B8ue170006Ev, symObjAddr: 0x125D4, symBinAddr: 0x100013554, symSize: 0x2C }
  - { offsetInCU: 0x6E7AE, offset: 0x6E7AE, size: 0x8, addend: 0x0, symName: __ZNKSt3__110unique_ptrIN6spdlog7details19aggregate_formatterENS_14default_deleteIS3_EEEptB8ue170006Ev, symObjAddr: 0x12600, symBinAddr: 0x100013580, symSize: 0x28 }
  - { offsetInCU: 0x6E7D4, offset: 0x6E7D4, size: 0x8, addend: 0x0, symName: __ZN6spdlog7details19aggregate_formatter6add_chEc, symObjAddr: 0x12628, symBinAddr: 0x1000135A8, symSize: 0x30 }
  - { offsetInCU: 0x6E809, offset: 0x6E809, size: 0x8, addend: 0x0, symName: __ZNKSt3__112basic_stringIcNS_11char_traitsIcEENS_9allocatorIcEEE21__make_const_iteratorB8ue170006EPKc, symObjAddr: 0x12658, symBinAddr: 0x1000135D8, symSize: 0x30 }
  - { offsetInCU: 0x6E83E, offset: 0x6E83E, size: 0x8, addend: 0x0, symName: __ZNSt3__111__wrap_iterIPKcEC1B8ue170006ES2_, symObjAddr: 0x12688, symBinAddr: 0x100013608, symSize: 0x34 }
  - { offsetInCU: 0x6E876, offset: 0x6E876, size: 0x8, addend: 0x0, symName: __ZNSt3__111__wrap_iterIPKcEC2B8ue170006ES2_, symObjAddr: 0x126BC, symBinAddr: 0x10001363C, symSize: 0x20 }
  - { offsetInCU: 0x6E8AE, offset: 0x6E8AE, size: 0x8, addend: 0x0, symName: __ZNSt3__110unique_ptrIN6spdlog7details19aggregate_formatterENS_14default_deleteIS3_EEEC2B8ue170006ILb1EvEEv, symObjAddr: 0x126DC, symBinAddr: 0x10001365C, symSize: 0x3C }
  - { offsetInCU: 0x6E8E3, offset: 0x6E8E3, size: 0x8, addend: 0x0, symName: __ZNSt3__117__compressed_pairIPN6spdlog7details19aggregate_formatterENS_14default_deleteIS3_EEEC1B8ue170006INS_16__value_init_tagES9_EEOT_OT0_, symObjAddr: 0x12718, symBinAddr: 0x100013698, symSize: 0x3C }
  - { offsetInCU: 0x6E93B, offset: 0x6E93B, size: 0x8, addend: 0x0, symName: __ZNSt3__117__compressed_pairIPN6spdlog7details19aggregate_formatterENS_14default_deleteIS3_EEEC2B8ue170006INS_16__value_init_tagES9_EEOT_OT0_, symObjAddr: 0x12754, symBinAddr: 0x1000136D4, symSize: 0x3C }
  - { offsetInCU: 0x6E993, offset: 0x6E993, size: 0x8, addend: 0x0, symName: __ZNSt3__122__compressed_pair_elemIPN6spdlog7details19aggregate_formatterELi0ELb0EEC2B8ue170006ENS_16__value_init_tagE, symObjAddr: 0x12790, symBinAddr: 0x100013710, symSize: 0x18 }
  - { offsetInCU: 0x6E9C8, offset: 0x6E9C8, size: 0x8, addend: 0x0, symName: __ZNSt3__122__compressed_pair_elemINS_14default_deleteIN6spdlog7details19aggregate_formatterEEELi1ELb1EEC2B8ue170006ENS_16__value_init_tagE, symObjAddr: 0x127A8, symBinAddr: 0x100013728, symSize: 0x14 }
  - { offsetInCU: 0x6E9FD, offset: 0x6E9FD, size: 0x8, addend: 0x0, symName: __ZNKSt3__16vectorINS_10unique_ptrIN6spdlog7details14flag_formatterENS_14default_deleteIS4_EEEENS_9allocatorIS7_EEE17__annotate_shrinkB8ue170006Em, symObjAddr: 0x127BC, symBinAddr: 0x10001373C, symSize: 0xB4 }
  - { offsetInCU: 0x6EA32, offset: 0x6EA32, size: 0x8, addend: 0x0, symName: __ZNKSt3__111__wrap_iterIPKcE4baseB8ue170006Ev, symObjAddr: 0x128B8, symBinAddr: 0x100013838, symSize: 0x18 }
  - { offsetInCU: 0x6EA58, offset: 0x6EA58, size: 0x8, addend: 0x0, symName: __ZNKSt3__117__compressed_pairIPN6spdlog7details19aggregate_formatterENS_14default_deleteIS3_EEE5firstB8ue170006Ev, symObjAddr: 0x128D0, symBinAddr: 0x100013850, symSize: 0x24 }
  - { offsetInCU: 0x6EA7E, offset: 0x6EA7E, size: 0x8, addend: 0x0, symName: __ZNKSt3__122__compressed_pair_elemIPN6spdlog7details19aggregate_formatterELi0ELb0EE5__getB8ue170006Ev, symObjAddr: 0x128F4, symBinAddr: 0x100013874, symSize: 0x14 }
  - { offsetInCU: 0x6EAA4, offset: 0x6EAA4, size: 0x8, addend: 0x0, symName: __ZNSt3__110unique_ptrIN6spdlog7details14flag_formatterENS_14default_deleteIS3_EEEC2B8ue170006INS2_19aggregate_formatterENS4_IS8_EEvvEEONS0_IT_T0_EE, symObjAddr: 0x12908, symBinAddr: 0x100013888, symSize: 0x60 }
  - { offsetInCU: 0x6EAF0, offset: 0x6EAF0, size: 0x8, addend: 0x0, symName: __ZNSt3__110unique_ptrIN6spdlog7details19aggregate_formatterENS_14default_deleteIS3_EEE7releaseB8ue170006Ev, symObjAddr: 0x12968, symBinAddr: 0x1000138E8, symSize: 0x44 }
  - { offsetInCU: 0x6EB25, offset: 0x6EB25, size: 0x8, addend: 0x0, symName: __ZNSt3__110unique_ptrIN6spdlog7details19aggregate_formatterENS_14default_deleteIS3_EEE11get_deleterB8ue170006Ev, symObjAddr: 0x129AC, symBinAddr: 0x10001392C, symSize: 0x24 }
  - { offsetInCU: 0x6EB57, offset: 0x6EB57, size: 0x8, addend: 0x0, symName: __ZNSt3__117__compressed_pairIPN6spdlog7details14flag_formatterENS_14default_deleteIS3_EEEC1B8ue170006IPNS2_19aggregate_formatterENS5_IS9_EEEEOT_OT0_, symObjAddr: 0x129D0, symBinAddr: 0x100013950, symSize: 0x3C }
  - { offsetInCU: 0x6EBAF, offset: 0x6EBAF, size: 0x8, addend: 0x0, symName: __ZNSt3__117__compressed_pairIPN6spdlog7details19aggregate_formatterENS_14default_deleteIS3_EEE5firstB8ue170006Ev, symObjAddr: 0x12A0C, symBinAddr: 0x10001398C, symSize: 0x24 }
  - { offsetInCU: 0x6EBD5, offset: 0x6EBD5, size: 0x8, addend: 0x0, symName: __ZNSt3__122__compressed_pair_elemIPN6spdlog7details19aggregate_formatterELi0ELb0EE5__getB8ue170006Ev, symObjAddr: 0x12A30, symBinAddr: 0x1000139B0, symSize: 0x14 }
  - { offsetInCU: 0x6EBFB, offset: 0x6EBFB, size: 0x8, addend: 0x0, symName: __ZNSt3__117__compressed_pairIPN6spdlog7details19aggregate_formatterENS_14default_deleteIS3_EEE6secondB8ue170006Ev, symObjAddr: 0x12A44, symBinAddr: 0x1000139C4, symSize: 0x24 }
  - { offsetInCU: 0x6EC21, offset: 0x6EC21, size: 0x8, addend: 0x0, symName: __ZNSt3__122__compressed_pair_elemINS_14default_deleteIN6spdlog7details19aggregate_formatterEEELi1ELb1EE5__getB8ue170006Ev, symObjAddr: 0x12A68, symBinAddr: 0x1000139E8, symSize: 0x14 }
  - { offsetInCU: 0x6EC47, offset: 0x6EC47, size: 0x8, addend: 0x0, symName: __ZNSt3__117__compressed_pairIPN6spdlog7details14flag_formatterENS_14default_deleteIS3_EEEC2B8ue170006IPNS2_19aggregate_formatterENS5_IS9_EEEEOT_OT0_, symObjAddr: 0x12A7C, symBinAddr: 0x1000139FC, symSize: 0x44 }
  - { offsetInCU: 0x6EC9F, offset: 0x6EC9F, size: 0x8, addend: 0x0, symName: __ZNSt3__122__compressed_pair_elemIPN6spdlog7details14flag_formatterELi0ELb0EEC2B8ue170006IPNS2_19aggregate_formatterEvEEOT_, symObjAddr: 0x12AC0, symBinAddr: 0x100013A40, symSize: 0x24 }
  - { offsetInCU: 0x6ECE1, offset: 0x6ECE1, size: 0x8, addend: 0x0, symName: __ZNSt3__122__compressed_pair_elemINS_14default_deleteIN6spdlog7details14flag_formatterEEELi1ELb1EEC2B8ue170006INS1_INS3_19aggregate_formatterEEEvEEOT_, symObjAddr: 0x12AE4, symBinAddr: 0x100013A64, symSize: 0x38 }
  - { offsetInCU: 0x6ED23, offset: 0x6ED23, size: 0x8, addend: 0x0, symName: __ZNSt3__114default_deleteIN6spdlog7details14flag_formatterEEC2B8ue170006INS2_19aggregate_formatterEEERKNS0_IT_EEPNS_9enable_ifIXsr14is_convertibleIPS7_PS3_EE5valueEvE4typeE, symObjAddr: 0x12B1C, symBinAddr: 0x100013A9C, symSize: 0x1C }
  - { offsetInCU: 0x6ED6C, offset: 0x6ED6C, size: 0x8, addend: 0x0, symName: __ZN6spdlog7details12padding_infoC1EmNS1_8pad_sideEb, symObjAddr: 0x12B60, symBinAddr: 0x100013AE0, symSize: 0x50 }
  - { offsetInCU: 0x6EDBF, offset: 0x6EDBF, size: 0x8, addend: 0x0, symName: __Z9__isctypeim, symObjAddr: 0x12BB0, symBinAddr: 0x100013B30, symSize: 0x80 }
  - { offsetInCU: 0x6EDFA, offset: 0x6EDFA, size: 0x8, addend: 0x0, symName: __ZN6spdlog7details12padding_infoC2EmNS1_8pad_sideEb, symObjAddr: 0x12C30, symBinAddr: 0x100013BB0, symSize: 0x4C }
  - { offsetInCU: 0x6EE4E, offset: 0x6EE4E, size: 0x8, addend: 0x0, symName: __ZNSt3__113unordered_mapIcNS_10unique_ptrIN6spdlog21custom_flag_formatterENS_14default_deleteIS3_EEEENS_4hashIcEENS_8equal_toIcEENS_9allocatorINS_4pairIKcS6_EEEEE4findB8ue170006ERSD_, symObjAddr: 0x12C7C, symBinAddr: 0x100013BFC, symSize: 0x40 }
  - { offsetInCU: 0x6EE83, offset: 0x6EE83, size: 0x8, addend: 0x0, symName: __ZNSt3__113unordered_mapIcNS_10unique_ptrIN6spdlog21custom_flag_formatterENS_14default_deleteIS3_EEEENS_4hashIcEENS_8equal_toIcEENS_9allocatorINS_4pairIKcS6_EEEEE3endB8ue170006Ev, symObjAddr: 0x12CEC, symBinAddr: 0x100013C6C, symSize: 0x38 }
  - { offsetInCU: 0x6EEA9, offset: 0x6EEA9, size: 0x8, addend: 0x0, symName: __ZNKSt3__119__hash_map_iteratorINS_15__hash_iteratorIPNS_11__hash_nodeINS_17__hash_value_typeIcNS_10unique_ptrIN6spdlog21custom_flag_formatterENS_14default_deleteIS6_EEEEEEPvEEEEEptB8ue170006Ev, symObjAddr: 0x12D24, symBinAddr: 0x100013CA4, symSize: 0x2C }
  - { offsetInCU: 0x6EECF, offset: 0x6EECF, size: 0x8, addend: 0x0, symName: __ZN6spdlog21custom_flag_formatter16set_padding_infoERKNS_7details12padding_infoE, symObjAddr: 0x12D50, symBinAddr: 0x100013CD0, symSize: 0x2C }
  - { offsetInCU: 0x6EF03, offset: 0x6EF03, size: 0x8, addend: 0x0, symName: __ZNSt3__110unique_ptrIN6spdlog7details14flag_formatterENS_14default_deleteIS3_EEEC1B8ue170006INS1_21custom_flag_formatterENS4_IS8_EEvvEEONS0_IT_T0_EE, symObjAddr: 0x12D7C, symBinAddr: 0x100013CFC, symSize: 0x34 }
  - { offsetInCU: 0x6EF4F, offset: 0x6EF4F, size: 0x8, addend: 0x0, symName: __ZNSt3__110unique_ptrIN6spdlog7details14flag_formatterENS_14default_deleteIS3_EEEC1B8ue170006INS2_14name_formatterINS2_13scoped_padderEEENS4_ISA_EEvvEEONS0_IT_T0_EE, symObjAddr: 0x12EA8, symBinAddr: 0x100013E28, symSize: 0x34 }
  - { offsetInCU: 0x6EF9B, offset: 0x6EF9B, size: 0x8, addend: 0x0, symName: __ZNSt3__110unique_ptrIN6spdlog7details14name_formatterINS2_13scoped_padderEEENS_14default_deleteIS5_EEED1B8ue170006Ev, symObjAddr: 0x12EDC, symBinAddr: 0x100013E5C, symSize: 0x2C }
  - { offsetInCU: 0x6EFC5, offset: 0x6EFC5, size: 0x8, addend: 0x0, symName: __ZNSt3__110unique_ptrIN6spdlog7details14flag_formatterENS_14default_deleteIS3_EEEC1B8ue170006INS2_15level_formatterINS2_13scoped_padderEEENS4_ISA_EEvvEEONS0_IT_T0_EE, symObjAddr: 0x12F84, symBinAddr: 0x100013F04, symSize: 0x34 }
  - { offsetInCU: 0x6F011, offset: 0x6F011, size: 0x8, addend: 0x0, symName: __ZNSt3__110unique_ptrIN6spdlog7details15level_formatterINS2_13scoped_padderEEENS_14default_deleteIS5_EEED1B8ue170006Ev, symObjAddr: 0x12FB8, symBinAddr: 0x100013F38, symSize: 0x2C }
  - { offsetInCU: 0x6F03B, offset: 0x6F03B, size: 0x8, addend: 0x0, symName: __ZNSt3__110unique_ptrIN6spdlog7details14flag_formatterENS_14default_deleteIS3_EEEC1B8ue170006INS2_21short_level_formatterINS2_13scoped_padderEEENS4_ISA_EEvvEEONS0_IT_T0_EE, symObjAddr: 0x13060, symBinAddr: 0x100013FE0, symSize: 0x34 }
  - { offsetInCU: 0x6F087, offset: 0x6F087, size: 0x8, addend: 0x0, symName: __ZNSt3__110unique_ptrIN6spdlog7details21short_level_formatterINS2_13scoped_padderEEENS_14default_deleteIS5_EEED1B8ue170006Ev, symObjAddr: 0x13094, symBinAddr: 0x100014014, symSize: 0x2C }
  - { offsetInCU: 0x6F0B1, offset: 0x6F0B1, size: 0x8, addend: 0x0, symName: __ZNSt3__110unique_ptrIN6spdlog7details14flag_formatterENS_14default_deleteIS3_EEEC1B8ue170006INS2_11t_formatterINS2_13scoped_padderEEENS4_ISA_EEvvEEONS0_IT_T0_EE, symObjAddr: 0x1313C, symBinAddr: 0x1000140BC, symSize: 0x34 }
  - { offsetInCU: 0x6F0FD, offset: 0x6F0FD, size: 0x8, addend: 0x0, symName: __ZNSt3__110unique_ptrIN6spdlog7details11t_formatterINS2_13scoped_padderEEENS_14default_deleteIS5_EEED1B8ue170006Ev, symObjAddr: 0x13170, symBinAddr: 0x1000140F0, symSize: 0x2C }
  - { offsetInCU: 0x6F127, offset: 0x6F127, size: 0x8, addend: 0x0, symName: __ZNSt3__110unique_ptrIN6spdlog7details14flag_formatterENS_14default_deleteIS3_EEEC1B8ue170006INS2_11v_formatterINS2_13scoped_padderEEENS4_ISA_EEvvEEONS0_IT_T0_EE, symObjAddr: 0x13218, symBinAddr: 0x100014198, symSize: 0x34 }
  - { offsetInCU: 0x6F173, offset: 0x6F173, size: 0x8, addend: 0x0, symName: __ZNSt3__110unique_ptrIN6spdlog7details11v_formatterINS2_13scoped_padderEEENS_14default_deleteIS5_EEED1B8ue170006Ev, symObjAddr: 0x1324C, symBinAddr: 0x1000141CC, symSize: 0x2C }
  - { offsetInCU: 0x6F19D, offset: 0x6F19D, size: 0x8, addend: 0x0, symName: __ZNSt3__110unique_ptrIN6spdlog7details14flag_formatterENS_14default_deleteIS3_EEEC1B8ue170006INS2_11a_formatterINS2_13scoped_padderEEENS4_ISA_EEvvEEONS0_IT_T0_EE, symObjAddr: 0x132F4, symBinAddr: 0x100014274, symSize: 0x34 }
  - { offsetInCU: 0x6F1E9, offset: 0x6F1E9, size: 0x8, addend: 0x0, symName: __ZNSt3__110unique_ptrIN6spdlog7details11a_formatterINS2_13scoped_padderEEENS_14default_deleteIS5_EEED1B8ue170006Ev, symObjAddr: 0x13328, symBinAddr: 0x1000142A8, symSize: 0x2C }
  - { offsetInCU: 0x6F213, offset: 0x6F213, size: 0x8, addend: 0x0, symName: __ZNSt3__110unique_ptrIN6spdlog7details14flag_formatterENS_14default_deleteIS3_EEEC1B8ue170006INS2_11A_formatterINS2_13scoped_padderEEENS4_ISA_EEvvEEONS0_IT_T0_EE, symObjAddr: 0x133D0, symBinAddr: 0x100014350, symSize: 0x34 }
  - { offsetInCU: 0x6F25F, offset: 0x6F25F, size: 0x8, addend: 0x0, symName: __ZNSt3__110unique_ptrIN6spdlog7details11A_formatterINS2_13scoped_padderEEENS_14default_deleteIS5_EEED1B8ue170006Ev, symObjAddr: 0x13404, symBinAddr: 0x100014384, symSize: 0x2C }
  - { offsetInCU: 0x6F289, offset: 0x6F289, size: 0x8, addend: 0x0, symName: __ZNSt3__110unique_ptrIN6spdlog7details14flag_formatterENS_14default_deleteIS3_EEEC1B8ue170006INS2_11b_formatterINS2_13scoped_padderEEENS4_ISA_EEvvEEONS0_IT_T0_EE, symObjAddr: 0x134AC, symBinAddr: 0x10001442C, symSize: 0x34 }
  - { offsetInCU: 0x6F2D5, offset: 0x6F2D5, size: 0x8, addend: 0x0, symName: __ZNSt3__110unique_ptrIN6spdlog7details11b_formatterINS2_13scoped_padderEEENS_14default_deleteIS5_EEED1B8ue170006Ev, symObjAddr: 0x134E0, symBinAddr: 0x100014460, symSize: 0x2C }
  - { offsetInCU: 0x6F2FF, offset: 0x6F2FF, size: 0x8, addend: 0x0, symName: __ZNSt3__110unique_ptrIN6spdlog7details14flag_formatterENS_14default_deleteIS3_EEEC1B8ue170006INS2_11B_formatterINS2_13scoped_padderEEENS4_ISA_EEvvEEONS0_IT_T0_EE, symObjAddr: 0x13588, symBinAddr: 0x100014508, symSize: 0x34 }
  - { offsetInCU: 0x6F34B, offset: 0x6F34B, size: 0x8, addend: 0x0, symName: __ZNSt3__110unique_ptrIN6spdlog7details11B_formatterINS2_13scoped_padderEEENS_14default_deleteIS5_EEED1B8ue170006Ev, symObjAddr: 0x135BC, symBinAddr: 0x10001453C, symSize: 0x2C }
  - { offsetInCU: 0x6F375, offset: 0x6F375, size: 0x8, addend: 0x0, symName: __ZNSt3__110unique_ptrIN6spdlog7details14flag_formatterENS_14default_deleteIS3_EEEC1B8ue170006INS2_11c_formatterINS2_13scoped_padderEEENS4_ISA_EEvvEEONS0_IT_T0_EE, symObjAddr: 0x13664, symBinAddr: 0x1000145E4, symSize: 0x34 }
  - { offsetInCU: 0x6F3C1, offset: 0x6F3C1, size: 0x8, addend: 0x0, symName: __ZNSt3__110unique_ptrIN6spdlog7details11c_formatterINS2_13scoped_padderEEENS_14default_deleteIS5_EEED1B8ue170006Ev, symObjAddr: 0x13698, symBinAddr: 0x100014618, symSize: 0x2C }
  - { offsetInCU: 0x6F3EB, offset: 0x6F3EB, size: 0x8, addend: 0x0, symName: __ZNSt3__110unique_ptrIN6spdlog7details14flag_formatterENS_14default_deleteIS3_EEEC1B8ue170006INS2_11C_formatterINS2_13scoped_padderEEENS4_ISA_EEvvEEONS0_IT_T0_EE, symObjAddr: 0x13740, symBinAddr: 0x1000146C0, symSize: 0x34 }
  - { offsetInCU: 0x6F437, offset: 0x6F437, size: 0x8, addend: 0x0, symName: __ZNSt3__110unique_ptrIN6spdlog7details11C_formatterINS2_13scoped_padderEEENS_14default_deleteIS5_EEED1B8ue170006Ev, symObjAddr: 0x13774, symBinAddr: 0x1000146F4, symSize: 0x2C }
  - { offsetInCU: 0x6F461, offset: 0x6F461, size: 0x8, addend: 0x0, symName: __ZNSt3__110unique_ptrIN6spdlog7details14flag_formatterENS_14default_deleteIS3_EEEC1B8ue170006INS2_11Y_formatterINS2_13scoped_padderEEENS4_ISA_EEvvEEONS0_IT_T0_EE, symObjAddr: 0x1381C, symBinAddr: 0x10001479C, symSize: 0x34 }
  - { offsetInCU: 0x6F4AD, offset: 0x6F4AD, size: 0x8, addend: 0x0, symName: __ZNSt3__110unique_ptrIN6spdlog7details11Y_formatterINS2_13scoped_padderEEENS_14default_deleteIS5_EEED1B8ue170006Ev, symObjAddr: 0x13850, symBinAddr: 0x1000147D0, symSize: 0x2C }
  - { offsetInCU: 0x6F4D7, offset: 0x6F4D7, size: 0x8, addend: 0x0, symName: __ZNSt3__110unique_ptrIN6spdlog7details14flag_formatterENS_14default_deleteIS3_EEEC1B8ue170006INS2_11D_formatterINS2_13scoped_padderEEENS4_ISA_EEvvEEONS0_IT_T0_EE, symObjAddr: 0x138F8, symBinAddr: 0x100014878, symSize: 0x34 }
  - { offsetInCU: 0x6F523, offset: 0x6F523, size: 0x8, addend: 0x0, symName: __ZNSt3__110unique_ptrIN6spdlog7details11D_formatterINS2_13scoped_padderEEENS_14default_deleteIS5_EEED1B8ue170006Ev, symObjAddr: 0x1392C, symBinAddr: 0x1000148AC, symSize: 0x2C }
  - { offsetInCU: 0x6F54D, offset: 0x6F54D, size: 0x8, addend: 0x0, symName: __ZNSt3__110unique_ptrIN6spdlog7details14flag_formatterENS_14default_deleteIS3_EEEC1B8ue170006INS2_11m_formatterINS2_13scoped_padderEEENS4_ISA_EEvvEEONS0_IT_T0_EE, symObjAddr: 0x139D4, symBinAddr: 0x100014954, symSize: 0x34 }
  - { offsetInCU: 0x6F599, offset: 0x6F599, size: 0x8, addend: 0x0, symName: __ZNSt3__110unique_ptrIN6spdlog7details11m_formatterINS2_13scoped_padderEEENS_14default_deleteIS5_EEED1B8ue170006Ev, symObjAddr: 0x13A08, symBinAddr: 0x100014988, symSize: 0x2C }
  - { offsetInCU: 0x6F5C3, offset: 0x6F5C3, size: 0x8, addend: 0x0, symName: __ZNSt3__110unique_ptrIN6spdlog7details14flag_formatterENS_14default_deleteIS3_EEEC1B8ue170006INS2_11d_formatterINS2_13scoped_padderEEENS4_ISA_EEvvEEONS0_IT_T0_EE, symObjAddr: 0x13AB0, symBinAddr: 0x100014A30, symSize: 0x34 }
  - { offsetInCU: 0x6F60F, offset: 0x6F60F, size: 0x8, addend: 0x0, symName: __ZNSt3__110unique_ptrIN6spdlog7details11d_formatterINS2_13scoped_padderEEENS_14default_deleteIS5_EEED1B8ue170006Ev, symObjAddr: 0x13AE4, symBinAddr: 0x100014A64, symSize: 0x2C }
  - { offsetInCU: 0x6F639, offset: 0x6F639, size: 0x8, addend: 0x0, symName: __ZNSt3__110unique_ptrIN6spdlog7details14flag_formatterENS_14default_deleteIS3_EEEC1B8ue170006INS2_11H_formatterINS2_13scoped_padderEEENS4_ISA_EEvvEEONS0_IT_T0_EE, symObjAddr: 0x13B8C, symBinAddr: 0x100014B0C, symSize: 0x34 }
  - { offsetInCU: 0x6F685, offset: 0x6F685, size: 0x8, addend: 0x0, symName: __ZNSt3__110unique_ptrIN6spdlog7details11H_formatterINS2_13scoped_padderEEENS_14default_deleteIS5_EEED1B8ue170006Ev, symObjAddr: 0x13BC0, symBinAddr: 0x100014B40, symSize: 0x2C }
  - { offsetInCU: 0x6F6AF, offset: 0x6F6AF, size: 0x8, addend: 0x0, symName: __ZNSt3__110unique_ptrIN6spdlog7details14flag_formatterENS_14default_deleteIS3_EEEC1B8ue170006INS2_11I_formatterINS2_13scoped_padderEEENS4_ISA_EEvvEEONS0_IT_T0_EE, symObjAddr: 0x13C68, symBinAddr: 0x100014BE8, symSize: 0x34 }
  - { offsetInCU: 0x6F6FB, offset: 0x6F6FB, size: 0x8, addend: 0x0, symName: __ZNSt3__110unique_ptrIN6spdlog7details11I_formatterINS2_13scoped_padderEEENS_14default_deleteIS5_EEED1B8ue170006Ev, symObjAddr: 0x13C9C, symBinAddr: 0x100014C1C, symSize: 0x2C }
  - { offsetInCU: 0x6F725, offset: 0x6F725, size: 0x8, addend: 0x0, symName: __ZNSt3__110unique_ptrIN6spdlog7details14flag_formatterENS_14default_deleteIS3_EEEC1B8ue170006INS2_11M_formatterINS2_13scoped_padderEEENS4_ISA_EEvvEEONS0_IT_T0_EE, symObjAddr: 0x13D44, symBinAddr: 0x100014CC4, symSize: 0x34 }
  - { offsetInCU: 0x6F771, offset: 0x6F771, size: 0x8, addend: 0x0, symName: __ZNSt3__110unique_ptrIN6spdlog7details11M_formatterINS2_13scoped_padderEEENS_14default_deleteIS5_EEED1B8ue170006Ev, symObjAddr: 0x13D78, symBinAddr: 0x100014CF8, symSize: 0x2C }
  - { offsetInCU: 0x6F79B, offset: 0x6F79B, size: 0x8, addend: 0x0, symName: __ZNSt3__110unique_ptrIN6spdlog7details14flag_formatterENS_14default_deleteIS3_EEEC1B8ue170006INS2_11S_formatterINS2_13scoped_padderEEENS4_ISA_EEvvEEONS0_IT_T0_EE, symObjAddr: 0x13E20, symBinAddr: 0x100014DA0, symSize: 0x34 }
  - { offsetInCU: 0x6F7E7, offset: 0x6F7E7, size: 0x8, addend: 0x0, symName: __ZNSt3__110unique_ptrIN6spdlog7details11S_formatterINS2_13scoped_padderEEENS_14default_deleteIS5_EEED1B8ue170006Ev, symObjAddr: 0x13E54, symBinAddr: 0x100014DD4, symSize: 0x2C }
  - { offsetInCU: 0x6F811, offset: 0x6F811, size: 0x8, addend: 0x0, symName: __ZNSt3__110unique_ptrIN6spdlog7details14flag_formatterENS_14default_deleteIS3_EEEC1B8ue170006INS2_11e_formatterINS2_13scoped_padderEEENS4_ISA_EEvvEEONS0_IT_T0_EE, symObjAddr: 0x13EFC, symBinAddr: 0x100014E7C, symSize: 0x34 }
  - { offsetInCU: 0x6F85D, offset: 0x6F85D, size: 0x8, addend: 0x0, symName: __ZNSt3__110unique_ptrIN6spdlog7details11e_formatterINS2_13scoped_padderEEENS_14default_deleteIS5_EEED1B8ue170006Ev, symObjAddr: 0x13F30, symBinAddr: 0x100014EB0, symSize: 0x2C }
  - { offsetInCU: 0x6F887, offset: 0x6F887, size: 0x8, addend: 0x0, symName: __ZNSt3__110unique_ptrIN6spdlog7details14flag_formatterENS_14default_deleteIS3_EEEC1B8ue170006INS2_11f_formatterINS2_13scoped_padderEEENS4_ISA_EEvvEEONS0_IT_T0_EE, symObjAddr: 0x13FD8, symBinAddr: 0x100014F58, symSize: 0x34 }
  - { offsetInCU: 0x6F8D3, offset: 0x6F8D3, size: 0x8, addend: 0x0, symName: __ZNSt3__110unique_ptrIN6spdlog7details11f_formatterINS2_13scoped_padderEEENS_14default_deleteIS5_EEED1B8ue170006Ev, symObjAddr: 0x1400C, symBinAddr: 0x100014F8C, symSize: 0x2C }
  - { offsetInCU: 0x6F8FD, offset: 0x6F8FD, size: 0x8, addend: 0x0, symName: __ZNSt3__110unique_ptrIN6spdlog7details14flag_formatterENS_14default_deleteIS3_EEEC1B8ue170006INS2_11F_formatterINS2_13scoped_padderEEENS4_ISA_EEvvEEONS0_IT_T0_EE, symObjAddr: 0x140B4, symBinAddr: 0x100015034, symSize: 0x34 }
  - { offsetInCU: 0x6F949, offset: 0x6F949, size: 0x8, addend: 0x0, symName: __ZNSt3__110unique_ptrIN6spdlog7details11F_formatterINS2_13scoped_padderEEENS_14default_deleteIS5_EEED1B8ue170006Ev, symObjAddr: 0x140E8, symBinAddr: 0x100015068, symSize: 0x2C }
  - { offsetInCU: 0x6F973, offset: 0x6F973, size: 0x8, addend: 0x0, symName: __ZNSt3__110unique_ptrIN6spdlog7details14flag_formatterENS_14default_deleteIS3_EEEC1B8ue170006INS2_11E_formatterINS2_13scoped_padderEEENS4_ISA_EEvvEEONS0_IT_T0_EE, symObjAddr: 0x14190, symBinAddr: 0x100015110, symSize: 0x34 }
  - { offsetInCU: 0x6F9BF, offset: 0x6F9BF, size: 0x8, addend: 0x0, symName: __ZNSt3__110unique_ptrIN6spdlog7details11E_formatterINS2_13scoped_padderEEENS_14default_deleteIS5_EEED1B8ue170006Ev, symObjAddr: 0x141C4, symBinAddr: 0x100015144, symSize: 0x2C }
  - { offsetInCU: 0x6F9E9, offset: 0x6F9E9, size: 0x8, addend: 0x0, symName: __ZNSt3__110unique_ptrIN6spdlog7details14flag_formatterENS_14default_deleteIS3_EEEC1B8ue170006INS2_11p_formatterINS2_13scoped_padderEEENS4_ISA_EEvvEEONS0_IT_T0_EE, symObjAddr: 0x1426C, symBinAddr: 0x1000151EC, symSize: 0x34 }
  - { offsetInCU: 0x6FA35, offset: 0x6FA35, size: 0x8, addend: 0x0, symName: __ZNSt3__110unique_ptrIN6spdlog7details11p_formatterINS2_13scoped_padderEEENS_14default_deleteIS5_EEED1B8ue170006Ev, symObjAddr: 0x142A0, symBinAddr: 0x100015220, symSize: 0x2C }
  - { offsetInCU: 0x6FA5F, offset: 0x6FA5F, size: 0x8, addend: 0x0, symName: __ZNSt3__110unique_ptrIN6spdlog7details14flag_formatterENS_14default_deleteIS3_EEEC1B8ue170006INS2_11r_formatterINS2_13scoped_padderEEENS4_ISA_EEvvEEONS0_IT_T0_EE, symObjAddr: 0x14348, symBinAddr: 0x1000152C8, symSize: 0x34 }
  - { offsetInCU: 0x6FAAB, offset: 0x6FAAB, size: 0x8, addend: 0x0, symName: __ZNSt3__110unique_ptrIN6spdlog7details11r_formatterINS2_13scoped_padderEEENS_14default_deleteIS5_EEED1B8ue170006Ev, symObjAddr: 0x1437C, symBinAddr: 0x1000152FC, symSize: 0x2C }
  - { offsetInCU: 0x6FAD5, offset: 0x6FAD5, size: 0x8, addend: 0x0, symName: __ZNSt3__110unique_ptrIN6spdlog7details14flag_formatterENS_14default_deleteIS3_EEEC1B8ue170006INS2_11R_formatterINS2_13scoped_padderEEENS4_ISA_EEvvEEONS0_IT_T0_EE, symObjAddr: 0x14424, symBinAddr: 0x1000153A4, symSize: 0x34 }
  - { offsetInCU: 0x6FB21, offset: 0x6FB21, size: 0x8, addend: 0x0, symName: __ZNSt3__110unique_ptrIN6spdlog7details11R_formatterINS2_13scoped_padderEEENS_14default_deleteIS5_EEED1B8ue170006Ev, symObjAddr: 0x14458, symBinAddr: 0x1000153D8, symSize: 0x2C }
  - { offsetInCU: 0x6FB4B, offset: 0x6FB4B, size: 0x8, addend: 0x0, symName: __ZNSt3__110unique_ptrIN6spdlog7details14flag_formatterENS_14default_deleteIS3_EEEC1B8ue170006INS2_11T_formatterINS2_13scoped_padderEEENS4_ISA_EEvvEEONS0_IT_T0_EE, symObjAddr: 0x14500, symBinAddr: 0x100015480, symSize: 0x34 }
  - { offsetInCU: 0x6FB97, offset: 0x6FB97, size: 0x8, addend: 0x0, symName: __ZNSt3__110unique_ptrIN6spdlog7details11T_formatterINS2_13scoped_padderEEENS_14default_deleteIS5_EEED1B8ue170006Ev, symObjAddr: 0x14534, symBinAddr: 0x1000154B4, symSize: 0x2C }
  - { offsetInCU: 0x6FBC1, offset: 0x6FBC1, size: 0x8, addend: 0x0, symName: __ZNSt3__110unique_ptrIN6spdlog7details14flag_formatterENS_14default_deleteIS3_EEEC1B8ue170006INS2_11z_formatterINS2_13scoped_padderEEENS4_ISA_EEvvEEONS0_IT_T0_EE, symObjAddr: 0x145DC, symBinAddr: 0x10001555C, symSize: 0x34 }
  - { offsetInCU: 0x6FC0D, offset: 0x6FC0D, size: 0x8, addend: 0x0, symName: __ZNSt3__110unique_ptrIN6spdlog7details11z_formatterINS2_13scoped_padderEEENS_14default_deleteIS5_EEED1B8ue170006Ev, symObjAddr: 0x14610, symBinAddr: 0x100015590, symSize: 0x2C }
  - { offsetInCU: 0x6FC37, offset: 0x6FC37, size: 0x8, addend: 0x0, symName: __ZNSt3__110unique_ptrIN6spdlog7details14flag_formatterENS_14default_deleteIS3_EEEC1B8ue170006INS2_13pid_formatterINS2_13scoped_padderEEENS4_ISA_EEvvEEONS0_IT_T0_EE, symObjAddr: 0x146B8, symBinAddr: 0x100015638, symSize: 0x34 }
  - { offsetInCU: 0x6FC83, offset: 0x6FC83, size: 0x8, addend: 0x0, symName: __ZNSt3__110unique_ptrIN6spdlog7details13pid_formatterINS2_13scoped_padderEEENS_14default_deleteIS5_EEED1B8ue170006Ev, symObjAddr: 0x146EC, symBinAddr: 0x10001566C, symSize: 0x2C }
  - { offsetInCU: 0x6FCAD, offset: 0x6FCAD, size: 0x8, addend: 0x0, symName: __ZNSt3__110unique_ptrIN6spdlog7details14flag_formatterENS_14default_deleteIS3_EEEC1B8ue170006INS2_21color_start_formatterENS4_IS8_EEvvEEONS0_IT_T0_EE, symObjAddr: 0x14794, symBinAddr: 0x100015714, symSize: 0x34 }
  - { offsetInCU: 0x6FCF9, offset: 0x6FCF9, size: 0x8, addend: 0x0, symName: __ZNSt3__110unique_ptrIN6spdlog7details21color_start_formatterENS_14default_deleteIS3_EEED1B8ue170006Ev, symObjAddr: 0x147C8, symBinAddr: 0x100015748, symSize: 0x2C }
  - { offsetInCU: 0x6FD23, offset: 0x6FD23, size: 0x8, addend: 0x0, symName: __ZNSt3__110unique_ptrIN6spdlog7details14flag_formatterENS_14default_deleteIS3_EEEC1B8ue170006INS2_20color_stop_formatterENS4_IS8_EEvvEEONS0_IT_T0_EE, symObjAddr: 0x14870, symBinAddr: 0x1000157F0, symSize: 0x34 }
  - { offsetInCU: 0x6FD6F, offset: 0x6FD6F, size: 0x8, addend: 0x0, symName: __ZNSt3__110unique_ptrIN6spdlog7details20color_stop_formatterENS_14default_deleteIS3_EEED1B8ue170006Ev, symObjAddr: 0x148A4, symBinAddr: 0x100015824, symSize: 0x2C }
  - { offsetInCU: 0x6FD99, offset: 0x6FD99, size: 0x8, addend: 0x0, symName: __ZNSt3__110unique_ptrIN6spdlog7details14flag_formatterENS_14default_deleteIS3_EEEC1B8ue170006INS2_25source_location_formatterINS2_13scoped_padderEEENS4_ISA_EEvvEEONS0_IT_T0_EE, symObjAddr: 0x1494C, symBinAddr: 0x1000158CC, symSize: 0x34 }
  - { offsetInCU: 0x6FDE5, offset: 0x6FDE5, size: 0x8, addend: 0x0, symName: __ZNSt3__110unique_ptrIN6spdlog7details25source_location_formatterINS2_13scoped_padderEEENS_14default_deleteIS5_EEED1B8ue170006Ev, symObjAddr: 0x14980, symBinAddr: 0x100015900, symSize: 0x2C }
  - { offsetInCU: 0x6FE0F, offset: 0x6FE0F, size: 0x8, addend: 0x0, symName: __ZNSt3__110unique_ptrIN6spdlog7details14flag_formatterENS_14default_deleteIS3_EEEC1B8ue170006INS2_24short_filename_formatterINS2_13scoped_padderEEENS4_ISA_EEvvEEONS0_IT_T0_EE, symObjAddr: 0x14A28, symBinAddr: 0x1000159A8, symSize: 0x34 }
  - { offsetInCU: 0x6FE5B, offset: 0x6FE5B, size: 0x8, addend: 0x0, symName: __ZNSt3__110unique_ptrIN6spdlog7details24short_filename_formatterINS2_13scoped_padderEEENS_14default_deleteIS5_EEED1B8ue170006Ev, symObjAddr: 0x14A5C, symBinAddr: 0x1000159DC, symSize: 0x2C }
  - { offsetInCU: 0x6FE85, offset: 0x6FE85, size: 0x8, addend: 0x0, symName: __ZNSt3__110unique_ptrIN6spdlog7details14flag_formatterENS_14default_deleteIS3_EEEC1B8ue170006INS2_25source_filename_formatterINS2_13scoped_padderEEENS4_ISA_EEvvEEONS0_IT_T0_EE, symObjAddr: 0x14B04, symBinAddr: 0x100015A84, symSize: 0x34 }
  - { offsetInCU: 0x6FED1, offset: 0x6FED1, size: 0x8, addend: 0x0, symName: __ZNSt3__110unique_ptrIN6spdlog7details25source_filename_formatterINS2_13scoped_padderEEENS_14default_deleteIS5_EEED1B8ue170006Ev, symObjAddr: 0x14B38, symBinAddr: 0x100015AB8, symSize: 0x2C }
  - { offsetInCU: 0x6FEFB, offset: 0x6FEFB, size: 0x8, addend: 0x0, symName: __ZNSt3__110unique_ptrIN6spdlog7details14flag_formatterENS_14default_deleteIS3_EEEC1B8ue170006INS2_24source_linenum_formatterINS2_13scoped_padderEEENS4_ISA_EEvvEEONS0_IT_T0_EE, symObjAddr: 0x14BE0, symBinAddr: 0x100015B60, symSize: 0x34 }
  - { offsetInCU: 0x6FF47, offset: 0x6FF47, size: 0x8, addend: 0x0, symName: __ZNSt3__110unique_ptrIN6spdlog7details24source_linenum_formatterINS2_13scoped_padderEEENS_14default_deleteIS5_EEED1B8ue170006Ev, symObjAddr: 0x14C14, symBinAddr: 0x100015B94, symSize: 0x2C }
  - { offsetInCU: 0x6FF71, offset: 0x6FF71, size: 0x8, addend: 0x0, symName: __ZNSt3__110unique_ptrIN6spdlog7details14flag_formatterENS_14default_deleteIS3_EEEC1B8ue170006INS2_25source_funcname_formatterINS2_13scoped_padderEEENS4_ISA_EEvvEEONS0_IT_T0_EE, symObjAddr: 0x14CBC, symBinAddr: 0x100015C3C, symSize: 0x34 }
  - { offsetInCU: 0x6FFBD, offset: 0x6FFBD, size: 0x8, addend: 0x0, symName: __ZNSt3__110unique_ptrIN6spdlog7details25source_funcname_formatterINS2_13scoped_padderEEENS_14default_deleteIS5_EEED1B8ue170006Ev, symObjAddr: 0x14CF0, symBinAddr: 0x100015C70, symSize: 0x2C }
  - { offsetInCU: 0x6FFE7, offset: 0x6FFE7, size: 0x8, addend: 0x0, symName: __ZNSt3__110unique_ptrIN6spdlog7details14flag_formatterENS_14default_deleteIS3_EEEC1B8ue170006INS2_12ch_formatterENS4_IS8_EEvvEEONS0_IT_T0_EE, symObjAddr: 0x14D8C, symBinAddr: 0x100015D0C, symSize: 0x34 }
  - { offsetInCU: 0x70033, offset: 0x70033, size: 0x8, addend: 0x0, symName: __ZNSt3__110unique_ptrIN6spdlog7details12ch_formatterENS_14default_deleteIS3_EEED1B8ue170006Ev, symObjAddr: 0x14DC0, symBinAddr: 0x100015D40, symSize: 0x2C }
  - { offsetInCU: 0x7005D, offset: 0x7005D, size: 0x8, addend: 0x0, symName: __ZNSt3__110unique_ptrIN6spdlog7details14flag_formatterENS_14default_deleteIS3_EEEC1B8ue170006INS2_17elapsed_formatterINS2_13scoped_padderENS_6chrono8durationIxNS_5ratioILl1ELl1000000000EEEEEEENS4_ISF_EEvvEEONS0_IT_T0_EE, symObjAddr: 0x14E68, symBinAddr: 0x100015DE8, symSize: 0x34 }
  - { offsetInCU: 0x700A9, offset: 0x700A9, size: 0x8, addend: 0x0, symName: __ZNSt3__110unique_ptrIN6spdlog7details17elapsed_formatterINS2_13scoped_padderENS_6chrono8durationIxNS_5ratioILl1ELl1000000000EEEEEEENS_14default_deleteISA_EEED1B8ue170006Ev, symObjAddr: 0x14E9C, symBinAddr: 0x100015E1C, symSize: 0x2C }
  - { offsetInCU: 0x700D3, offset: 0x700D3, size: 0x8, addend: 0x0, symName: __ZNSt3__110unique_ptrIN6spdlog7details14flag_formatterENS_14default_deleteIS3_EEEC1B8ue170006INS2_17elapsed_formatterINS2_13scoped_padderENS_6chrono8durationIxNS_5ratioILl1ELl1000000EEEEEEENS4_ISF_EEvvEEONS0_IT_T0_EE, symObjAddr: 0x14F44, symBinAddr: 0x100015EC4, symSize: 0x34 }
  - { offsetInCU: 0x7011F, offset: 0x7011F, size: 0x8, addend: 0x0, symName: __ZNSt3__110unique_ptrIN6spdlog7details17elapsed_formatterINS2_13scoped_padderENS_6chrono8durationIxNS_5ratioILl1ELl1000000EEEEEEENS_14default_deleteISA_EEED1B8ue170006Ev, symObjAddr: 0x14F78, symBinAddr: 0x100015EF8, symSize: 0x2C }
  - { offsetInCU: 0x70149, offset: 0x70149, size: 0x8, addend: 0x0, symName: __ZNSt3__110unique_ptrIN6spdlog7details14flag_formatterENS_14default_deleteIS3_EEEC1B8ue170006INS2_17elapsed_formatterINS2_13scoped_padderENS_6chrono8durationIxNS_5ratioILl1ELl1000EEEEEEENS4_ISF_EEvvEEONS0_IT_T0_EE, symObjAddr: 0x15020, symBinAddr: 0x100015FA0, symSize: 0x34 }
  - { offsetInCU: 0x70195, offset: 0x70195, size: 0x8, addend: 0x0, symName: __ZNSt3__110unique_ptrIN6spdlog7details17elapsed_formatterINS2_13scoped_padderENS_6chrono8durationIxNS_5ratioILl1ELl1000EEEEEEENS_14default_deleteISA_EEED1B8ue170006Ev, symObjAddr: 0x15054, symBinAddr: 0x100015FD4, symSize: 0x2C }
  - { offsetInCU: 0x701BF, offset: 0x701BF, size: 0x8, addend: 0x0, symName: __ZNSt3__110unique_ptrIN6spdlog7details14flag_formatterENS_14default_deleteIS3_EEEC1B8ue170006INS2_17elapsed_formatterINS2_13scoped_padderENS_6chrono8durationIxNS_5ratioILl1ELl1EEEEEEENS4_ISF_EEvvEEONS0_IT_T0_EE, symObjAddr: 0x150FC, symBinAddr: 0x10001607C, symSize: 0x34 }
  - { offsetInCU: 0x7020B, offset: 0x7020B, size: 0x8, addend: 0x0, symName: __ZNSt3__110unique_ptrIN6spdlog7details17elapsed_formatterINS2_13scoped_padderENS_6chrono8durationIxNS_5ratioILl1ELl1EEEEEEENS_14default_deleteISA_EEED1B8ue170006Ev, symObjAddr: 0x15130, symBinAddr: 0x1000160B0, symSize: 0x2C }
  - { offsetInCU: 0x70235, offset: 0x70235, size: 0x8, addend: 0x0, symName: __ZNSt3__110unique_ptrIN6spdlog7details14flag_formatterENS_14default_deleteIS3_EEEC1B8ue170006INS2_13mdc_formatterINS2_13scoped_padderEEENS4_ISA_EEvvEEONS0_IT_T0_EE, symObjAddr: 0x151D8, symBinAddr: 0x100016158, symSize: 0x34 }
  - { offsetInCU: 0x70281, offset: 0x70281, size: 0x8, addend: 0x0, symName: __ZNSt3__110unique_ptrIN6spdlog7details13mdc_formatterINS2_13scoped_padderEEENS_14default_deleteIS5_EEED1B8ue170006Ev, symObjAddr: 0x1520C, symBinAddr: 0x10001618C, symSize: 0x2C }
  - { offsetInCU: 0x702AB, offset: 0x702AB, size: 0x8, addend: 0x0, symName: __ZNSt3__112__hash_tableINS_17__hash_value_typeIcNS_10unique_ptrIN6spdlog21custom_flag_formatterENS_14default_deleteIS4_EEEEEENS_22__unordered_map_hasherIcS8_NS_4hashIcEENS_8equal_toIcEELb1EEENS_21__unordered_map_equalIcS8_SD_SB_Lb1EEENS_9allocatorIS8_EEE4findIcEENS_15__hash_iteratorIPNS_11__hash_nodeIS8_PvEEEERKT_, symObjAddr: 0x15238, symBinAddr: 0x1000161B8, symSize: 0x1B0 }
  - { offsetInCU: 0x70335, offset: 0x70335, size: 0x8, addend: 0x0, symName: __ZNSt3__119__hash_map_iteratorINS_15__hash_iteratorIPNS_11__hash_nodeINS_17__hash_value_typeIcNS_10unique_ptrIN6spdlog21custom_flag_formatterENS_14default_deleteIS6_EEEEEEPvEEEEEC1B8ue170006ESE_, symObjAddr: 0x153E8, symBinAddr: 0x100016368, symSize: 0x34 }
  - { offsetInCU: 0x7036E, offset: 0x7036E, size: 0x8, addend: 0x0, symName: __ZNSt3__112__hash_tableINS_17__hash_value_typeIcNS_10unique_ptrIN6spdlog21custom_flag_formatterENS_14default_deleteIS4_EEEEEENS_22__unordered_map_hasherIcS8_NS_4hashIcEENS_8equal_toIcEELb1EEENS_21__unordered_map_equalIcS8_SD_SB_Lb1EEENS_9allocatorIS8_EEE3endEv, symObjAddr: 0x1541C, symBinAddr: 0x10001639C, symSize: 0x2C }
  - { offsetInCU: 0x70396, offset: 0x70396, size: 0x8, addend: 0x0, symName: __ZNSt3__119__hash_map_iteratorINS_15__hash_iteratorIPNS_11__hash_nodeINS_17__hash_value_typeIcNS_10unique_ptrIN6spdlog21custom_flag_formatterENS_14default_deleteIS6_EEEEEEPvEEEEEC2B8ue170006ESE_, symObjAddr: 0x15448, symBinAddr: 0x1000163C8, symSize: 0x20 }
  - { offsetInCU: 0x703CF, offset: 0x703CF, size: 0x8, addend: 0x0, symName: __ZNSt3__114pointer_traitsIPNS_4pairIKcNS_10unique_ptrIN6spdlog21custom_flag_formatterENS_14default_deleteIS5_EEEEEEE10pointer_toB8ue170006ERS9_, symObjAddr: 0x154CC, symBinAddr: 0x10001644C, symSize: 0x14 }
  - { offsetInCU: 0x703F2, offset: 0x703F2, size: 0x8, addend: 0x0, symName: __ZNSt3__110unique_ptrIN6spdlog7details14flag_formatterENS_14default_deleteIS3_EEEC2B8ue170006INS1_21custom_flag_formatterENS4_IS8_EEvvEEONS0_IT_T0_EE, symObjAddr: 0x154E0, symBinAddr: 0x100016460, symSize: 0x60 }
  - { offsetInCU: 0x7044A, offset: 0x7044A, size: 0x8, addend: 0x0, symName: __ZNSt3__117__compressed_pairIPN6spdlog7details14flag_formatterENS_14default_deleteIS3_EEEC1B8ue170006IPNS1_21custom_flag_formatterENS5_IS9_EEEEOT_OT0_, symObjAddr: 0x15540, symBinAddr: 0x1000164C0, symSize: 0x3C }
  - { offsetInCU: 0x704A2, offset: 0x704A2, size: 0x8, addend: 0x0, symName: __ZNSt3__117__compressed_pairIPN6spdlog7details14flag_formatterENS_14default_deleteIS3_EEEC2B8ue170006IPNS1_21custom_flag_formatterENS5_IS9_EEEEOT_OT0_, symObjAddr: 0x1557C, symBinAddr: 0x1000164FC, symSize: 0x44 }
  - { offsetInCU: 0x704FA, offset: 0x704FA, size: 0x8, addend: 0x0, symName: __ZNSt3__122__compressed_pair_elemIPN6spdlog7details14flag_formatterELi0ELb0EEC2B8ue170006IPNS1_21custom_flag_formatterEvEEOT_, symObjAddr: 0x155C0, symBinAddr: 0x100016540, symSize: 0x24 }
  - { offsetInCU: 0x7053C, offset: 0x7053C, size: 0x8, addend: 0x0, symName: __ZNSt3__122__compressed_pair_elemINS_14default_deleteIN6spdlog7details14flag_formatterEEELi1ELb1EEC2B8ue170006INS1_INS2_21custom_flag_formatterEEEvEEOT_, symObjAddr: 0x155E4, symBinAddr: 0x100016564, symSize: 0x38 }
  - { offsetInCU: 0x7057E, offset: 0x7057E, size: 0x8, addend: 0x0, symName: __ZNSt3__114default_deleteIN6spdlog7details14flag_formatterEEC2B8ue170006INS1_21custom_flag_formatterEEERKNS0_IT_EEPNS_9enable_ifIXsr14is_convertibleIPS7_PS3_EE5valueEvE4typeE, symObjAddr: 0x1561C, symBinAddr: 0x10001659C, symSize: 0x1C }
  - { offsetInCU: 0x705C7, offset: 0x705C7, size: 0x8, addend: 0x0, symName: __ZN6spdlog7details14name_formatterINS0_13scoped_padderEEC1ENS0_12padding_infoE, symObjAddr: 0x15638, symBinAddr: 0x1000165B8, symSize: 0x3C }
  - { offsetInCU: 0x705FF, offset: 0x705FF, size: 0x8, addend: 0x0, symName: __ZNSt3__110unique_ptrIN6spdlog7details14name_formatterINS2_13scoped_padderEEENS_14default_deleteIS5_EEEC1B8ue170006ILb1EvEEPS5_, symObjAddr: 0x15674, symBinAddr: 0x1000165F4, symSize: 0x34 }
  - { offsetInCU: 0x70642, offset: 0x70642, size: 0x8, addend: 0x0, symName: __ZN6spdlog7details14name_formatterINS0_13scoped_padderEEC2ENS0_12padding_infoE, symObjAddr: 0x156A8, symBinAddr: 0x100016628, symSize: 0x5C }
  - { offsetInCU: 0x7067A, offset: 0x7067A, size: 0x8, addend: 0x0, symName: __ZN6spdlog7details14name_formatterINS0_13scoped_padderEED1Ev, symObjAddr: 0x15704, symBinAddr: 0x100016684, symSize: 0x2C }
  - { offsetInCU: 0x706A6, offset: 0x706A6, size: 0x8, addend: 0x0, symName: __ZN6spdlog7details14name_formatterINS0_13scoped_padderEED0Ev, symObjAddr: 0x15730, symBinAddr: 0x1000166B0, symSize: 0x30 }
  - { offsetInCU: 0x706D2, offset: 0x706D2, size: 0x8, addend: 0x0, symName: __ZN6spdlog7details14name_formatterINS0_13scoped_padderEE6formatERKNS0_7log_msgERK2tmRN3fmt3v1019basic_memory_bufferIcLm250ENSt3__19allocatorIcEEEE, symObjAddr: 0x15760, symBinAddr: 0x1000166E0, symSize: 0x98 }
  - { offsetInCU: 0x7072D, offset: 0x7072D, size: 0x8, addend: 0x0, symName: __ZN6spdlog7details14name_formatterINS0_13scoped_padderEED2Ev, symObjAddr: 0x157F8, symBinAddr: 0x100016778, symSize: 0x2C }
  - { offsetInCU: 0x70759, offset: 0x70759, size: 0x8, addend: 0x0, symName: __ZN6spdlog7details13scoped_padderC1EmRKNS0_12padding_infoERN3fmt3v1019basic_memory_bufferIcLm250ENSt3__19allocatorIcEEEE, symObjAddr: 0x15824, symBinAddr: 0x1000167A4, symSize: 0x44 }
  - { offsetInCU: 0x707AD, offset: 0x707AD, size: 0x8, addend: 0x0, symName: __ZN6spdlog7details13scoped_padderD1Ev, symObjAddr: 0x15868, symBinAddr: 0x1000167E8, symSize: 0x2C }
  - { offsetInCU: 0x707D7, offset: 0x707D7, size: 0x8, addend: 0x0, symName: __ZN6spdlog7details13scoped_padderC2EmRKNS0_12padding_infoERN3fmt3v1019basic_memory_bufferIcLm250ENSt3__19allocatorIcEEEE, symObjAddr: 0x15894, symBinAddr: 0x100016814, symSize: 0x124 }
  - { offsetInCU: 0x70855, offset: 0x70855, size: 0x8, addend: 0x0, symName: __ZN6spdlog7details13scoped_padder6pad_itEl, symObjAddr: 0x159B8, symBinAddr: 0x100016938, symSize: 0x54 }
  - { offsetInCU: 0x70889, offset: 0x70889, size: 0x8, addend: 0x0, symName: __ZN6spdlog7details13scoped_padderD2Ev, symObjAddr: 0x15A0C, symBinAddr: 0x10001698C, symSize: 0xA4 }
  - { offsetInCU: 0x708CF, offset: 0x708CF, size: 0x8, addend: 0x0, symName: __ZN3fmt3v1019basic_memory_bufferIcLm250ENSt3__19allocatorIcEEE6resizeEm, symObjAddr: 0x15AB0, symBinAddr: 0x100016A30, symSize: 0x2C }
  - { offsetInCU: 0x70904, offset: 0x70904, size: 0x8, addend: 0x0, symName: __ZN3fmt3v106detail6bufferIcE10try_resizeEm, symObjAddr: 0x15ADC, symBinAddr: 0x100016A5C, symSize: 0x74 }
  - { offsetInCU: 0x70939, offset: 0x70939, size: 0x8, addend: 0x0, symName: __ZNSt3__110unique_ptrIN6spdlog7details14name_formatterINS2_13scoped_padderEEENS_14default_deleteIS5_EEEC2B8ue170006ILb1EvEEPS5_, symObjAddr: 0x15B50, symBinAddr: 0x100016AD0, symSize: 0x44 }
  - { offsetInCU: 0x7097C, offset: 0x7097C, size: 0x8, addend: 0x0, symName: __ZNSt3__117__compressed_pairIPN6spdlog7details14name_formatterINS2_13scoped_padderEEENS_14default_deleteIS5_EEEC1B8ue170006IRS6_NS_16__value_init_tagEEEOT_OT0_, symObjAddr: 0x15B94, symBinAddr: 0x100016B14, symSize: 0x3C }
  - { offsetInCU: 0x709D4, offset: 0x709D4, size: 0x8, addend: 0x0, symName: __ZNSt3__117__compressed_pairIPN6spdlog7details14name_formatterINS2_13scoped_padderEEENS_14default_deleteIS5_EEEC2B8ue170006IRS6_NS_16__value_init_tagEEEOT_OT0_, symObjAddr: 0x15BD0, symBinAddr: 0x100016B50, symSize: 0x40 }
  - { offsetInCU: 0x70A2C, offset: 0x70A2C, size: 0x8, addend: 0x0, symName: __ZNSt3__122__compressed_pair_elemIPN6spdlog7details14name_formatterINS2_13scoped_padderEEELi0ELb0EEC2B8ue170006IRS6_vEEOT_, symObjAddr: 0x15C10, symBinAddr: 0x100016B90, symSize: 0x24 }
  - { offsetInCU: 0x70A6E, offset: 0x70A6E, size: 0x8, addend: 0x0, symName: __ZNSt3__122__compressed_pair_elemINS_14default_deleteIN6spdlog7details14name_formatterINS3_13scoped_padderEEEEELi1ELb1EEC2B8ue170006ENS_16__value_init_tagE, symObjAddr: 0x15C34, symBinAddr: 0x100016BB4, symSize: 0x14 }
  - { offsetInCU: 0x70AA3, offset: 0x70AA3, size: 0x8, addend: 0x0, symName: __ZNSt3__110unique_ptrIN6spdlog7details14flag_formatterENS_14default_deleteIS3_EEEC2B8ue170006INS2_14name_formatterINS2_13scoped_padderEEENS4_ISA_EEvvEEONS0_IT_T0_EE, symObjAddr: 0x15C48, symBinAddr: 0x100016BC8, symSize: 0x60 }
  - { offsetInCU: 0x70AEF, offset: 0x70AEF, size: 0x8, addend: 0x0, symName: __ZNSt3__110unique_ptrIN6spdlog7details14name_formatterINS2_13scoped_padderEEENS_14default_deleteIS5_EEE7releaseB8ue170006Ev, symObjAddr: 0x15CA8, symBinAddr: 0x100016C28, symSize: 0x44 }
  - { offsetInCU: 0x70B24, offset: 0x70B24, size: 0x8, addend: 0x0, symName: __ZNSt3__110unique_ptrIN6spdlog7details14name_formatterINS2_13scoped_padderEEENS_14default_deleteIS5_EEE11get_deleterB8ue170006Ev, symObjAddr: 0x15CEC, symBinAddr: 0x100016C6C, symSize: 0x24 }
  - { offsetInCU: 0x70B56, offset: 0x70B56, size: 0x8, addend: 0x0, symName: __ZNSt3__117__compressed_pairIPN6spdlog7details14flag_formatterENS_14default_deleteIS3_EEEC1B8ue170006IPNS2_14name_formatterINS2_13scoped_padderEEENS5_ISB_EEEEOT_OT0_, symObjAddr: 0x15D10, symBinAddr: 0x100016C90, symSize: 0x3C }
  - { offsetInCU: 0x70BAE, offset: 0x70BAE, size: 0x8, addend: 0x0, symName: __ZNSt3__117__compressed_pairIPN6spdlog7details14name_formatterINS2_13scoped_padderEEENS_14default_deleteIS5_EEE5firstB8ue170006Ev, symObjAddr: 0x15D4C, symBinAddr: 0x100016CCC, symSize: 0x24 }
  - { offsetInCU: 0x70BD4, offset: 0x70BD4, size: 0x8, addend: 0x0, symName: __ZNSt3__122__compressed_pair_elemIPN6spdlog7details14name_formatterINS2_13scoped_padderEEELi0ELb0EE5__getB8ue170006Ev, symObjAddr: 0x15D70, symBinAddr: 0x100016CF0, symSize: 0x14 }
  - { offsetInCU: 0x70BFA, offset: 0x70BFA, size: 0x8, addend: 0x0, symName: __ZNSt3__117__compressed_pairIPN6spdlog7details14name_formatterINS2_13scoped_padderEEENS_14default_deleteIS5_EEE6secondB8ue170006Ev, symObjAddr: 0x15D84, symBinAddr: 0x100016D04, symSize: 0x24 }
  - { offsetInCU: 0x70C20, offset: 0x70C20, size: 0x8, addend: 0x0, symName: __ZNSt3__122__compressed_pair_elemINS_14default_deleteIN6spdlog7details14name_formatterINS3_13scoped_padderEEEEELi1ELb1EE5__getB8ue170006Ev, symObjAddr: 0x15DA8, symBinAddr: 0x100016D28, symSize: 0x14 }
  - { offsetInCU: 0x70C46, offset: 0x70C46, size: 0x8, addend: 0x0, symName: __ZNSt3__117__compressed_pairIPN6spdlog7details14flag_formatterENS_14default_deleteIS3_EEEC2B8ue170006IPNS2_14name_formatterINS2_13scoped_padderEEENS5_ISB_EEEEOT_OT0_, symObjAddr: 0x15DBC, symBinAddr: 0x100016D3C, symSize: 0x44 }
  - { offsetInCU: 0x70C9E, offset: 0x70C9E, size: 0x8, addend: 0x0, symName: __ZNSt3__122__compressed_pair_elemIPN6spdlog7details14flag_formatterELi0ELb0EEC2B8ue170006IPNS2_14name_formatterINS2_13scoped_padderEEEvEEOT_, symObjAddr: 0x15E00, symBinAddr: 0x100016D80, symSize: 0x24 }
  - { offsetInCU: 0x70CE0, offset: 0x70CE0, size: 0x8, addend: 0x0, symName: __ZNSt3__122__compressed_pair_elemINS_14default_deleteIN6spdlog7details14flag_formatterEEELi1ELb1EEC2B8ue170006INS1_INS3_14name_formatterINS3_13scoped_padderEEEEEvEEOT_, symObjAddr: 0x15E24, symBinAddr: 0x100016DA4, symSize: 0x38 }
  - { offsetInCU: 0x70D22, offset: 0x70D22, size: 0x8, addend: 0x0, symName: __ZNSt3__114default_deleteIN6spdlog7details14flag_formatterEEC2B8ue170006INS2_14name_formatterINS2_13scoped_padderEEEEERKNS0_IT_EEPNS_9enable_ifIXsr14is_convertibleIPS9_PS3_EE5valueEvE4typeE, symObjAddr: 0x15E5C, symBinAddr: 0x100016DDC, symSize: 0x1C }
  - { offsetInCU: 0x70D6B, offset: 0x70D6B, size: 0x8, addend: 0x0, symName: __ZNSt3__110unique_ptrIN6spdlog7details14name_formatterINS2_13scoped_padderEEENS_14default_deleteIS5_EEED2B8ue170006Ev, symObjAddr: 0x15E78, symBinAddr: 0x100016DF8, symSize: 0x30 }
  - { offsetInCU: 0x70D95, offset: 0x70D95, size: 0x8, addend: 0x0, symName: __ZNSt3__110unique_ptrIN6spdlog7details14name_formatterINS2_13scoped_padderEEENS_14default_deleteIS5_EEE5resetB8ue170006EPS5_, symObjAddr: 0x15EA8, symBinAddr: 0x100016E28, symSize: 0x78 }
  - { offsetInCU: 0x70DD9, offset: 0x70DD9, size: 0x8, addend: 0x0, symName: __ZNKSt3__114default_deleteIN6spdlog7details14name_formatterINS2_13scoped_padderEEEEclB8ue170006EPS5_, symObjAddr: 0x15F20, symBinAddr: 0x100016EA0, symSize: 0x4C }
  - { offsetInCU: 0x70E0D, offset: 0x70E0D, size: 0x8, addend: 0x0, symName: __ZN6spdlog7details15level_formatterINS0_13scoped_padderEEC1ENS0_12padding_infoE, symObjAddr: 0x15F6C, symBinAddr: 0x100016EEC, symSize: 0x3C }
  - { offsetInCU: 0x70E45, offset: 0x70E45, size: 0x8, addend: 0x0, symName: __ZNSt3__110unique_ptrIN6spdlog7details15level_formatterINS2_13scoped_padderEEENS_14default_deleteIS5_EEEC1B8ue170006ILb1EvEEPS5_, symObjAddr: 0x15FA8, symBinAddr: 0x100016F28, symSize: 0x34 }
  - { offsetInCU: 0x70E88, offset: 0x70E88, size: 0x8, addend: 0x0, symName: __ZN6spdlog7details15level_formatterINS0_13scoped_padderEEC2ENS0_12padding_infoE, symObjAddr: 0x15FDC, symBinAddr: 0x100016F5C, symSize: 0x5C }
  - { offsetInCU: 0x70EC0, offset: 0x70EC0, size: 0x8, addend: 0x0, symName: __ZN6spdlog7details15level_formatterINS0_13scoped_padderEED1Ev, symObjAddr: 0x16038, symBinAddr: 0x100016FB8, symSize: 0x2C }
  - { offsetInCU: 0x70EEC, offset: 0x70EEC, size: 0x8, addend: 0x0, symName: __ZN6spdlog7details15level_formatterINS0_13scoped_padderEED0Ev, symObjAddr: 0x16064, symBinAddr: 0x100016FE4, symSize: 0x30 }
  - { offsetInCU: 0x70F18, offset: 0x70F18, size: 0x8, addend: 0x0, symName: __ZN6spdlog7details15level_formatterINS0_13scoped_padderEE6formatERKNS0_7log_msgERK2tmRN3fmt3v1019basic_memory_bufferIcLm250ENSt3__19allocatorIcEEEE, symObjAddr: 0x16094, symBinAddr: 0x100017014, symSize: 0xA8 }
  - { offsetInCU: 0x70F81, offset: 0x70F81, size: 0x8, addend: 0x0, symName: __ZN6spdlog7details15level_formatterINS0_13scoped_padderEED2Ev, symObjAddr: 0x1613C, symBinAddr: 0x1000170BC, symSize: 0x2C }
  - { offsetInCU: 0x70FAD, offset: 0x70FAD, size: 0x8, addend: 0x0, symName: __ZNSt3__110unique_ptrIN6spdlog7details15level_formatterINS2_13scoped_padderEEENS_14default_deleteIS5_EEEC2B8ue170006ILb1EvEEPS5_, symObjAddr: 0x16168, symBinAddr: 0x1000170E8, symSize: 0x44 }
  - { offsetInCU: 0x70FF0, offset: 0x70FF0, size: 0x8, addend: 0x0, symName: __ZNSt3__117__compressed_pairIPN6spdlog7details15level_formatterINS2_13scoped_padderEEENS_14default_deleteIS5_EEEC1B8ue170006IRS6_NS_16__value_init_tagEEEOT_OT0_, symObjAddr: 0x161AC, symBinAddr: 0x10001712C, symSize: 0x3C }
  - { offsetInCU: 0x71048, offset: 0x71048, size: 0x8, addend: 0x0, symName: __ZNSt3__117__compressed_pairIPN6spdlog7details15level_formatterINS2_13scoped_padderEEENS_14default_deleteIS5_EEEC2B8ue170006IRS6_NS_16__value_init_tagEEEOT_OT0_, symObjAddr: 0x161E8, symBinAddr: 0x100017168, symSize: 0x40 }
  - { offsetInCU: 0x710A0, offset: 0x710A0, size: 0x8, addend: 0x0, symName: __ZNSt3__122__compressed_pair_elemIPN6spdlog7details15level_formatterINS2_13scoped_padderEEELi0ELb0EEC2B8ue170006IRS6_vEEOT_, symObjAddr: 0x16228, symBinAddr: 0x1000171A8, symSize: 0x24 }
  - { offsetInCU: 0x710E2, offset: 0x710E2, size: 0x8, addend: 0x0, symName: __ZNSt3__122__compressed_pair_elemINS_14default_deleteIN6spdlog7details15level_formatterINS3_13scoped_padderEEEEELi1ELb1EEC2B8ue170006ENS_16__value_init_tagE, symObjAddr: 0x1624C, symBinAddr: 0x1000171CC, symSize: 0x14 }
  - { offsetInCU: 0x71117, offset: 0x71117, size: 0x8, addend: 0x0, symName: __ZNSt3__110unique_ptrIN6spdlog7details14flag_formatterENS_14default_deleteIS3_EEEC2B8ue170006INS2_15level_formatterINS2_13scoped_padderEEENS4_ISA_EEvvEEONS0_IT_T0_EE, symObjAddr: 0x16260, symBinAddr: 0x1000171E0, symSize: 0x60 }
  - { offsetInCU: 0x71163, offset: 0x71163, size: 0x8, addend: 0x0, symName: __ZNSt3__110unique_ptrIN6spdlog7details15level_formatterINS2_13scoped_padderEEENS_14default_deleteIS5_EEE7releaseB8ue170006Ev, symObjAddr: 0x162C0, symBinAddr: 0x100017240, symSize: 0x44 }
  - { offsetInCU: 0x71198, offset: 0x71198, size: 0x8, addend: 0x0, symName: __ZNSt3__110unique_ptrIN6spdlog7details15level_formatterINS2_13scoped_padderEEENS_14default_deleteIS5_EEE11get_deleterB8ue170006Ev, symObjAddr: 0x16304, symBinAddr: 0x100017284, symSize: 0x24 }
  - { offsetInCU: 0x711CA, offset: 0x711CA, size: 0x8, addend: 0x0, symName: __ZNSt3__117__compressed_pairIPN6spdlog7details14flag_formatterENS_14default_deleteIS3_EEEC1B8ue170006IPNS2_15level_formatterINS2_13scoped_padderEEENS5_ISB_EEEEOT_OT0_, symObjAddr: 0x16328, symBinAddr: 0x1000172A8, symSize: 0x3C }
  - { offsetInCU: 0x71222, offset: 0x71222, size: 0x8, addend: 0x0, symName: __ZNSt3__117__compressed_pairIPN6spdlog7details15level_formatterINS2_13scoped_padderEEENS_14default_deleteIS5_EEE5firstB8ue170006Ev, symObjAddr: 0x16364, symBinAddr: 0x1000172E4, symSize: 0x24 }
  - { offsetInCU: 0x71248, offset: 0x71248, size: 0x8, addend: 0x0, symName: __ZNSt3__122__compressed_pair_elemIPN6spdlog7details15level_formatterINS2_13scoped_padderEEELi0ELb0EE5__getB8ue170006Ev, symObjAddr: 0x16388, symBinAddr: 0x100017308, symSize: 0x14 }
  - { offsetInCU: 0x7126E, offset: 0x7126E, size: 0x8, addend: 0x0, symName: __ZNSt3__117__compressed_pairIPN6spdlog7details15level_formatterINS2_13scoped_padderEEENS_14default_deleteIS5_EEE6secondB8ue170006Ev, symObjAddr: 0x1639C, symBinAddr: 0x10001731C, symSize: 0x24 }
  - { offsetInCU: 0x71294, offset: 0x71294, size: 0x8, addend: 0x0, symName: __ZNSt3__122__compressed_pair_elemINS_14default_deleteIN6spdlog7details15level_formatterINS3_13scoped_padderEEEEELi1ELb1EE5__getB8ue170006Ev, symObjAddr: 0x163C0, symBinAddr: 0x100017340, symSize: 0x14 }
  - { offsetInCU: 0x712BA, offset: 0x712BA, size: 0x8, addend: 0x0, symName: __ZNSt3__117__compressed_pairIPN6spdlog7details14flag_formatterENS_14default_deleteIS3_EEEC2B8ue170006IPNS2_15level_formatterINS2_13scoped_padderEEENS5_ISB_EEEEOT_OT0_, symObjAddr: 0x163D4, symBinAddr: 0x100017354, symSize: 0x44 }
  - { offsetInCU: 0x71312, offset: 0x71312, size: 0x8, addend: 0x0, symName: __ZNSt3__122__compressed_pair_elemIPN6spdlog7details14flag_formatterELi0ELb0EEC2B8ue170006IPNS2_15level_formatterINS2_13scoped_padderEEEvEEOT_, symObjAddr: 0x16418, symBinAddr: 0x100017398, symSize: 0x24 }
  - { offsetInCU: 0x71354, offset: 0x71354, size: 0x8, addend: 0x0, symName: __ZNSt3__122__compressed_pair_elemINS_14default_deleteIN6spdlog7details14flag_formatterEEELi1ELb1EEC2B8ue170006INS1_INS3_15level_formatterINS3_13scoped_padderEEEEEvEEOT_, symObjAddr: 0x1643C, symBinAddr: 0x1000173BC, symSize: 0x38 }
  - { offsetInCU: 0x71396, offset: 0x71396, size: 0x8, addend: 0x0, symName: __ZNSt3__114default_deleteIN6spdlog7details14flag_formatterEEC2B8ue170006INS2_15level_formatterINS2_13scoped_padderEEEEERKNS0_IT_EEPNS_9enable_ifIXsr14is_convertibleIPS9_PS3_EE5valueEvE4typeE, symObjAddr: 0x16474, symBinAddr: 0x1000173F4, symSize: 0x1C }
  - { offsetInCU: 0x713DF, offset: 0x713DF, size: 0x8, addend: 0x0, symName: __ZNSt3__110unique_ptrIN6spdlog7details15level_formatterINS2_13scoped_padderEEENS_14default_deleteIS5_EEED2B8ue170006Ev, symObjAddr: 0x16490, symBinAddr: 0x100017410, symSize: 0x30 }
  - { offsetInCU: 0x71409, offset: 0x71409, size: 0x8, addend: 0x0, symName: __ZNSt3__110unique_ptrIN6spdlog7details15level_formatterINS2_13scoped_padderEEENS_14default_deleteIS5_EEE5resetB8ue170006EPS5_, symObjAddr: 0x164C0, symBinAddr: 0x100017440, symSize: 0x78 }
  - { offsetInCU: 0x7144D, offset: 0x7144D, size: 0x8, addend: 0x0, symName: __ZNKSt3__114default_deleteIN6spdlog7details15level_formatterINS2_13scoped_padderEEEEclB8ue170006EPS5_, symObjAddr: 0x16538, symBinAddr: 0x1000174B8, symSize: 0x4C }
  - { offsetInCU: 0x71481, offset: 0x71481, size: 0x8, addend: 0x0, symName: __ZN6spdlog7details21short_level_formatterINS0_13scoped_padderEEC1ENS0_12padding_infoE, symObjAddr: 0x16584, symBinAddr: 0x100017504, symSize: 0x3C }
  - { offsetInCU: 0x714B9, offset: 0x714B9, size: 0x8, addend: 0x0, symName: __ZNSt3__110unique_ptrIN6spdlog7details21short_level_formatterINS2_13scoped_padderEEENS_14default_deleteIS5_EEEC1B8ue170006ILb1EvEEPS5_, symObjAddr: 0x165C0, symBinAddr: 0x100017540, symSize: 0x34 }
  - { offsetInCU: 0x714FC, offset: 0x714FC, size: 0x8, addend: 0x0, symName: __ZN6spdlog7details21short_level_formatterINS0_13scoped_padderEEC2ENS0_12padding_infoE, symObjAddr: 0x165F4, symBinAddr: 0x100017574, symSize: 0x5C }
  - { offsetInCU: 0x71534, offset: 0x71534, size: 0x8, addend: 0x0, symName: __ZN6spdlog7details21short_level_formatterINS0_13scoped_padderEED1Ev, symObjAddr: 0x16650, symBinAddr: 0x1000175D0, symSize: 0x2C }
  - { offsetInCU: 0x71560, offset: 0x71560, size: 0x8, addend: 0x0, symName: __ZN6spdlog7details21short_level_formatterINS0_13scoped_padderEED0Ev, symObjAddr: 0x1667C, symBinAddr: 0x1000175FC, symSize: 0x30 }
  - { offsetInCU: 0x7158C, offset: 0x7158C, size: 0x8, addend: 0x0, symName: __ZN6spdlog7details21short_level_formatterINS0_13scoped_padderEE6formatERKNS0_7log_msgERK2tmRN3fmt3v1019basic_memory_bufferIcLm250ENSt3__19allocatorIcEEEE, symObjAddr: 0x166AC, symBinAddr: 0x10001762C, symSize: 0xF0 }
  - { offsetInCU: 0x71642, offset: 0x71642, size: 0x8, addend: 0x0, symName: __ZN6spdlog7details21short_level_formatterINS0_13scoped_padderEED2Ev, symObjAddr: 0x1679C, symBinAddr: 0x10001771C, symSize: 0x2C }
  - { offsetInCU: 0x7166E, offset: 0x7166E, size: 0x8, addend: 0x0, symName: __ZNSt3__110unique_ptrIN6spdlog7details21short_level_formatterINS2_13scoped_padderEEENS_14default_deleteIS5_EEEC2B8ue170006ILb1EvEEPS5_, symObjAddr: 0x167E8, symBinAddr: 0x100017768, symSize: 0x44 }
  - { offsetInCU: 0x716B1, offset: 0x716B1, size: 0x8, addend: 0x0, symName: __ZNSt3__117__compressed_pairIPN6spdlog7details21short_level_formatterINS2_13scoped_padderEEENS_14default_deleteIS5_EEEC1B8ue170006IRS6_NS_16__value_init_tagEEEOT_OT0_, symObjAddr: 0x1682C, symBinAddr: 0x1000177AC, symSize: 0x3C }
  - { offsetInCU: 0x71709, offset: 0x71709, size: 0x8, addend: 0x0, symName: __ZNSt3__117__compressed_pairIPN6spdlog7details21short_level_formatterINS2_13scoped_padderEEENS_14default_deleteIS5_EEEC2B8ue170006IRS6_NS_16__value_init_tagEEEOT_OT0_, symObjAddr: 0x16868, symBinAddr: 0x1000177E8, symSize: 0x40 }
  - { offsetInCU: 0x71761, offset: 0x71761, size: 0x8, addend: 0x0, symName: __ZNSt3__122__compressed_pair_elemIPN6spdlog7details21short_level_formatterINS2_13scoped_padderEEELi0ELb0EEC2B8ue170006IRS6_vEEOT_, symObjAddr: 0x168A8, symBinAddr: 0x100017828, symSize: 0x24 }
  - { offsetInCU: 0x717A3, offset: 0x717A3, size: 0x8, addend: 0x0, symName: __ZNSt3__122__compressed_pair_elemINS_14default_deleteIN6spdlog7details21short_level_formatterINS3_13scoped_padderEEEEELi1ELb1EEC2B8ue170006ENS_16__value_init_tagE, symObjAddr: 0x168CC, symBinAddr: 0x10001784C, symSize: 0x14 }
  - { offsetInCU: 0x717D8, offset: 0x717D8, size: 0x8, addend: 0x0, symName: __ZNSt3__110unique_ptrIN6spdlog7details14flag_formatterENS_14default_deleteIS3_EEEC2B8ue170006INS2_21short_level_formatterINS2_13scoped_padderEEENS4_ISA_EEvvEEONS0_IT_T0_EE, symObjAddr: 0x168E0, symBinAddr: 0x100017860, symSize: 0x60 }
  - { offsetInCU: 0x71824, offset: 0x71824, size: 0x8, addend: 0x0, symName: __ZNSt3__110unique_ptrIN6spdlog7details21short_level_formatterINS2_13scoped_padderEEENS_14default_deleteIS5_EEE7releaseB8ue170006Ev, symObjAddr: 0x16940, symBinAddr: 0x1000178C0, symSize: 0x44 }
  - { offsetInCU: 0x71859, offset: 0x71859, size: 0x8, addend: 0x0, symName: __ZNSt3__110unique_ptrIN6spdlog7details21short_level_formatterINS2_13scoped_padderEEENS_14default_deleteIS5_EEE11get_deleterB8ue170006Ev, symObjAddr: 0x16984, symBinAddr: 0x100017904, symSize: 0x24 }
  - { offsetInCU: 0x7188B, offset: 0x7188B, size: 0x8, addend: 0x0, symName: __ZNSt3__117__compressed_pairIPN6spdlog7details14flag_formatterENS_14default_deleteIS3_EEEC1B8ue170006IPNS2_21short_level_formatterINS2_13scoped_padderEEENS5_ISB_EEEEOT_OT0_, symObjAddr: 0x169A8, symBinAddr: 0x100017928, symSize: 0x3C }
  - { offsetInCU: 0x718E3, offset: 0x718E3, size: 0x8, addend: 0x0, symName: __ZNSt3__117__compressed_pairIPN6spdlog7details21short_level_formatterINS2_13scoped_padderEEENS_14default_deleteIS5_EEE5firstB8ue170006Ev, symObjAddr: 0x169E4, symBinAddr: 0x100017964, symSize: 0x24 }
  - { offsetInCU: 0x71909, offset: 0x71909, size: 0x8, addend: 0x0, symName: __ZNSt3__122__compressed_pair_elemIPN6spdlog7details21short_level_formatterINS2_13scoped_padderEEELi0ELb0EE5__getB8ue170006Ev, symObjAddr: 0x16A08, symBinAddr: 0x100017988, symSize: 0x14 }
  - { offsetInCU: 0x7192F, offset: 0x7192F, size: 0x8, addend: 0x0, symName: __ZNSt3__117__compressed_pairIPN6spdlog7details21short_level_formatterINS2_13scoped_padderEEENS_14default_deleteIS5_EEE6secondB8ue170006Ev, symObjAddr: 0x16A1C, symBinAddr: 0x10001799C, symSize: 0x24 }
  - { offsetInCU: 0x71955, offset: 0x71955, size: 0x8, addend: 0x0, symName: __ZNSt3__122__compressed_pair_elemINS_14default_deleteIN6spdlog7details21short_level_formatterINS3_13scoped_padderEEEEELi1ELb1EE5__getB8ue170006Ev, symObjAddr: 0x16A40, symBinAddr: 0x1000179C0, symSize: 0x14 }
  - { offsetInCU: 0x7197B, offset: 0x7197B, size: 0x8, addend: 0x0, symName: __ZNSt3__117__compressed_pairIPN6spdlog7details14flag_formatterENS_14default_deleteIS3_EEEC2B8ue170006IPNS2_21short_level_formatterINS2_13scoped_padderEEENS5_ISB_EEEEOT_OT0_, symObjAddr: 0x16A54, symBinAddr: 0x1000179D4, symSize: 0x44 }
  - { offsetInCU: 0x719D3, offset: 0x719D3, size: 0x8, addend: 0x0, symName: __ZNSt3__122__compressed_pair_elemIPN6spdlog7details14flag_formatterELi0ELb0EEC2B8ue170006IPNS2_21short_level_formatterINS2_13scoped_padderEEEvEEOT_, symObjAddr: 0x16A98, symBinAddr: 0x100017A18, symSize: 0x24 }
  - { offsetInCU: 0x71A15, offset: 0x71A15, size: 0x8, addend: 0x0, symName: __ZNSt3__122__compressed_pair_elemINS_14default_deleteIN6spdlog7details14flag_formatterEEELi1ELb1EEC2B8ue170006INS1_INS3_21short_level_formatterINS3_13scoped_padderEEEEEvEEOT_, symObjAddr: 0x16ABC, symBinAddr: 0x100017A3C, symSize: 0x38 }
  - { offsetInCU: 0x71A57, offset: 0x71A57, size: 0x8, addend: 0x0, symName: __ZNSt3__114default_deleteIN6spdlog7details14flag_formatterEEC2B8ue170006INS2_21short_level_formatterINS2_13scoped_padderEEEEERKNS0_IT_EEPNS_9enable_ifIXsr14is_convertibleIPS9_PS3_EE5valueEvE4typeE, symObjAddr: 0x16AF4, symBinAddr: 0x100017A74, symSize: 0x1C }
  - { offsetInCU: 0x71AA0, offset: 0x71AA0, size: 0x8, addend: 0x0, symName: __ZNSt3__110unique_ptrIN6spdlog7details21short_level_formatterINS2_13scoped_padderEEENS_14default_deleteIS5_EEED2B8ue170006Ev, symObjAddr: 0x16B10, symBinAddr: 0x100017A90, symSize: 0x30 }
  - { offsetInCU: 0x71ACA, offset: 0x71ACA, size: 0x8, addend: 0x0, symName: __ZNSt3__110unique_ptrIN6spdlog7details21short_level_formatterINS2_13scoped_padderEEENS_14default_deleteIS5_EEE5resetB8ue170006EPS5_, symObjAddr: 0x16B40, symBinAddr: 0x100017AC0, symSize: 0x78 }
  - { offsetInCU: 0x71B0E, offset: 0x71B0E, size: 0x8, addend: 0x0, symName: __ZNKSt3__114default_deleteIN6spdlog7details21short_level_formatterINS2_13scoped_padderEEEEclB8ue170006EPS5_, symObjAddr: 0x16BB8, symBinAddr: 0x100017B38, symSize: 0x4C }
  - { offsetInCU: 0x71B42, offset: 0x71B42, size: 0x8, addend: 0x0, symName: __ZN6spdlog7details11t_formatterINS0_13scoped_padderEEC1ENS0_12padding_infoE, symObjAddr: 0x16C04, symBinAddr: 0x100017B84, symSize: 0x3C }
  - { offsetInCU: 0x71B7B, offset: 0x71B7B, size: 0x8, addend: 0x0, symName: __ZNSt3__110unique_ptrIN6spdlog7details11t_formatterINS2_13scoped_padderEEENS_14default_deleteIS5_EEEC1B8ue170006ILb1EvEEPS5_, symObjAddr: 0x16C40, symBinAddr: 0x100017BC0, symSize: 0x34 }
  - { offsetInCU: 0x71BBE, offset: 0x71BBE, size: 0x8, addend: 0x0, symName: __ZN6spdlog7details11t_formatterINS0_13scoped_padderEEC2ENS0_12padding_infoE, symObjAddr: 0x16C74, symBinAddr: 0x100017BF4, symSize: 0x5C }
  - { offsetInCU: 0x71BF7, offset: 0x71BF7, size: 0x8, addend: 0x0, symName: __ZN6spdlog7details11t_formatterINS0_13scoped_padderEED1Ev, symObjAddr: 0x16CD0, symBinAddr: 0x100017C50, symSize: 0x2C }
  - { offsetInCU: 0x71C24, offset: 0x71C24, size: 0x8, addend: 0x0, symName: __ZN6spdlog7details11t_formatterINS0_13scoped_padderEED0Ev, symObjAddr: 0x16CFC, symBinAddr: 0x100017C7C, symSize: 0x30 }
  - { offsetInCU: 0x71C51, offset: 0x71C51, size: 0x8, addend: 0x0, symName: __ZN6spdlog7details11t_formatterINS0_13scoped_padderEE6formatERKNS0_7log_msgERK2tmRN3fmt3v1019basic_memory_bufferIcLm250ENSt3__19allocatorIcEEEE, symObjAddr: 0x16D2C, symBinAddr: 0x100017CAC, symSize: 0x98 }
  - { offsetInCU: 0x71CBF, offset: 0x71CBF, size: 0x8, addend: 0x0, symName: __ZN6spdlog7details11t_formatterINS0_13scoped_padderEED2Ev, symObjAddr: 0x16DC4, symBinAddr: 0x100017D44, symSize: 0x2C }
  - { offsetInCU: 0x71CEC, offset: 0x71CEC, size: 0x8, addend: 0x0, symName: __ZN6spdlog7details13scoped_padder12count_digitsImEEjT_, symObjAddr: 0x16DF0, symBinAddr: 0x100017D70, symSize: 0x24 }
  - { offsetInCU: 0x71D18, offset: 0x71D18, size: 0x8, addend: 0x0, symName: __ZN3fmt3v1010format_intC1Em, symObjAddr: 0x16F68, symBinAddr: 0x100017EE8, symSize: 0x34 }
  - { offsetInCU: 0x71D51, offset: 0x71D51, size: 0x8, addend: 0x0, symName: __ZN3fmt3v1010format_intC2Em, symObjAddr: 0x16F9C, symBinAddr: 0x100017F1C, symSize: 0x3C }
  - { offsetInCU: 0x71D8A, offset: 0x71D8A, size: 0x8, addend: 0x0, symName: __ZN3fmt3v1010format_int15format_unsignedImEEPcT_, symObjAddr: 0x16FD8, symBinAddr: 0x100017F58, symSize: 0x44 }
  - { offsetInCU: 0x71DD7, offset: 0x71DD7, size: 0x8, addend: 0x0, symName: __ZNSt3__110unique_ptrIN6spdlog7details11t_formatterINS2_13scoped_padderEEENS_14default_deleteIS5_EEEC2B8ue170006ILb1EvEEPS5_, symObjAddr: 0x171A4, symBinAddr: 0x100018124, symSize: 0x44 }
  - { offsetInCU: 0x71E1A, offset: 0x71E1A, size: 0x8, addend: 0x0, symName: __ZNSt3__117__compressed_pairIPN6spdlog7details11t_formatterINS2_13scoped_padderEEENS_14default_deleteIS5_EEEC1B8ue170006IRS6_NS_16__value_init_tagEEEOT_OT0_, symObjAddr: 0x171E8, symBinAddr: 0x100018168, symSize: 0x3C }
  - { offsetInCU: 0x71E72, offset: 0x71E72, size: 0x8, addend: 0x0, symName: __ZNSt3__117__compressed_pairIPN6spdlog7details11t_formatterINS2_13scoped_padderEEENS_14default_deleteIS5_EEEC2B8ue170006IRS6_NS_16__value_init_tagEEEOT_OT0_, symObjAddr: 0x17224, symBinAddr: 0x1000181A4, symSize: 0x40 }
  - { offsetInCU: 0x71ECA, offset: 0x71ECA, size: 0x8, addend: 0x0, symName: __ZNSt3__122__compressed_pair_elemIPN6spdlog7details11t_formatterINS2_13scoped_padderEEELi0ELb0EEC2B8ue170006IRS6_vEEOT_, symObjAddr: 0x17264, symBinAddr: 0x1000181E4, symSize: 0x24 }
  - { offsetInCU: 0x71F0C, offset: 0x71F0C, size: 0x8, addend: 0x0, symName: __ZNSt3__122__compressed_pair_elemINS_14default_deleteIN6spdlog7details11t_formatterINS3_13scoped_padderEEEEELi1ELb1EEC2B8ue170006ENS_16__value_init_tagE, symObjAddr: 0x17288, symBinAddr: 0x100018208, symSize: 0x14 }
  - { offsetInCU: 0x71F41, offset: 0x71F41, size: 0x8, addend: 0x0, symName: __ZNSt3__110unique_ptrIN6spdlog7details14flag_formatterENS_14default_deleteIS3_EEEC2B8ue170006INS2_11t_formatterINS2_13scoped_padderEEENS4_ISA_EEvvEEONS0_IT_T0_EE, symObjAddr: 0x1729C, symBinAddr: 0x10001821C, symSize: 0x60 }
  - { offsetInCU: 0x71F8D, offset: 0x71F8D, size: 0x8, addend: 0x0, symName: __ZNSt3__110unique_ptrIN6spdlog7details11t_formatterINS2_13scoped_padderEEENS_14default_deleteIS5_EEE7releaseB8ue170006Ev, symObjAddr: 0x172FC, symBinAddr: 0x10001827C, symSize: 0x44 }
  - { offsetInCU: 0x71FC2, offset: 0x71FC2, size: 0x8, addend: 0x0, symName: __ZNSt3__110unique_ptrIN6spdlog7details11t_formatterINS2_13scoped_padderEEENS_14default_deleteIS5_EEE11get_deleterB8ue170006Ev, symObjAddr: 0x17340, symBinAddr: 0x1000182C0, symSize: 0x24 }
  - { offsetInCU: 0x71FF4, offset: 0x71FF4, size: 0x8, addend: 0x0, symName: __ZNSt3__117__compressed_pairIPN6spdlog7details14flag_formatterENS_14default_deleteIS3_EEEC1B8ue170006IPNS2_11t_formatterINS2_13scoped_padderEEENS5_ISB_EEEEOT_OT0_, symObjAddr: 0x17364, symBinAddr: 0x1000182E4, symSize: 0x3C }
  - { offsetInCU: 0x7204C, offset: 0x7204C, size: 0x8, addend: 0x0, symName: __ZNSt3__117__compressed_pairIPN6spdlog7details11t_formatterINS2_13scoped_padderEEENS_14default_deleteIS5_EEE5firstB8ue170006Ev, symObjAddr: 0x173A0, symBinAddr: 0x100018320, symSize: 0x24 }
  - { offsetInCU: 0x72072, offset: 0x72072, size: 0x8, addend: 0x0, symName: __ZNSt3__122__compressed_pair_elemIPN6spdlog7details11t_formatterINS2_13scoped_padderEEELi0ELb0EE5__getB8ue170006Ev, symObjAddr: 0x173C4, symBinAddr: 0x100018344, symSize: 0x14 }
  - { offsetInCU: 0x72098, offset: 0x72098, size: 0x8, addend: 0x0, symName: __ZNSt3__117__compressed_pairIPN6spdlog7details11t_formatterINS2_13scoped_padderEEENS_14default_deleteIS5_EEE6secondB8ue170006Ev, symObjAddr: 0x173D8, symBinAddr: 0x100018358, symSize: 0x24 }
  - { offsetInCU: 0x720BE, offset: 0x720BE, size: 0x8, addend: 0x0, symName: __ZNSt3__122__compressed_pair_elemINS_14default_deleteIN6spdlog7details11t_formatterINS3_13scoped_padderEEEEELi1ELb1EE5__getB8ue170006Ev, symObjAddr: 0x173FC, symBinAddr: 0x10001837C, symSize: 0x14 }
  - { offsetInCU: 0x720E4, offset: 0x720E4, size: 0x8, addend: 0x0, symName: __ZNSt3__117__compressed_pairIPN6spdlog7details14flag_formatterENS_14default_deleteIS3_EEEC2B8ue170006IPNS2_11t_formatterINS2_13scoped_padderEEENS5_ISB_EEEEOT_OT0_, symObjAddr: 0x17410, symBinAddr: 0x100018390, symSize: 0x44 }
  - { offsetInCU: 0x7213C, offset: 0x7213C, size: 0x8, addend: 0x0, symName: __ZNSt3__122__compressed_pair_elemIPN6spdlog7details14flag_formatterELi0ELb0EEC2B8ue170006IPNS2_11t_formatterINS2_13scoped_padderEEEvEEOT_, symObjAddr: 0x17454, symBinAddr: 0x1000183D4, symSize: 0x24 }
  - { offsetInCU: 0x7217E, offset: 0x7217E, size: 0x8, addend: 0x0, symName: __ZNSt3__122__compressed_pair_elemINS_14default_deleteIN6spdlog7details14flag_formatterEEELi1ELb1EEC2B8ue170006INS1_INS3_11t_formatterINS3_13scoped_padderEEEEEvEEOT_, symObjAddr: 0x17478, symBinAddr: 0x1000183F8, symSize: 0x38 }
  - { offsetInCU: 0x721C0, offset: 0x721C0, size: 0x8, addend: 0x0, symName: __ZNSt3__114default_deleteIN6spdlog7details14flag_formatterEEC2B8ue170006INS2_11t_formatterINS2_13scoped_padderEEEEERKNS0_IT_EEPNS_9enable_ifIXsr14is_convertibleIPS9_PS3_EE5valueEvE4typeE, symObjAddr: 0x174B0, symBinAddr: 0x100018430, symSize: 0x1C }
  - { offsetInCU: 0x72209, offset: 0x72209, size: 0x8, addend: 0x0, symName: __ZNSt3__110unique_ptrIN6spdlog7details11t_formatterINS2_13scoped_padderEEENS_14default_deleteIS5_EEED2B8ue170006Ev, symObjAddr: 0x174CC, symBinAddr: 0x10001844C, symSize: 0x30 }
  - { offsetInCU: 0x72233, offset: 0x72233, size: 0x8, addend: 0x0, symName: __ZNSt3__110unique_ptrIN6spdlog7details11t_formatterINS2_13scoped_padderEEENS_14default_deleteIS5_EEE5resetB8ue170006EPS5_, symObjAddr: 0x174FC, symBinAddr: 0x10001847C, symSize: 0x78 }
  - { offsetInCU: 0x72277, offset: 0x72277, size: 0x8, addend: 0x0, symName: __ZNKSt3__114default_deleteIN6spdlog7details11t_formatterINS2_13scoped_padderEEEEclB8ue170006EPS5_, symObjAddr: 0x17574, symBinAddr: 0x1000184F4, symSize: 0x4C }
  - { offsetInCU: 0x722AB, offset: 0x722AB, size: 0x8, addend: 0x0, symName: __ZN6spdlog7details11v_formatterINS0_13scoped_padderEEC1ENS0_12padding_infoE, symObjAddr: 0x175C0, symBinAddr: 0x100018540, symSize: 0x3C }
  - { offsetInCU: 0x722E4, offset: 0x722E4, size: 0x8, addend: 0x0, symName: __ZNSt3__110unique_ptrIN6spdlog7details11v_formatterINS2_13scoped_padderEEENS_14default_deleteIS5_EEEC1B8ue170006ILb1EvEEPS5_, symObjAddr: 0x175FC, symBinAddr: 0x10001857C, symSize: 0x34 }
  - { offsetInCU: 0x72327, offset: 0x72327, size: 0x8, addend: 0x0, symName: __ZN6spdlog7details11v_formatterINS0_13scoped_padderEEC2ENS0_12padding_infoE, symObjAddr: 0x17630, symBinAddr: 0x1000185B0, symSize: 0x5C }
  - { offsetInCU: 0x72360, offset: 0x72360, size: 0x8, addend: 0x0, symName: __ZN6spdlog7details11v_formatterINS0_13scoped_padderEED1Ev, symObjAddr: 0x1768C, symBinAddr: 0x10001860C, symSize: 0x2C }
  - { offsetInCU: 0x7238D, offset: 0x7238D, size: 0x8, addend: 0x0, symName: __ZN6spdlog7details11v_formatterINS0_13scoped_padderEED0Ev, symObjAddr: 0x176B8, symBinAddr: 0x100018638, symSize: 0x30 }
  - { offsetInCU: 0x723BA, offset: 0x723BA, size: 0x8, addend: 0x0, symName: __ZN6spdlog7details11v_formatterINS0_13scoped_padderEE6formatERKNS0_7log_msgERK2tmRN3fmt3v1019basic_memory_bufferIcLm250ENSt3__19allocatorIcEEEE, symObjAddr: 0x176E8, symBinAddr: 0x100018668, symSize: 0x9C }
  - { offsetInCU: 0x72419, offset: 0x72419, size: 0x8, addend: 0x0, symName: __ZN6spdlog7details11v_formatterINS0_13scoped_padderEED2Ev, symObjAddr: 0x17784, symBinAddr: 0x100018704, symSize: 0x2C }
  - { offsetInCU: 0x72446, offset: 0x72446, size: 0x8, addend: 0x0, symName: __ZNSt3__110unique_ptrIN6spdlog7details11v_formatterINS2_13scoped_padderEEENS_14default_deleteIS5_EEEC2B8ue170006ILb1EvEEPS5_, symObjAddr: 0x177B0, symBinAddr: 0x100018730, symSize: 0x44 }
  - { offsetInCU: 0x72489, offset: 0x72489, size: 0x8, addend: 0x0, symName: __ZNSt3__117__compressed_pairIPN6spdlog7details11v_formatterINS2_13scoped_padderEEENS_14default_deleteIS5_EEEC1B8ue170006IRS6_NS_16__value_init_tagEEEOT_OT0_, symObjAddr: 0x177F4, symBinAddr: 0x100018774, symSize: 0x3C }
  - { offsetInCU: 0x724E1, offset: 0x724E1, size: 0x8, addend: 0x0, symName: __ZNSt3__117__compressed_pairIPN6spdlog7details11v_formatterINS2_13scoped_padderEEENS_14default_deleteIS5_EEEC2B8ue170006IRS6_NS_16__value_init_tagEEEOT_OT0_, symObjAddr: 0x17830, symBinAddr: 0x1000187B0, symSize: 0x40 }
  - { offsetInCU: 0x72539, offset: 0x72539, size: 0x8, addend: 0x0, symName: __ZNSt3__122__compressed_pair_elemIPN6spdlog7details11v_formatterINS2_13scoped_padderEEELi0ELb0EEC2B8ue170006IRS6_vEEOT_, symObjAddr: 0x17870, symBinAddr: 0x1000187F0, symSize: 0x24 }
  - { offsetInCU: 0x7257B, offset: 0x7257B, size: 0x8, addend: 0x0, symName: __ZNSt3__122__compressed_pair_elemINS_14default_deleteIN6spdlog7details11v_formatterINS3_13scoped_padderEEEEELi1ELb1EEC2B8ue170006ENS_16__value_init_tagE, symObjAddr: 0x17894, symBinAddr: 0x100018814, symSize: 0x14 }
  - { offsetInCU: 0x725B0, offset: 0x725B0, size: 0x8, addend: 0x0, symName: __ZNSt3__110unique_ptrIN6spdlog7details14flag_formatterENS_14default_deleteIS3_EEEC2B8ue170006INS2_11v_formatterINS2_13scoped_padderEEENS4_ISA_EEvvEEONS0_IT_T0_EE, symObjAddr: 0x178A8, symBinAddr: 0x100018828, symSize: 0x60 }
  - { offsetInCU: 0x725FC, offset: 0x725FC, size: 0x8, addend: 0x0, symName: __ZNSt3__110unique_ptrIN6spdlog7details11v_formatterINS2_13scoped_padderEEENS_14default_deleteIS5_EEE7releaseB8ue170006Ev, symObjAddr: 0x17908, symBinAddr: 0x100018888, symSize: 0x44 }
  - { offsetInCU: 0x72631, offset: 0x72631, size: 0x8, addend: 0x0, symName: __ZNSt3__110unique_ptrIN6spdlog7details11v_formatterINS2_13scoped_padderEEENS_14default_deleteIS5_EEE11get_deleterB8ue170006Ev, symObjAddr: 0x1794C, symBinAddr: 0x1000188CC, symSize: 0x24 }
  - { offsetInCU: 0x72663, offset: 0x72663, size: 0x8, addend: 0x0, symName: __ZNSt3__117__compressed_pairIPN6spdlog7details14flag_formatterENS_14default_deleteIS3_EEEC1B8ue170006IPNS2_11v_formatterINS2_13scoped_padderEEENS5_ISB_EEEEOT_OT0_, symObjAddr: 0x17970, symBinAddr: 0x1000188F0, symSize: 0x3C }
  - { offsetInCU: 0x726BB, offset: 0x726BB, size: 0x8, addend: 0x0, symName: __ZNSt3__117__compressed_pairIPN6spdlog7details11v_formatterINS2_13scoped_padderEEENS_14default_deleteIS5_EEE5firstB8ue170006Ev, symObjAddr: 0x179AC, symBinAddr: 0x10001892C, symSize: 0x24 }
  - { offsetInCU: 0x726E1, offset: 0x726E1, size: 0x8, addend: 0x0, symName: __ZNSt3__122__compressed_pair_elemIPN6spdlog7details11v_formatterINS2_13scoped_padderEEELi0ELb0EE5__getB8ue170006Ev, symObjAddr: 0x179D0, symBinAddr: 0x100018950, symSize: 0x14 }
  - { offsetInCU: 0x72707, offset: 0x72707, size: 0x8, addend: 0x0, symName: __ZNSt3__117__compressed_pairIPN6spdlog7details11v_formatterINS2_13scoped_padderEEENS_14default_deleteIS5_EEE6secondB8ue170006Ev, symObjAddr: 0x179E4, symBinAddr: 0x100018964, symSize: 0x24 }
  - { offsetInCU: 0x7272D, offset: 0x7272D, size: 0x8, addend: 0x0, symName: __ZNSt3__122__compressed_pair_elemINS_14default_deleteIN6spdlog7details11v_formatterINS3_13scoped_padderEEEEELi1ELb1EE5__getB8ue170006Ev, symObjAddr: 0x17A08, symBinAddr: 0x100018988, symSize: 0x14 }
  - { offsetInCU: 0x72753, offset: 0x72753, size: 0x8, addend: 0x0, symName: __ZNSt3__117__compressed_pairIPN6spdlog7details14flag_formatterENS_14default_deleteIS3_EEEC2B8ue170006IPNS2_11v_formatterINS2_13scoped_padderEEENS5_ISB_EEEEOT_OT0_, symObjAddr: 0x17A1C, symBinAddr: 0x10001899C, symSize: 0x44 }
  - { offsetInCU: 0x727AB, offset: 0x727AB, size: 0x8, addend: 0x0, symName: __ZNSt3__122__compressed_pair_elemIPN6spdlog7details14flag_formatterELi0ELb0EEC2B8ue170006IPNS2_11v_formatterINS2_13scoped_padderEEEvEEOT_, symObjAddr: 0x17A60, symBinAddr: 0x1000189E0, symSize: 0x24 }
  - { offsetInCU: 0x727ED, offset: 0x727ED, size: 0x8, addend: 0x0, symName: __ZNSt3__122__compressed_pair_elemINS_14default_deleteIN6spdlog7details14flag_formatterEEELi1ELb1EEC2B8ue170006INS1_INS3_11v_formatterINS3_13scoped_padderEEEEEvEEOT_, symObjAddr: 0x17A84, symBinAddr: 0x100018A04, symSize: 0x38 }
  - { offsetInCU: 0x7282F, offset: 0x7282F, size: 0x8, addend: 0x0, symName: __ZNSt3__114default_deleteIN6spdlog7details14flag_formatterEEC2B8ue170006INS2_11v_formatterINS2_13scoped_padderEEEEERKNS0_IT_EEPNS_9enable_ifIXsr14is_convertibleIPS9_PS3_EE5valueEvE4typeE, symObjAddr: 0x17ABC, symBinAddr: 0x100018A3C, symSize: 0x1C }
  - { offsetInCU: 0x72878, offset: 0x72878, size: 0x8, addend: 0x0, symName: __ZNSt3__110unique_ptrIN6spdlog7details11v_formatterINS2_13scoped_padderEEENS_14default_deleteIS5_EEED2B8ue170006Ev, symObjAddr: 0x17AD8, symBinAddr: 0x100018A58, symSize: 0x30 }
  - { offsetInCU: 0x728A2, offset: 0x728A2, size: 0x8, addend: 0x0, symName: __ZNSt3__110unique_ptrIN6spdlog7details11v_formatterINS2_13scoped_padderEEENS_14default_deleteIS5_EEE5resetB8ue170006EPS5_, symObjAddr: 0x17B08, symBinAddr: 0x100018A88, symSize: 0x78 }
  - { offsetInCU: 0x728E6, offset: 0x728E6, size: 0x8, addend: 0x0, symName: __ZNKSt3__114default_deleteIN6spdlog7details11v_formatterINS2_13scoped_padderEEEEclB8ue170006EPS5_, symObjAddr: 0x17B80, symBinAddr: 0x100018B00, symSize: 0x4C }
  - { offsetInCU: 0x7291A, offset: 0x7291A, size: 0x8, addend: 0x0, symName: __ZN6spdlog7details11a_formatterINS0_13scoped_padderEEC1ENS0_12padding_infoE, symObjAddr: 0x17BCC, symBinAddr: 0x100018B4C, symSize: 0x3C }
  - { offsetInCU: 0x72952, offset: 0x72952, size: 0x8, addend: 0x0, symName: __ZNSt3__110unique_ptrIN6spdlog7details11a_formatterINS2_13scoped_padderEEENS_14default_deleteIS5_EEEC1B8ue170006ILb1EvEEPS5_, symObjAddr: 0x17C08, symBinAddr: 0x100018B88, symSize: 0x34 }
  - { offsetInCU: 0x72995, offset: 0x72995, size: 0x8, addend: 0x0, symName: __ZN6spdlog7details11a_formatterINS0_13scoped_padderEEC2ENS0_12padding_infoE, symObjAddr: 0x17C3C, symBinAddr: 0x100018BBC, symSize: 0x5C }
  - { offsetInCU: 0x729CD, offset: 0x729CD, size: 0x8, addend: 0x0, symName: __ZN6spdlog7details11a_formatterINS0_13scoped_padderEED1Ev, symObjAddr: 0x17C98, symBinAddr: 0x100018C18, symSize: 0x2C }
  - { offsetInCU: 0x729F9, offset: 0x729F9, size: 0x8, addend: 0x0, symName: __ZN6spdlog7details11a_formatterINS0_13scoped_padderEED0Ev, symObjAddr: 0x17CC4, symBinAddr: 0x100018C44, symSize: 0x30 }
  - { offsetInCU: 0x72A25, offset: 0x72A25, size: 0x8, addend: 0x0, symName: __ZN6spdlog7details11a_formatterINS0_13scoped_padderEE6formatERKNS0_7log_msgERK2tmRN3fmt3v1019basic_memory_bufferIcLm250ENSt3__19allocatorIcEEEE, symObjAddr: 0x17CF4, symBinAddr: 0x100018C74, symSize: 0xFC }
  - { offsetInCU: 0x72ADB, offset: 0x72ADB, size: 0x8, addend: 0x0, symName: __ZN6spdlog7details11a_formatterINS0_13scoped_padderEED2Ev, symObjAddr: 0x17DF0, symBinAddr: 0x100018D70, symSize: 0x2C }
  - { offsetInCU: 0x72B07, offset: 0x72B07, size: 0x8, addend: 0x0, symName: __ZNSt3__15arrayIPKcLm7EEixB8ue170006Em, symObjAddr: 0x17E1C, symBinAddr: 0x100018D9C, symSize: 0x20 }
  - { offsetInCU: 0x72B3B, offset: 0x72B3B, size: 0x8, addend: 0x0, symName: __ZNSt3__110unique_ptrIN6spdlog7details11a_formatterINS2_13scoped_padderEEENS_14default_deleteIS5_EEEC2B8ue170006ILb1EvEEPS5_, symObjAddr: 0x17E3C, symBinAddr: 0x100018DBC, symSize: 0x44 }
  - { offsetInCU: 0x72B7E, offset: 0x72B7E, size: 0x8, addend: 0x0, symName: __ZNSt3__117__compressed_pairIPN6spdlog7details11a_formatterINS2_13scoped_padderEEENS_14default_deleteIS5_EEEC1B8ue170006IRS6_NS_16__value_init_tagEEEOT_OT0_, symObjAddr: 0x17E80, symBinAddr: 0x100018E00, symSize: 0x3C }
  - { offsetInCU: 0x72BD6, offset: 0x72BD6, size: 0x8, addend: 0x0, symName: __ZNSt3__117__compressed_pairIPN6spdlog7details11a_formatterINS2_13scoped_padderEEENS_14default_deleteIS5_EEEC2B8ue170006IRS6_NS_16__value_init_tagEEEOT_OT0_, symObjAddr: 0x17EBC, symBinAddr: 0x100018E3C, symSize: 0x40 }
  - { offsetInCU: 0x72C2E, offset: 0x72C2E, size: 0x8, addend: 0x0, symName: __ZNSt3__122__compressed_pair_elemIPN6spdlog7details11a_formatterINS2_13scoped_padderEEELi0ELb0EEC2B8ue170006IRS6_vEEOT_, symObjAddr: 0x17EFC, symBinAddr: 0x100018E7C, symSize: 0x24 }
  - { offsetInCU: 0x72C70, offset: 0x72C70, size: 0x8, addend: 0x0, symName: __ZNSt3__122__compressed_pair_elemINS_14default_deleteIN6spdlog7details11a_formatterINS3_13scoped_padderEEEEELi1ELb1EEC2B8ue170006ENS_16__value_init_tagE, symObjAddr: 0x17F20, symBinAddr: 0x100018EA0, symSize: 0x14 }
  - { offsetInCU: 0x72CA5, offset: 0x72CA5, size: 0x8, addend: 0x0, symName: __ZNSt3__110unique_ptrIN6spdlog7details14flag_formatterENS_14default_deleteIS3_EEEC2B8ue170006INS2_11a_formatterINS2_13scoped_padderEEENS4_ISA_EEvvEEONS0_IT_T0_EE, symObjAddr: 0x17F34, symBinAddr: 0x100018EB4, symSize: 0x60 }
  - { offsetInCU: 0x72CF1, offset: 0x72CF1, size: 0x8, addend: 0x0, symName: __ZNSt3__110unique_ptrIN6spdlog7details11a_formatterINS2_13scoped_padderEEENS_14default_deleteIS5_EEE7releaseB8ue170006Ev, symObjAddr: 0x17F94, symBinAddr: 0x100018F14, symSize: 0x44 }
  - { offsetInCU: 0x72D26, offset: 0x72D26, size: 0x8, addend: 0x0, symName: __ZNSt3__110unique_ptrIN6spdlog7details11a_formatterINS2_13scoped_padderEEENS_14default_deleteIS5_EEE11get_deleterB8ue170006Ev, symObjAddr: 0x17FD8, symBinAddr: 0x100018F58, symSize: 0x24 }
  - { offsetInCU: 0x72D58, offset: 0x72D58, size: 0x8, addend: 0x0, symName: __ZNSt3__117__compressed_pairIPN6spdlog7details14flag_formatterENS_14default_deleteIS3_EEEC1B8ue170006IPNS2_11a_formatterINS2_13scoped_padderEEENS5_ISB_EEEEOT_OT0_, symObjAddr: 0x17FFC, symBinAddr: 0x100018F7C, symSize: 0x3C }
  - { offsetInCU: 0x72DB0, offset: 0x72DB0, size: 0x8, addend: 0x0, symName: __ZNSt3__117__compressed_pairIPN6spdlog7details11a_formatterINS2_13scoped_padderEEENS_14default_deleteIS5_EEE5firstB8ue170006Ev, symObjAddr: 0x18038, symBinAddr: 0x100018FB8, symSize: 0x24 }
  - { offsetInCU: 0x72DD6, offset: 0x72DD6, size: 0x8, addend: 0x0, symName: __ZNSt3__122__compressed_pair_elemIPN6spdlog7details11a_formatterINS2_13scoped_padderEEELi0ELb0EE5__getB8ue170006Ev, symObjAddr: 0x1805C, symBinAddr: 0x100018FDC, symSize: 0x14 }
  - { offsetInCU: 0x72DFC, offset: 0x72DFC, size: 0x8, addend: 0x0, symName: __ZNSt3__117__compressed_pairIPN6spdlog7details11a_formatterINS2_13scoped_padderEEENS_14default_deleteIS5_EEE6secondB8ue170006Ev, symObjAddr: 0x18070, symBinAddr: 0x100018FF0, symSize: 0x24 }
  - { offsetInCU: 0x72E22, offset: 0x72E22, size: 0x8, addend: 0x0, symName: __ZNSt3__122__compressed_pair_elemINS_14default_deleteIN6spdlog7details11a_formatterINS3_13scoped_padderEEEEELi1ELb1EE5__getB8ue170006Ev, symObjAddr: 0x18094, symBinAddr: 0x100019014, symSize: 0x14 }
  - { offsetInCU: 0x72E48, offset: 0x72E48, size: 0x8, addend: 0x0, symName: __ZNSt3__117__compressed_pairIPN6spdlog7details14flag_formatterENS_14default_deleteIS3_EEEC2B8ue170006IPNS2_11a_formatterINS2_13scoped_padderEEENS5_ISB_EEEEOT_OT0_, symObjAddr: 0x180A8, symBinAddr: 0x100019028, symSize: 0x44 }
  - { offsetInCU: 0x72EA0, offset: 0x72EA0, size: 0x8, addend: 0x0, symName: __ZNSt3__122__compressed_pair_elemIPN6spdlog7details14flag_formatterELi0ELb0EEC2B8ue170006IPNS2_11a_formatterINS2_13scoped_padderEEEvEEOT_, symObjAddr: 0x180EC, symBinAddr: 0x10001906C, symSize: 0x24 }
  - { offsetInCU: 0x72EE2, offset: 0x72EE2, size: 0x8, addend: 0x0, symName: __ZNSt3__122__compressed_pair_elemINS_14default_deleteIN6spdlog7details14flag_formatterEEELi1ELb1EEC2B8ue170006INS1_INS3_11a_formatterINS3_13scoped_padderEEEEEvEEOT_, symObjAddr: 0x18110, symBinAddr: 0x100019090, symSize: 0x38 }
  - { offsetInCU: 0x72F24, offset: 0x72F24, size: 0x8, addend: 0x0, symName: __ZNSt3__114default_deleteIN6spdlog7details14flag_formatterEEC2B8ue170006INS2_11a_formatterINS2_13scoped_padderEEEEERKNS0_IT_EEPNS_9enable_ifIXsr14is_convertibleIPS9_PS3_EE5valueEvE4typeE, symObjAddr: 0x18148, symBinAddr: 0x1000190C8, symSize: 0x1C }
  - { offsetInCU: 0x72F6D, offset: 0x72F6D, size: 0x8, addend: 0x0, symName: __ZNSt3__110unique_ptrIN6spdlog7details11a_formatterINS2_13scoped_padderEEENS_14default_deleteIS5_EEED2B8ue170006Ev, symObjAddr: 0x18164, symBinAddr: 0x1000190E4, symSize: 0x30 }
  - { offsetInCU: 0x72F97, offset: 0x72F97, size: 0x8, addend: 0x0, symName: __ZNSt3__110unique_ptrIN6spdlog7details11a_formatterINS2_13scoped_padderEEENS_14default_deleteIS5_EEE5resetB8ue170006EPS5_, symObjAddr: 0x18194, symBinAddr: 0x100019114, symSize: 0x78 }
  - { offsetInCU: 0x72FDB, offset: 0x72FDB, size: 0x8, addend: 0x0, symName: __ZNKSt3__114default_deleteIN6spdlog7details11a_formatterINS2_13scoped_padderEEEEclB8ue170006EPS5_, symObjAddr: 0x1820C, symBinAddr: 0x10001918C, symSize: 0x4C }
  - { offsetInCU: 0x7300F, offset: 0x7300F, size: 0x8, addend: 0x0, symName: __ZN6spdlog7details11A_formatterINS0_13scoped_padderEEC1ENS0_12padding_infoE, symObjAddr: 0x18258, symBinAddr: 0x1000191D8, symSize: 0x3C }
  - { offsetInCU: 0x73047, offset: 0x73047, size: 0x8, addend: 0x0, symName: __ZNSt3__110unique_ptrIN6spdlog7details11A_formatterINS2_13scoped_padderEEENS_14default_deleteIS5_EEEC1B8ue170006ILb1EvEEPS5_, symObjAddr: 0x18294, symBinAddr: 0x100019214, symSize: 0x34 }
  - { offsetInCU: 0x7308A, offset: 0x7308A, size: 0x8, addend: 0x0, symName: __ZN6spdlog7details11A_formatterINS0_13scoped_padderEEC2ENS0_12padding_infoE, symObjAddr: 0x182C8, symBinAddr: 0x100019248, symSize: 0x5C }
  - { offsetInCU: 0x730C2, offset: 0x730C2, size: 0x8, addend: 0x0, symName: __ZN6spdlog7details11A_formatterINS0_13scoped_padderEED1Ev, symObjAddr: 0x18324, symBinAddr: 0x1000192A4, symSize: 0x2C }
  - { offsetInCU: 0x730EE, offset: 0x730EE, size: 0x8, addend: 0x0, symName: __ZN6spdlog7details11A_formatterINS0_13scoped_padderEED0Ev, symObjAddr: 0x18350, symBinAddr: 0x1000192D0, symSize: 0x30 }
  - { offsetInCU: 0x7311A, offset: 0x7311A, size: 0x8, addend: 0x0, symName: __ZN6spdlog7details11A_formatterINS0_13scoped_padderEE6formatERKNS0_7log_msgERK2tmRN3fmt3v1019basic_memory_bufferIcLm250ENSt3__19allocatorIcEEEE, symObjAddr: 0x18380, symBinAddr: 0x100019300, symSize: 0xFC }
  - { offsetInCU: 0x731D0, offset: 0x731D0, size: 0x8, addend: 0x0, symName: __ZN6spdlog7details11A_formatterINS0_13scoped_padderEED2Ev, symObjAddr: 0x1847C, symBinAddr: 0x1000193FC, symSize: 0x2C }
  - { offsetInCU: 0x731FC, offset: 0x731FC, size: 0x8, addend: 0x0, symName: __ZNSt3__110unique_ptrIN6spdlog7details11A_formatterINS2_13scoped_padderEEENS_14default_deleteIS5_EEEC2B8ue170006ILb1EvEEPS5_, symObjAddr: 0x184A8, symBinAddr: 0x100019428, symSize: 0x44 }
  - { offsetInCU: 0x7323F, offset: 0x7323F, size: 0x8, addend: 0x0, symName: __ZNSt3__117__compressed_pairIPN6spdlog7details11A_formatterINS2_13scoped_padderEEENS_14default_deleteIS5_EEEC1B8ue170006IRS6_NS_16__value_init_tagEEEOT_OT0_, symObjAddr: 0x184EC, symBinAddr: 0x10001946C, symSize: 0x3C }
  - { offsetInCU: 0x73297, offset: 0x73297, size: 0x8, addend: 0x0, symName: __ZNSt3__117__compressed_pairIPN6spdlog7details11A_formatterINS2_13scoped_padderEEENS_14default_deleteIS5_EEEC2B8ue170006IRS6_NS_16__value_init_tagEEEOT_OT0_, symObjAddr: 0x18528, symBinAddr: 0x1000194A8, symSize: 0x40 }
  - { offsetInCU: 0x732EF, offset: 0x732EF, size: 0x8, addend: 0x0, symName: __ZNSt3__122__compressed_pair_elemIPN6spdlog7details11A_formatterINS2_13scoped_padderEEELi0ELb0EEC2B8ue170006IRS6_vEEOT_, symObjAddr: 0x18568, symBinAddr: 0x1000194E8, symSize: 0x24 }
  - { offsetInCU: 0x73331, offset: 0x73331, size: 0x8, addend: 0x0, symName: __ZNSt3__122__compressed_pair_elemINS_14default_deleteIN6spdlog7details11A_formatterINS3_13scoped_padderEEEEELi1ELb1EEC2B8ue170006ENS_16__value_init_tagE, symObjAddr: 0x1858C, symBinAddr: 0x10001950C, symSize: 0x14 }
  - { offsetInCU: 0x73366, offset: 0x73366, size: 0x8, addend: 0x0, symName: __ZNSt3__110unique_ptrIN6spdlog7details14flag_formatterENS_14default_deleteIS3_EEEC2B8ue170006INS2_11A_formatterINS2_13scoped_padderEEENS4_ISA_EEvvEEONS0_IT_T0_EE, symObjAddr: 0x185A0, symBinAddr: 0x100019520, symSize: 0x60 }
  - { offsetInCU: 0x733B2, offset: 0x733B2, size: 0x8, addend: 0x0, symName: __ZNSt3__110unique_ptrIN6spdlog7details11A_formatterINS2_13scoped_padderEEENS_14default_deleteIS5_EEE7releaseB8ue170006Ev, symObjAddr: 0x18600, symBinAddr: 0x100019580, symSize: 0x44 }
  - { offsetInCU: 0x733E7, offset: 0x733E7, size: 0x8, addend: 0x0, symName: __ZNSt3__110unique_ptrIN6spdlog7details11A_formatterINS2_13scoped_padderEEENS_14default_deleteIS5_EEE11get_deleterB8ue170006Ev, symObjAddr: 0x18644, symBinAddr: 0x1000195C4, symSize: 0x24 }
  - { offsetInCU: 0x73419, offset: 0x73419, size: 0x8, addend: 0x0, symName: __ZNSt3__117__compressed_pairIPN6spdlog7details14flag_formatterENS_14default_deleteIS3_EEEC1B8ue170006IPNS2_11A_formatterINS2_13scoped_padderEEENS5_ISB_EEEEOT_OT0_, symObjAddr: 0x18668, symBinAddr: 0x1000195E8, symSize: 0x3C }
  - { offsetInCU: 0x73471, offset: 0x73471, size: 0x8, addend: 0x0, symName: __ZNSt3__117__compressed_pairIPN6spdlog7details11A_formatterINS2_13scoped_padderEEENS_14default_deleteIS5_EEE5firstB8ue170006Ev, symObjAddr: 0x186A4, symBinAddr: 0x100019624, symSize: 0x24 }
  - { offsetInCU: 0x73497, offset: 0x73497, size: 0x8, addend: 0x0, symName: __ZNSt3__122__compressed_pair_elemIPN6spdlog7details11A_formatterINS2_13scoped_padderEEELi0ELb0EE5__getB8ue170006Ev, symObjAddr: 0x186C8, symBinAddr: 0x100019648, symSize: 0x14 }
  - { offsetInCU: 0x734BD, offset: 0x734BD, size: 0x8, addend: 0x0, symName: __ZNSt3__117__compressed_pairIPN6spdlog7details11A_formatterINS2_13scoped_padderEEENS_14default_deleteIS5_EEE6secondB8ue170006Ev, symObjAddr: 0x186DC, symBinAddr: 0x10001965C, symSize: 0x24 }
  - { offsetInCU: 0x734E3, offset: 0x734E3, size: 0x8, addend: 0x0, symName: __ZNSt3__122__compressed_pair_elemINS_14default_deleteIN6spdlog7details11A_formatterINS3_13scoped_padderEEEEELi1ELb1EE5__getB8ue170006Ev, symObjAddr: 0x18700, symBinAddr: 0x100019680, symSize: 0x14 }
  - { offsetInCU: 0x73509, offset: 0x73509, size: 0x8, addend: 0x0, symName: __ZNSt3__117__compressed_pairIPN6spdlog7details14flag_formatterENS_14default_deleteIS3_EEEC2B8ue170006IPNS2_11A_formatterINS2_13scoped_padderEEENS5_ISB_EEEEOT_OT0_, symObjAddr: 0x18714, symBinAddr: 0x100019694, symSize: 0x44 }
  - { offsetInCU: 0x73561, offset: 0x73561, size: 0x8, addend: 0x0, symName: __ZNSt3__122__compressed_pair_elemIPN6spdlog7details14flag_formatterELi0ELb0EEC2B8ue170006IPNS2_11A_formatterINS2_13scoped_padderEEEvEEOT_, symObjAddr: 0x18758, symBinAddr: 0x1000196D8, symSize: 0x24 }
  - { offsetInCU: 0x735A3, offset: 0x735A3, size: 0x8, addend: 0x0, symName: __ZNSt3__122__compressed_pair_elemINS_14default_deleteIN6spdlog7details14flag_formatterEEELi1ELb1EEC2B8ue170006INS1_INS3_11A_formatterINS3_13scoped_padderEEEEEvEEOT_, symObjAddr: 0x1877C, symBinAddr: 0x1000196FC, symSize: 0x38 }
  - { offsetInCU: 0x735E5, offset: 0x735E5, size: 0x8, addend: 0x0, symName: __ZNSt3__114default_deleteIN6spdlog7details14flag_formatterEEC2B8ue170006INS2_11A_formatterINS2_13scoped_padderEEEEERKNS0_IT_EEPNS_9enable_ifIXsr14is_convertibleIPS9_PS3_EE5valueEvE4typeE, symObjAddr: 0x187B4, symBinAddr: 0x100019734, symSize: 0x1C }
  - { offsetInCU: 0x7362E, offset: 0x7362E, size: 0x8, addend: 0x0, symName: __ZNSt3__110unique_ptrIN6spdlog7details11A_formatterINS2_13scoped_padderEEENS_14default_deleteIS5_EEED2B8ue170006Ev, symObjAddr: 0x187D0, symBinAddr: 0x100019750, symSize: 0x30 }
  - { offsetInCU: 0x73658, offset: 0x73658, size: 0x8, addend: 0x0, symName: __ZNSt3__110unique_ptrIN6spdlog7details11A_formatterINS2_13scoped_padderEEENS_14default_deleteIS5_EEE5resetB8ue170006EPS5_, symObjAddr: 0x18800, symBinAddr: 0x100019780, symSize: 0x78 }
  - { offsetInCU: 0x7369C, offset: 0x7369C, size: 0x8, addend: 0x0, symName: __ZNKSt3__114default_deleteIN6spdlog7details11A_formatterINS2_13scoped_padderEEEEclB8ue170006EPS5_, symObjAddr: 0x18878, symBinAddr: 0x1000197F8, symSize: 0x4C }
  - { offsetInCU: 0x736D0, offset: 0x736D0, size: 0x8, addend: 0x0, symName: __ZN6spdlog7details11b_formatterINS0_13scoped_padderEEC1ENS0_12padding_infoE, symObjAddr: 0x188C4, symBinAddr: 0x100019844, symSize: 0x3C }
  - { offsetInCU: 0x73708, offset: 0x73708, size: 0x8, addend: 0x0, symName: __ZNSt3__110unique_ptrIN6spdlog7details11b_formatterINS2_13scoped_padderEEENS_14default_deleteIS5_EEEC1B8ue170006ILb1EvEEPS5_, symObjAddr: 0x18900, symBinAddr: 0x100019880, symSize: 0x34 }
  - { offsetInCU: 0x7374B, offset: 0x7374B, size: 0x8, addend: 0x0, symName: __ZN6spdlog7details11b_formatterINS0_13scoped_padderEEC2ENS0_12padding_infoE, symObjAddr: 0x18934, symBinAddr: 0x1000198B4, symSize: 0x5C }
  - { offsetInCU: 0x73783, offset: 0x73783, size: 0x8, addend: 0x0, symName: __ZN6spdlog7details11b_formatterINS0_13scoped_padderEED1Ev, symObjAddr: 0x18990, symBinAddr: 0x100019910, symSize: 0x2C }
  - { offsetInCU: 0x737AF, offset: 0x737AF, size: 0x8, addend: 0x0, symName: __ZN6spdlog7details11b_formatterINS0_13scoped_padderEED0Ev, symObjAddr: 0x189BC, symBinAddr: 0x10001993C, symSize: 0x30 }
  - { offsetInCU: 0x737DB, offset: 0x737DB, size: 0x8, addend: 0x0, symName: __ZN6spdlog7details11b_formatterINS0_13scoped_padderEE6formatERKNS0_7log_msgERK2tmRN3fmt3v1019basic_memory_bufferIcLm250ENSt3__19allocatorIcEEEE, symObjAddr: 0x189EC, symBinAddr: 0x10001996C, symSize: 0xFC }
  - { offsetInCU: 0x73891, offset: 0x73891, size: 0x8, addend: 0x0, symName: __ZN6spdlog7details11b_formatterINS0_13scoped_padderEED2Ev, symObjAddr: 0x18AE8, symBinAddr: 0x100019A68, symSize: 0x2C }
  - { offsetInCU: 0x738BD, offset: 0x738BD, size: 0x8, addend: 0x0, symName: __ZNKSt3__15arrayIPKcLm12EEixB8ue170006Em, symObjAddr: 0x18B14, symBinAddr: 0x100019A94, symSize: 0x20 }
  - { offsetInCU: 0x738F1, offset: 0x738F1, size: 0x8, addend: 0x0, symName: __ZNSt3__110unique_ptrIN6spdlog7details11b_formatterINS2_13scoped_padderEEENS_14default_deleteIS5_EEEC2B8ue170006ILb1EvEEPS5_, symObjAddr: 0x18B34, symBinAddr: 0x100019AB4, symSize: 0x44 }
  - { offsetInCU: 0x73934, offset: 0x73934, size: 0x8, addend: 0x0, symName: __ZNSt3__117__compressed_pairIPN6spdlog7details11b_formatterINS2_13scoped_padderEEENS_14default_deleteIS5_EEEC1B8ue170006IRS6_NS_16__value_init_tagEEEOT_OT0_, symObjAddr: 0x18B78, symBinAddr: 0x100019AF8, symSize: 0x3C }
  - { offsetInCU: 0x7398C, offset: 0x7398C, size: 0x8, addend: 0x0, symName: __ZNSt3__117__compressed_pairIPN6spdlog7details11b_formatterINS2_13scoped_padderEEENS_14default_deleteIS5_EEEC2B8ue170006IRS6_NS_16__value_init_tagEEEOT_OT0_, symObjAddr: 0x18BB4, symBinAddr: 0x100019B34, symSize: 0x40 }
  - { offsetInCU: 0x739E4, offset: 0x739E4, size: 0x8, addend: 0x0, symName: __ZNSt3__122__compressed_pair_elemIPN6spdlog7details11b_formatterINS2_13scoped_padderEEELi0ELb0EEC2B8ue170006IRS6_vEEOT_, symObjAddr: 0x18BF4, symBinAddr: 0x100019B74, symSize: 0x24 }
  - { offsetInCU: 0x73A26, offset: 0x73A26, size: 0x8, addend: 0x0, symName: __ZNSt3__122__compressed_pair_elemINS_14default_deleteIN6spdlog7details11b_formatterINS3_13scoped_padderEEEEELi1ELb1EEC2B8ue170006ENS_16__value_init_tagE, symObjAddr: 0x18C18, symBinAddr: 0x100019B98, symSize: 0x14 }
  - { offsetInCU: 0x73A5B, offset: 0x73A5B, size: 0x8, addend: 0x0, symName: __ZNSt3__110unique_ptrIN6spdlog7details14flag_formatterENS_14default_deleteIS3_EEEC2B8ue170006INS2_11b_formatterINS2_13scoped_padderEEENS4_ISA_EEvvEEONS0_IT_T0_EE, symObjAddr: 0x18C2C, symBinAddr: 0x100019BAC, symSize: 0x60 }
  - { offsetInCU: 0x73AA7, offset: 0x73AA7, size: 0x8, addend: 0x0, symName: __ZNSt3__110unique_ptrIN6spdlog7details11b_formatterINS2_13scoped_padderEEENS_14default_deleteIS5_EEE7releaseB8ue170006Ev, symObjAddr: 0x18C8C, symBinAddr: 0x100019C0C, symSize: 0x44 }
  - { offsetInCU: 0x73ADC, offset: 0x73ADC, size: 0x8, addend: 0x0, symName: __ZNSt3__110unique_ptrIN6spdlog7details11b_formatterINS2_13scoped_padderEEENS_14default_deleteIS5_EEE11get_deleterB8ue170006Ev, symObjAddr: 0x18CD0, symBinAddr: 0x100019C50, symSize: 0x24 }
  - { offsetInCU: 0x73B0E, offset: 0x73B0E, size: 0x8, addend: 0x0, symName: __ZNSt3__117__compressed_pairIPN6spdlog7details14flag_formatterENS_14default_deleteIS3_EEEC1B8ue170006IPNS2_11b_formatterINS2_13scoped_padderEEENS5_ISB_EEEEOT_OT0_, symObjAddr: 0x18CF4, symBinAddr: 0x100019C74, symSize: 0x3C }
  - { offsetInCU: 0x73B66, offset: 0x73B66, size: 0x8, addend: 0x0, symName: __ZNSt3__117__compressed_pairIPN6spdlog7details11b_formatterINS2_13scoped_padderEEENS_14default_deleteIS5_EEE5firstB8ue170006Ev, symObjAddr: 0x18D30, symBinAddr: 0x100019CB0, symSize: 0x24 }
  - { offsetInCU: 0x73B8C, offset: 0x73B8C, size: 0x8, addend: 0x0, symName: __ZNSt3__122__compressed_pair_elemIPN6spdlog7details11b_formatterINS2_13scoped_padderEEELi0ELb0EE5__getB8ue170006Ev, symObjAddr: 0x18D54, symBinAddr: 0x100019CD4, symSize: 0x14 }
  - { offsetInCU: 0x73BB2, offset: 0x73BB2, size: 0x8, addend: 0x0, symName: __ZNSt3__117__compressed_pairIPN6spdlog7details11b_formatterINS2_13scoped_padderEEENS_14default_deleteIS5_EEE6secondB8ue170006Ev, symObjAddr: 0x18D68, symBinAddr: 0x100019CE8, symSize: 0x24 }
  - { offsetInCU: 0x73BD8, offset: 0x73BD8, size: 0x8, addend: 0x0, symName: __ZNSt3__122__compressed_pair_elemINS_14default_deleteIN6spdlog7details11b_formatterINS3_13scoped_padderEEEEELi1ELb1EE5__getB8ue170006Ev, symObjAddr: 0x18D8C, symBinAddr: 0x100019D0C, symSize: 0x14 }
  - { offsetInCU: 0x73BFE, offset: 0x73BFE, size: 0x8, addend: 0x0, symName: __ZNSt3__117__compressed_pairIPN6spdlog7details14flag_formatterENS_14default_deleteIS3_EEEC2B8ue170006IPNS2_11b_formatterINS2_13scoped_padderEEENS5_ISB_EEEEOT_OT0_, symObjAddr: 0x18DA0, symBinAddr: 0x100019D20, symSize: 0x44 }
  - { offsetInCU: 0x73C56, offset: 0x73C56, size: 0x8, addend: 0x0, symName: __ZNSt3__122__compressed_pair_elemIPN6spdlog7details14flag_formatterELi0ELb0EEC2B8ue170006IPNS2_11b_formatterINS2_13scoped_padderEEEvEEOT_, symObjAddr: 0x18DE4, symBinAddr: 0x100019D64, symSize: 0x24 }
  - { offsetInCU: 0x73C98, offset: 0x73C98, size: 0x8, addend: 0x0, symName: __ZNSt3__122__compressed_pair_elemINS_14default_deleteIN6spdlog7details14flag_formatterEEELi1ELb1EEC2B8ue170006INS1_INS3_11b_formatterINS3_13scoped_padderEEEEEvEEOT_, symObjAddr: 0x18E08, symBinAddr: 0x100019D88, symSize: 0x38 }
  - { offsetInCU: 0x73CDA, offset: 0x73CDA, size: 0x8, addend: 0x0, symName: __ZNSt3__114default_deleteIN6spdlog7details14flag_formatterEEC2B8ue170006INS2_11b_formatterINS2_13scoped_padderEEEEERKNS0_IT_EEPNS_9enable_ifIXsr14is_convertibleIPS9_PS3_EE5valueEvE4typeE, symObjAddr: 0x18E40, symBinAddr: 0x100019DC0, symSize: 0x1C }
  - { offsetInCU: 0x73D23, offset: 0x73D23, size: 0x8, addend: 0x0, symName: __ZNSt3__110unique_ptrIN6spdlog7details11b_formatterINS2_13scoped_padderEEENS_14default_deleteIS5_EEED2B8ue170006Ev, symObjAddr: 0x18E5C, symBinAddr: 0x100019DDC, symSize: 0x30 }
  - { offsetInCU: 0x73D4D, offset: 0x73D4D, size: 0x8, addend: 0x0, symName: __ZNSt3__110unique_ptrIN6spdlog7details11b_formatterINS2_13scoped_padderEEENS_14default_deleteIS5_EEE5resetB8ue170006EPS5_, symObjAddr: 0x18E8C, symBinAddr: 0x100019E0C, symSize: 0x78 }
  - { offsetInCU: 0x73D91, offset: 0x73D91, size: 0x8, addend: 0x0, symName: __ZNKSt3__114default_deleteIN6spdlog7details11b_formatterINS2_13scoped_padderEEEEclB8ue170006EPS5_, symObjAddr: 0x18F04, symBinAddr: 0x100019E84, symSize: 0x4C }
  - { offsetInCU: 0x73DC5, offset: 0x73DC5, size: 0x8, addend: 0x0, symName: __ZN6spdlog7details11B_formatterINS0_13scoped_padderEEC1ENS0_12padding_infoE, symObjAddr: 0x18F50, symBinAddr: 0x100019ED0, symSize: 0x3C }
  - { offsetInCU: 0x73DFD, offset: 0x73DFD, size: 0x8, addend: 0x0, symName: __ZNSt3__110unique_ptrIN6spdlog7details11B_formatterINS2_13scoped_padderEEENS_14default_deleteIS5_EEEC1B8ue170006ILb1EvEEPS5_, symObjAddr: 0x18F8C, symBinAddr: 0x100019F0C, symSize: 0x34 }
  - { offsetInCU: 0x73E40, offset: 0x73E40, size: 0x8, addend: 0x0, symName: __ZN6spdlog7details11B_formatterINS0_13scoped_padderEEC2ENS0_12padding_infoE, symObjAddr: 0x18FC0, symBinAddr: 0x100019F40, symSize: 0x5C }
  - { offsetInCU: 0x73E78, offset: 0x73E78, size: 0x8, addend: 0x0, symName: __ZN6spdlog7details11B_formatterINS0_13scoped_padderEED1Ev, symObjAddr: 0x1901C, symBinAddr: 0x100019F9C, symSize: 0x2C }
  - { offsetInCU: 0x73EA4, offset: 0x73EA4, size: 0x8, addend: 0x0, symName: __ZN6spdlog7details11B_formatterINS0_13scoped_padderEED0Ev, symObjAddr: 0x19048, symBinAddr: 0x100019FC8, symSize: 0x30 }
  - { offsetInCU: 0x73ED0, offset: 0x73ED0, size: 0x8, addend: 0x0, symName: __ZN6spdlog7details11B_formatterINS0_13scoped_padderEE6formatERKNS0_7log_msgERK2tmRN3fmt3v1019basic_memory_bufferIcLm250ENSt3__19allocatorIcEEEE, symObjAddr: 0x19078, symBinAddr: 0x100019FF8, symSize: 0xFC }
  - { offsetInCU: 0x73F86, offset: 0x73F86, size: 0x8, addend: 0x0, symName: __ZN6spdlog7details11B_formatterINS0_13scoped_padderEED2Ev, symObjAddr: 0x19174, symBinAddr: 0x10001A0F4, symSize: 0x2C }
  - { offsetInCU: 0x73FB2, offset: 0x73FB2, size: 0x8, addend: 0x0, symName: __ZNSt3__110unique_ptrIN6spdlog7details11B_formatterINS2_13scoped_padderEEENS_14default_deleteIS5_EEEC2B8ue170006ILb1EvEEPS5_, symObjAddr: 0x191A0, symBinAddr: 0x10001A120, symSize: 0x44 }
  - { offsetInCU: 0x73FF5, offset: 0x73FF5, size: 0x8, addend: 0x0, symName: __ZNSt3__117__compressed_pairIPN6spdlog7details11B_formatterINS2_13scoped_padderEEENS_14default_deleteIS5_EEEC1B8ue170006IRS6_NS_16__value_init_tagEEEOT_OT0_, symObjAddr: 0x191E4, symBinAddr: 0x10001A164, symSize: 0x3C }
  - { offsetInCU: 0x7404D, offset: 0x7404D, size: 0x8, addend: 0x0, symName: __ZNSt3__117__compressed_pairIPN6spdlog7details11B_formatterINS2_13scoped_padderEEENS_14default_deleteIS5_EEEC2B8ue170006IRS6_NS_16__value_init_tagEEEOT_OT0_, symObjAddr: 0x19220, symBinAddr: 0x10001A1A0, symSize: 0x40 }
  - { offsetInCU: 0x740A5, offset: 0x740A5, size: 0x8, addend: 0x0, symName: __ZNSt3__122__compressed_pair_elemIPN6spdlog7details11B_formatterINS2_13scoped_padderEEELi0ELb0EEC2B8ue170006IRS6_vEEOT_, symObjAddr: 0x19260, symBinAddr: 0x10001A1E0, symSize: 0x24 }
  - { offsetInCU: 0x740E7, offset: 0x740E7, size: 0x8, addend: 0x0, symName: __ZNSt3__122__compressed_pair_elemINS_14default_deleteIN6spdlog7details11B_formatterINS3_13scoped_padderEEEEELi1ELb1EEC2B8ue170006ENS_16__value_init_tagE, symObjAddr: 0x19284, symBinAddr: 0x10001A204, symSize: 0x14 }
  - { offsetInCU: 0x7411C, offset: 0x7411C, size: 0x8, addend: 0x0, symName: __ZNSt3__110unique_ptrIN6spdlog7details14flag_formatterENS_14default_deleteIS3_EEEC2B8ue170006INS2_11B_formatterINS2_13scoped_padderEEENS4_ISA_EEvvEEONS0_IT_T0_EE, symObjAddr: 0x19298, symBinAddr: 0x10001A218, symSize: 0x60 }
  - { offsetInCU: 0x74168, offset: 0x74168, size: 0x8, addend: 0x0, symName: __ZNSt3__110unique_ptrIN6spdlog7details11B_formatterINS2_13scoped_padderEEENS_14default_deleteIS5_EEE7releaseB8ue170006Ev, symObjAddr: 0x192F8, symBinAddr: 0x10001A278, symSize: 0x44 }
  - { offsetInCU: 0x7419D, offset: 0x7419D, size: 0x8, addend: 0x0, symName: __ZNSt3__110unique_ptrIN6spdlog7details11B_formatterINS2_13scoped_padderEEENS_14default_deleteIS5_EEE11get_deleterB8ue170006Ev, symObjAddr: 0x1933C, symBinAddr: 0x10001A2BC, symSize: 0x24 }
  - { offsetInCU: 0x741CF, offset: 0x741CF, size: 0x8, addend: 0x0, symName: __ZNSt3__117__compressed_pairIPN6spdlog7details14flag_formatterENS_14default_deleteIS3_EEEC1B8ue170006IPNS2_11B_formatterINS2_13scoped_padderEEENS5_ISB_EEEEOT_OT0_, symObjAddr: 0x19360, symBinAddr: 0x10001A2E0, symSize: 0x3C }
  - { offsetInCU: 0x74227, offset: 0x74227, size: 0x8, addend: 0x0, symName: __ZNSt3__117__compressed_pairIPN6spdlog7details11B_formatterINS2_13scoped_padderEEENS_14default_deleteIS5_EEE5firstB8ue170006Ev, symObjAddr: 0x1939C, symBinAddr: 0x10001A31C, symSize: 0x24 }
  - { offsetInCU: 0x7424D, offset: 0x7424D, size: 0x8, addend: 0x0, symName: __ZNSt3__122__compressed_pair_elemIPN6spdlog7details11B_formatterINS2_13scoped_padderEEELi0ELb0EE5__getB8ue170006Ev, symObjAddr: 0x193C0, symBinAddr: 0x10001A340, symSize: 0x14 }
  - { offsetInCU: 0x74273, offset: 0x74273, size: 0x8, addend: 0x0, symName: __ZNSt3__117__compressed_pairIPN6spdlog7details11B_formatterINS2_13scoped_padderEEENS_14default_deleteIS5_EEE6secondB8ue170006Ev, symObjAddr: 0x193D4, symBinAddr: 0x10001A354, symSize: 0x24 }
  - { offsetInCU: 0x74299, offset: 0x74299, size: 0x8, addend: 0x0, symName: __ZNSt3__122__compressed_pair_elemINS_14default_deleteIN6spdlog7details11B_formatterINS3_13scoped_padderEEEEELi1ELb1EE5__getB8ue170006Ev, symObjAddr: 0x193F8, symBinAddr: 0x10001A378, symSize: 0x14 }
  - { offsetInCU: 0x742BF, offset: 0x742BF, size: 0x8, addend: 0x0, symName: __ZNSt3__117__compressed_pairIPN6spdlog7details14flag_formatterENS_14default_deleteIS3_EEEC2B8ue170006IPNS2_11B_formatterINS2_13scoped_padderEEENS5_ISB_EEEEOT_OT0_, symObjAddr: 0x1940C, symBinAddr: 0x10001A38C, symSize: 0x44 }
  - { offsetInCU: 0x74317, offset: 0x74317, size: 0x8, addend: 0x0, symName: __ZNSt3__122__compressed_pair_elemIPN6spdlog7details14flag_formatterELi0ELb0EEC2B8ue170006IPNS2_11B_formatterINS2_13scoped_padderEEEvEEOT_, symObjAddr: 0x19450, symBinAddr: 0x10001A3D0, symSize: 0x24 }
  - { offsetInCU: 0x74359, offset: 0x74359, size: 0x8, addend: 0x0, symName: __ZNSt3__122__compressed_pair_elemINS_14default_deleteIN6spdlog7details14flag_formatterEEELi1ELb1EEC2B8ue170006INS1_INS3_11B_formatterINS3_13scoped_padderEEEEEvEEOT_, symObjAddr: 0x19474, symBinAddr: 0x10001A3F4, symSize: 0x38 }
  - { offsetInCU: 0x7439B, offset: 0x7439B, size: 0x8, addend: 0x0, symName: __ZNSt3__114default_deleteIN6spdlog7details14flag_formatterEEC2B8ue170006INS2_11B_formatterINS2_13scoped_padderEEEEERKNS0_IT_EEPNS_9enable_ifIXsr14is_convertibleIPS9_PS3_EE5valueEvE4typeE, symObjAddr: 0x194AC, symBinAddr: 0x10001A42C, symSize: 0x1C }
  - { offsetInCU: 0x743E4, offset: 0x743E4, size: 0x8, addend: 0x0, symName: __ZNSt3__110unique_ptrIN6spdlog7details11B_formatterINS2_13scoped_padderEEENS_14default_deleteIS5_EEED2B8ue170006Ev, symObjAddr: 0x194C8, symBinAddr: 0x10001A448, symSize: 0x30 }
  - { offsetInCU: 0x7440E, offset: 0x7440E, size: 0x8, addend: 0x0, symName: __ZNSt3__110unique_ptrIN6spdlog7details11B_formatterINS2_13scoped_padderEEENS_14default_deleteIS5_EEE5resetB8ue170006EPS5_, symObjAddr: 0x194F8, symBinAddr: 0x10001A478, symSize: 0x78 }
  - { offsetInCU: 0x74452, offset: 0x74452, size: 0x8, addend: 0x0, symName: __ZNKSt3__114default_deleteIN6spdlog7details11B_formatterINS2_13scoped_padderEEEEclB8ue170006EPS5_, symObjAddr: 0x19570, symBinAddr: 0x10001A4F0, symSize: 0x4C }
  - { offsetInCU: 0x74486, offset: 0x74486, size: 0x8, addend: 0x0, symName: __ZN6spdlog7details11c_formatterINS0_13scoped_padderEEC1ENS0_12padding_infoE, symObjAddr: 0x195BC, symBinAddr: 0x10001A53C, symSize: 0x3C }
  - { offsetInCU: 0x744BE, offset: 0x744BE, size: 0x8, addend: 0x0, symName: __ZNSt3__110unique_ptrIN6spdlog7details11c_formatterINS2_13scoped_padderEEENS_14default_deleteIS5_EEEC1B8ue170006ILb1EvEEPS5_, symObjAddr: 0x195F8, symBinAddr: 0x10001A578, symSize: 0x34 }
  - { offsetInCU: 0x74501, offset: 0x74501, size: 0x8, addend: 0x0, symName: __ZN6spdlog7details11c_formatterINS0_13scoped_padderEEC2ENS0_12padding_infoE, symObjAddr: 0x1962C, symBinAddr: 0x10001A5AC, symSize: 0x5C }
  - { offsetInCU: 0x74539, offset: 0x74539, size: 0x8, addend: 0x0, symName: __ZN6spdlog7details11c_formatterINS0_13scoped_padderEED1Ev, symObjAddr: 0x19688, symBinAddr: 0x10001A608, symSize: 0x2C }
  - { offsetInCU: 0x74565, offset: 0x74565, size: 0x8, addend: 0x0, symName: __ZN6spdlog7details11c_formatterINS0_13scoped_padderEED0Ev, symObjAddr: 0x196B4, symBinAddr: 0x10001A634, symSize: 0x30 }
  - { offsetInCU: 0x74591, offset: 0x74591, size: 0x8, addend: 0x0, symName: __ZN6spdlog7details11c_formatterINS0_13scoped_padderEE6formatERKNS0_7log_msgERK2tmRN3fmt3v1019basic_memory_bufferIcLm250ENSt3__19allocatorIcEEEE, symObjAddr: 0x196E4, symBinAddr: 0x10001A664, symSize: 0x24C }
  - { offsetInCU: 0x74696, offset: 0x74696, size: 0x8, addend: 0x0, symName: __ZN6spdlog7details11c_formatterINS0_13scoped_padderEED2Ev, symObjAddr: 0x19930, symBinAddr: 0x10001A8B0, symSize: 0x2C }
  - { offsetInCU: 0x746C2, offset: 0x746C2, size: 0x8, addend: 0x0, symName: __ZNSt3__110unique_ptrIN6spdlog7details11c_formatterINS2_13scoped_padderEEENS_14default_deleteIS5_EEEC2B8ue170006ILb1EvEEPS5_, symObjAddr: 0x1995C, symBinAddr: 0x10001A8DC, symSize: 0x44 }
  - { offsetInCU: 0x74705, offset: 0x74705, size: 0x8, addend: 0x0, symName: __ZNSt3__117__compressed_pairIPN6spdlog7details11c_formatterINS2_13scoped_padderEEENS_14default_deleteIS5_EEEC1B8ue170006IRS6_NS_16__value_init_tagEEEOT_OT0_, symObjAddr: 0x199A0, symBinAddr: 0x10001A920, symSize: 0x3C }
  - { offsetInCU: 0x7475D, offset: 0x7475D, size: 0x8, addend: 0x0, symName: __ZNSt3__117__compressed_pairIPN6spdlog7details11c_formatterINS2_13scoped_padderEEENS_14default_deleteIS5_EEEC2B8ue170006IRS6_NS_16__value_init_tagEEEOT_OT0_, symObjAddr: 0x199DC, symBinAddr: 0x10001A95C, symSize: 0x40 }
  - { offsetInCU: 0x747B5, offset: 0x747B5, size: 0x8, addend: 0x0, symName: __ZNSt3__122__compressed_pair_elemIPN6spdlog7details11c_formatterINS2_13scoped_padderEEELi0ELb0EEC2B8ue170006IRS6_vEEOT_, symObjAddr: 0x19A1C, symBinAddr: 0x10001A99C, symSize: 0x24 }
  - { offsetInCU: 0x747F7, offset: 0x747F7, size: 0x8, addend: 0x0, symName: __ZNSt3__122__compressed_pair_elemINS_14default_deleteIN6spdlog7details11c_formatterINS3_13scoped_padderEEEEELi1ELb1EEC2B8ue170006ENS_16__value_init_tagE, symObjAddr: 0x19A40, symBinAddr: 0x10001A9C0, symSize: 0x14 }
  - { offsetInCU: 0x7482C, offset: 0x7482C, size: 0x8, addend: 0x0, symName: __ZNSt3__110unique_ptrIN6spdlog7details14flag_formatterENS_14default_deleteIS3_EEEC2B8ue170006INS2_11c_formatterINS2_13scoped_padderEEENS4_ISA_EEvvEEONS0_IT_T0_EE, symObjAddr: 0x19A54, symBinAddr: 0x10001A9D4, symSize: 0x60 }
  - { offsetInCU: 0x74878, offset: 0x74878, size: 0x8, addend: 0x0, symName: __ZNSt3__110unique_ptrIN6spdlog7details11c_formatterINS2_13scoped_padderEEENS_14default_deleteIS5_EEE7releaseB8ue170006Ev, symObjAddr: 0x19AB4, symBinAddr: 0x10001AA34, symSize: 0x44 }
  - { offsetInCU: 0x748AD, offset: 0x748AD, size: 0x8, addend: 0x0, symName: __ZNSt3__110unique_ptrIN6spdlog7details11c_formatterINS2_13scoped_padderEEENS_14default_deleteIS5_EEE11get_deleterB8ue170006Ev, symObjAddr: 0x19AF8, symBinAddr: 0x10001AA78, symSize: 0x24 }
  - { offsetInCU: 0x748DF, offset: 0x748DF, size: 0x8, addend: 0x0, symName: __ZNSt3__117__compressed_pairIPN6spdlog7details14flag_formatterENS_14default_deleteIS3_EEEC1B8ue170006IPNS2_11c_formatterINS2_13scoped_padderEEENS5_ISB_EEEEOT_OT0_, symObjAddr: 0x19B1C, symBinAddr: 0x10001AA9C, symSize: 0x3C }
  - { offsetInCU: 0x74937, offset: 0x74937, size: 0x8, addend: 0x0, symName: __ZNSt3__117__compressed_pairIPN6spdlog7details11c_formatterINS2_13scoped_padderEEENS_14default_deleteIS5_EEE5firstB8ue170006Ev, symObjAddr: 0x19B58, symBinAddr: 0x10001AAD8, symSize: 0x24 }
  - { offsetInCU: 0x7495D, offset: 0x7495D, size: 0x8, addend: 0x0, symName: __ZNSt3__122__compressed_pair_elemIPN6spdlog7details11c_formatterINS2_13scoped_padderEEELi0ELb0EE5__getB8ue170006Ev, symObjAddr: 0x19B7C, symBinAddr: 0x10001AAFC, symSize: 0x14 }
  - { offsetInCU: 0x74983, offset: 0x74983, size: 0x8, addend: 0x0, symName: __ZNSt3__117__compressed_pairIPN6spdlog7details11c_formatterINS2_13scoped_padderEEENS_14default_deleteIS5_EEE6secondB8ue170006Ev, symObjAddr: 0x19B90, symBinAddr: 0x10001AB10, symSize: 0x24 }
  - { offsetInCU: 0x749A9, offset: 0x749A9, size: 0x8, addend: 0x0, symName: __ZNSt3__122__compressed_pair_elemINS_14default_deleteIN6spdlog7details11c_formatterINS3_13scoped_padderEEEEELi1ELb1EE5__getB8ue170006Ev, symObjAddr: 0x19BB4, symBinAddr: 0x10001AB34, symSize: 0x14 }
  - { offsetInCU: 0x749CF, offset: 0x749CF, size: 0x8, addend: 0x0, symName: __ZNSt3__117__compressed_pairIPN6spdlog7details14flag_formatterENS_14default_deleteIS3_EEEC2B8ue170006IPNS2_11c_formatterINS2_13scoped_padderEEENS5_ISB_EEEEOT_OT0_, symObjAddr: 0x19BC8, symBinAddr: 0x10001AB48, symSize: 0x44 }
  - { offsetInCU: 0x74A27, offset: 0x74A27, size: 0x8, addend: 0x0, symName: __ZNSt3__122__compressed_pair_elemIPN6spdlog7details14flag_formatterELi0ELb0EEC2B8ue170006IPNS2_11c_formatterINS2_13scoped_padderEEEvEEOT_, symObjAddr: 0x19C0C, symBinAddr: 0x10001AB8C, symSize: 0x24 }
  - { offsetInCU: 0x74A69, offset: 0x74A69, size: 0x8, addend: 0x0, symName: __ZNSt3__122__compressed_pair_elemINS_14default_deleteIN6spdlog7details14flag_formatterEEELi1ELb1EEC2B8ue170006INS1_INS3_11c_formatterINS3_13scoped_padderEEEEEvEEOT_, symObjAddr: 0x19C30, symBinAddr: 0x10001ABB0, symSize: 0x38 }
  - { offsetInCU: 0x74AAB, offset: 0x74AAB, size: 0x8, addend: 0x0, symName: __ZNSt3__114default_deleteIN6spdlog7details14flag_formatterEEC2B8ue170006INS2_11c_formatterINS2_13scoped_padderEEEEERKNS0_IT_EEPNS_9enable_ifIXsr14is_convertibleIPS9_PS3_EE5valueEvE4typeE, symObjAddr: 0x19C68, symBinAddr: 0x10001ABE8, symSize: 0x1C }
  - { offsetInCU: 0x74AF4, offset: 0x74AF4, size: 0x8, addend: 0x0, symName: __ZNSt3__110unique_ptrIN6spdlog7details11c_formatterINS2_13scoped_padderEEENS_14default_deleteIS5_EEED2B8ue170006Ev, symObjAddr: 0x19C84, symBinAddr: 0x10001AC04, symSize: 0x30 }
  - { offsetInCU: 0x74B1E, offset: 0x74B1E, size: 0x8, addend: 0x0, symName: __ZNSt3__110unique_ptrIN6spdlog7details11c_formatterINS2_13scoped_padderEEENS_14default_deleteIS5_EEE5resetB8ue170006EPS5_, symObjAddr: 0x19CB4, symBinAddr: 0x10001AC34, symSize: 0x78 }
  - { offsetInCU: 0x74B62, offset: 0x74B62, size: 0x8, addend: 0x0, symName: __ZNKSt3__114default_deleteIN6spdlog7details11c_formatterINS2_13scoped_padderEEEEclB8ue170006EPS5_, symObjAddr: 0x19D2C, symBinAddr: 0x10001ACAC, symSize: 0x4C }
  - { offsetInCU: 0x74B96, offset: 0x74B96, size: 0x8, addend: 0x0, symName: __ZN6spdlog7details11C_formatterINS0_13scoped_padderEEC1ENS0_12padding_infoE, symObjAddr: 0x19D78, symBinAddr: 0x10001ACF8, symSize: 0x3C }
  - { offsetInCU: 0x74BCE, offset: 0x74BCE, size: 0x8, addend: 0x0, symName: __ZNSt3__110unique_ptrIN6spdlog7details11C_formatterINS2_13scoped_padderEEENS_14default_deleteIS5_EEEC1B8ue170006ILb1EvEEPS5_, symObjAddr: 0x19DB4, symBinAddr: 0x10001AD34, symSize: 0x34 }
  - { offsetInCU: 0x74C11, offset: 0x74C11, size: 0x8, addend: 0x0, symName: __ZN6spdlog7details11C_formatterINS0_13scoped_padderEEC2ENS0_12padding_infoE, symObjAddr: 0x19DE8, symBinAddr: 0x10001AD68, symSize: 0x5C }
  - { offsetInCU: 0x74C49, offset: 0x74C49, size: 0x8, addend: 0x0, symName: __ZN6spdlog7details11C_formatterINS0_13scoped_padderEED1Ev, symObjAddr: 0x19E44, symBinAddr: 0x10001ADC4, symSize: 0x2C }
  - { offsetInCU: 0x74C75, offset: 0x74C75, size: 0x8, addend: 0x0, symName: __ZN6spdlog7details11C_formatterINS0_13scoped_padderEED0Ev, symObjAddr: 0x19E70, symBinAddr: 0x10001ADF0, symSize: 0x30 }
  - { offsetInCU: 0x74CA1, offset: 0x74CA1, size: 0x8, addend: 0x0, symName: __ZN6spdlog7details11C_formatterINS0_13scoped_padderEE6formatERKNS0_7log_msgERK2tmRN3fmt3v1019basic_memory_bufferIcLm250ENSt3__19allocatorIcEEEE, symObjAddr: 0x19EA0, symBinAddr: 0x10001AE20, symSize: 0x90 }
  - { offsetInCU: 0x74D0A, offset: 0x74D0A, size: 0x8, addend: 0x0, symName: __ZN6spdlog7details11C_formatterINS0_13scoped_padderEED2Ev, symObjAddr: 0x19F30, symBinAddr: 0x10001AEB0, symSize: 0x2C }
  - { offsetInCU: 0x74D36, offset: 0x74D36, size: 0x8, addend: 0x0, symName: __ZNSt3__110unique_ptrIN6spdlog7details11C_formatterINS2_13scoped_padderEEENS_14default_deleteIS5_EEEC2B8ue170006ILb1EvEEPS5_, symObjAddr: 0x19F5C, symBinAddr: 0x10001AEDC, symSize: 0x44 }
  - { offsetInCU: 0x74D79, offset: 0x74D79, size: 0x8, addend: 0x0, symName: __ZNSt3__117__compressed_pairIPN6spdlog7details11C_formatterINS2_13scoped_padderEEENS_14default_deleteIS5_EEEC1B8ue170006IRS6_NS_16__value_init_tagEEEOT_OT0_, symObjAddr: 0x19FA0, symBinAddr: 0x10001AF20, symSize: 0x3C }
  - { offsetInCU: 0x74DD1, offset: 0x74DD1, size: 0x8, addend: 0x0, symName: __ZNSt3__117__compressed_pairIPN6spdlog7details11C_formatterINS2_13scoped_padderEEENS_14default_deleteIS5_EEEC2B8ue170006IRS6_NS_16__value_init_tagEEEOT_OT0_, symObjAddr: 0x19FDC, symBinAddr: 0x10001AF5C, symSize: 0x40 }
  - { offsetInCU: 0x74E29, offset: 0x74E29, size: 0x8, addend: 0x0, symName: __ZNSt3__122__compressed_pair_elemIPN6spdlog7details11C_formatterINS2_13scoped_padderEEELi0ELb0EEC2B8ue170006IRS6_vEEOT_, symObjAddr: 0x1A01C, symBinAddr: 0x10001AF9C, symSize: 0x24 }
  - { offsetInCU: 0x74E6B, offset: 0x74E6B, size: 0x8, addend: 0x0, symName: __ZNSt3__122__compressed_pair_elemINS_14default_deleteIN6spdlog7details11C_formatterINS3_13scoped_padderEEEEELi1ELb1EEC2B8ue170006ENS_16__value_init_tagE, symObjAddr: 0x1A040, symBinAddr: 0x10001AFC0, symSize: 0x14 }
  - { offsetInCU: 0x74EA0, offset: 0x74EA0, size: 0x8, addend: 0x0, symName: __ZNSt3__110unique_ptrIN6spdlog7details14flag_formatterENS_14default_deleteIS3_EEEC2B8ue170006INS2_11C_formatterINS2_13scoped_padderEEENS4_ISA_EEvvEEONS0_IT_T0_EE, symObjAddr: 0x1A054, symBinAddr: 0x10001AFD4, symSize: 0x60 }
  - { offsetInCU: 0x74EEC, offset: 0x74EEC, size: 0x8, addend: 0x0, symName: __ZNSt3__110unique_ptrIN6spdlog7details11C_formatterINS2_13scoped_padderEEENS_14default_deleteIS5_EEE7releaseB8ue170006Ev, symObjAddr: 0x1A0B4, symBinAddr: 0x10001B034, symSize: 0x44 }
  - { offsetInCU: 0x74F21, offset: 0x74F21, size: 0x8, addend: 0x0, symName: __ZNSt3__110unique_ptrIN6spdlog7details11C_formatterINS2_13scoped_padderEEENS_14default_deleteIS5_EEE11get_deleterB8ue170006Ev, symObjAddr: 0x1A0F8, symBinAddr: 0x10001B078, symSize: 0x24 }
  - { offsetInCU: 0x74F53, offset: 0x74F53, size: 0x8, addend: 0x0, symName: __ZNSt3__117__compressed_pairIPN6spdlog7details14flag_formatterENS_14default_deleteIS3_EEEC1B8ue170006IPNS2_11C_formatterINS2_13scoped_padderEEENS5_ISB_EEEEOT_OT0_, symObjAddr: 0x1A11C, symBinAddr: 0x10001B09C, symSize: 0x3C }
  - { offsetInCU: 0x74FAB, offset: 0x74FAB, size: 0x8, addend: 0x0, symName: __ZNSt3__117__compressed_pairIPN6spdlog7details11C_formatterINS2_13scoped_padderEEENS_14default_deleteIS5_EEE5firstB8ue170006Ev, symObjAddr: 0x1A158, symBinAddr: 0x10001B0D8, symSize: 0x24 }
  - { offsetInCU: 0x74FD1, offset: 0x74FD1, size: 0x8, addend: 0x0, symName: __ZNSt3__122__compressed_pair_elemIPN6spdlog7details11C_formatterINS2_13scoped_padderEEELi0ELb0EE5__getB8ue170006Ev, symObjAddr: 0x1A17C, symBinAddr: 0x10001B0FC, symSize: 0x14 }
  - { offsetInCU: 0x74FF7, offset: 0x74FF7, size: 0x8, addend: 0x0, symName: __ZNSt3__117__compressed_pairIPN6spdlog7details11C_formatterINS2_13scoped_padderEEENS_14default_deleteIS5_EEE6secondB8ue170006Ev, symObjAddr: 0x1A190, symBinAddr: 0x10001B110, symSize: 0x24 }
  - { offsetInCU: 0x7501D, offset: 0x7501D, size: 0x8, addend: 0x0, symName: __ZNSt3__122__compressed_pair_elemINS_14default_deleteIN6spdlog7details11C_formatterINS3_13scoped_padderEEEEELi1ELb1EE5__getB8ue170006Ev, symObjAddr: 0x1A1B4, symBinAddr: 0x10001B134, symSize: 0x14 }
  - { offsetInCU: 0x75043, offset: 0x75043, size: 0x8, addend: 0x0, symName: __ZNSt3__117__compressed_pairIPN6spdlog7details14flag_formatterENS_14default_deleteIS3_EEEC2B8ue170006IPNS2_11C_formatterINS2_13scoped_padderEEENS5_ISB_EEEEOT_OT0_, symObjAddr: 0x1A1C8, symBinAddr: 0x10001B148, symSize: 0x44 }
  - { offsetInCU: 0x7509B, offset: 0x7509B, size: 0x8, addend: 0x0, symName: __ZNSt3__122__compressed_pair_elemIPN6spdlog7details14flag_formatterELi0ELb0EEC2B8ue170006IPNS2_11C_formatterINS2_13scoped_padderEEEvEEOT_, symObjAddr: 0x1A20C, symBinAddr: 0x10001B18C, symSize: 0x24 }
  - { offsetInCU: 0x750DD, offset: 0x750DD, size: 0x8, addend: 0x0, symName: __ZNSt3__122__compressed_pair_elemINS_14default_deleteIN6spdlog7details14flag_formatterEEELi1ELb1EEC2B8ue170006INS1_INS3_11C_formatterINS3_13scoped_padderEEEEEvEEOT_, symObjAddr: 0x1A230, symBinAddr: 0x10001B1B0, symSize: 0x38 }
  - { offsetInCU: 0x7511F, offset: 0x7511F, size: 0x8, addend: 0x0, symName: __ZNSt3__114default_deleteIN6spdlog7details14flag_formatterEEC2B8ue170006INS2_11C_formatterINS2_13scoped_padderEEEEERKNS0_IT_EEPNS_9enable_ifIXsr14is_convertibleIPS9_PS3_EE5valueEvE4typeE, symObjAddr: 0x1A268, symBinAddr: 0x10001B1E8, symSize: 0x1C }
  - { offsetInCU: 0x75168, offset: 0x75168, size: 0x8, addend: 0x0, symName: __ZNSt3__110unique_ptrIN6spdlog7details11C_formatterINS2_13scoped_padderEEENS_14default_deleteIS5_EEED2B8ue170006Ev, symObjAddr: 0x1A284, symBinAddr: 0x10001B204, symSize: 0x30 }
  - { offsetInCU: 0x75192, offset: 0x75192, size: 0x8, addend: 0x0, symName: __ZNSt3__110unique_ptrIN6spdlog7details11C_formatterINS2_13scoped_padderEEENS_14default_deleteIS5_EEE5resetB8ue170006EPS5_, symObjAddr: 0x1A2B4, symBinAddr: 0x10001B234, symSize: 0x78 }
  - { offsetInCU: 0x751D6, offset: 0x751D6, size: 0x8, addend: 0x0, symName: __ZNKSt3__114default_deleteIN6spdlog7details11C_formatterINS2_13scoped_padderEEEEclB8ue170006EPS5_, symObjAddr: 0x1A32C, symBinAddr: 0x10001B2AC, symSize: 0x4C }
  - { offsetInCU: 0x7520A, offset: 0x7520A, size: 0x8, addend: 0x0, symName: __ZN6spdlog7details11Y_formatterINS0_13scoped_padderEEC1ENS0_12padding_infoE, symObjAddr: 0x1A378, symBinAddr: 0x10001B2F8, symSize: 0x3C }
  - { offsetInCU: 0x75243, offset: 0x75243, size: 0x8, addend: 0x0, symName: __ZNSt3__110unique_ptrIN6spdlog7details11Y_formatterINS2_13scoped_padderEEENS_14default_deleteIS5_EEEC1B8ue170006ILb1EvEEPS5_, symObjAddr: 0x1A3B4, symBinAddr: 0x10001B334, symSize: 0x34 }
  - { offsetInCU: 0x75286, offset: 0x75286, size: 0x8, addend: 0x0, symName: __ZN6spdlog7details11Y_formatterINS0_13scoped_padderEEC2ENS0_12padding_infoE, symObjAddr: 0x1A3E8, symBinAddr: 0x10001B368, symSize: 0x5C }
  - { offsetInCU: 0x752BF, offset: 0x752BF, size: 0x8, addend: 0x0, symName: __ZN6spdlog7details11Y_formatterINS0_13scoped_padderEED1Ev, symObjAddr: 0x1A444, symBinAddr: 0x10001B3C4, symSize: 0x2C }
  - { offsetInCU: 0x752EC, offset: 0x752EC, size: 0x8, addend: 0x0, symName: __ZN6spdlog7details11Y_formatterINS0_13scoped_padderEED0Ev, symObjAddr: 0x1A470, symBinAddr: 0x10001B3F0, symSize: 0x30 }
  - { offsetInCU: 0x75319, offset: 0x75319, size: 0x8, addend: 0x0, symName: __ZN6spdlog7details11Y_formatterINS0_13scoped_padderEE6formatERKNS0_7log_msgERK2tmRN3fmt3v1019basic_memory_bufferIcLm250ENSt3__19allocatorIcEEEE, symObjAddr: 0x1A4A0, symBinAddr: 0x10001B420, symSize: 0x84 }
  - { offsetInCU: 0x75387, offset: 0x75387, size: 0x8, addend: 0x0, symName: __ZN6spdlog7details11Y_formatterINS0_13scoped_padderEED2Ev, symObjAddr: 0x1A524, symBinAddr: 0x10001B4A4, symSize: 0x2C }
  - { offsetInCU: 0x753B4, offset: 0x753B4, size: 0x8, addend: 0x0, symName: __ZNSt3__110unique_ptrIN6spdlog7details11Y_formatterINS2_13scoped_padderEEENS_14default_deleteIS5_EEEC2B8ue170006ILb1EvEEPS5_, symObjAddr: 0x1A550, symBinAddr: 0x10001B4D0, symSize: 0x44 }
  - { offsetInCU: 0x753F7, offset: 0x753F7, size: 0x8, addend: 0x0, symName: __ZNSt3__117__compressed_pairIPN6spdlog7details11Y_formatterINS2_13scoped_padderEEENS_14default_deleteIS5_EEEC1B8ue170006IRS6_NS_16__value_init_tagEEEOT_OT0_, symObjAddr: 0x1A594, symBinAddr: 0x10001B514, symSize: 0x3C }
  - { offsetInCU: 0x7544F, offset: 0x7544F, size: 0x8, addend: 0x0, symName: __ZNSt3__117__compressed_pairIPN6spdlog7details11Y_formatterINS2_13scoped_padderEEENS_14default_deleteIS5_EEEC2B8ue170006IRS6_NS_16__value_init_tagEEEOT_OT0_, symObjAddr: 0x1A5D0, symBinAddr: 0x10001B550, symSize: 0x40 }
  - { offsetInCU: 0x754A7, offset: 0x754A7, size: 0x8, addend: 0x0, symName: __ZNSt3__122__compressed_pair_elemIPN6spdlog7details11Y_formatterINS2_13scoped_padderEEELi0ELb0EEC2B8ue170006IRS6_vEEOT_, symObjAddr: 0x1A610, symBinAddr: 0x10001B590, symSize: 0x24 }
  - { offsetInCU: 0x754E9, offset: 0x754E9, size: 0x8, addend: 0x0, symName: __ZNSt3__122__compressed_pair_elemINS_14default_deleteIN6spdlog7details11Y_formatterINS3_13scoped_padderEEEEELi1ELb1EEC2B8ue170006ENS_16__value_init_tagE, symObjAddr: 0x1A634, symBinAddr: 0x10001B5B4, symSize: 0x14 }
  - { offsetInCU: 0x7551E, offset: 0x7551E, size: 0x8, addend: 0x0, symName: __ZNSt3__110unique_ptrIN6spdlog7details14flag_formatterENS_14default_deleteIS3_EEEC2B8ue170006INS2_11Y_formatterINS2_13scoped_padderEEENS4_ISA_EEvvEEONS0_IT_T0_EE, symObjAddr: 0x1A648, symBinAddr: 0x10001B5C8, symSize: 0x60 }
  - { offsetInCU: 0x7556A, offset: 0x7556A, size: 0x8, addend: 0x0, symName: __ZNSt3__110unique_ptrIN6spdlog7details11Y_formatterINS2_13scoped_padderEEENS_14default_deleteIS5_EEE7releaseB8ue170006Ev, symObjAddr: 0x1A6A8, symBinAddr: 0x10001B628, symSize: 0x44 }
  - { offsetInCU: 0x7559F, offset: 0x7559F, size: 0x8, addend: 0x0, symName: __ZNSt3__110unique_ptrIN6spdlog7details11Y_formatterINS2_13scoped_padderEEENS_14default_deleteIS5_EEE11get_deleterB8ue170006Ev, symObjAddr: 0x1A6EC, symBinAddr: 0x10001B66C, symSize: 0x24 }
  - { offsetInCU: 0x755D1, offset: 0x755D1, size: 0x8, addend: 0x0, symName: __ZNSt3__117__compressed_pairIPN6spdlog7details14flag_formatterENS_14default_deleteIS3_EEEC1B8ue170006IPNS2_11Y_formatterINS2_13scoped_padderEEENS5_ISB_EEEEOT_OT0_, symObjAddr: 0x1A710, symBinAddr: 0x10001B690, symSize: 0x3C }
  - { offsetInCU: 0x75629, offset: 0x75629, size: 0x8, addend: 0x0, symName: __ZNSt3__117__compressed_pairIPN6spdlog7details11Y_formatterINS2_13scoped_padderEEENS_14default_deleteIS5_EEE5firstB8ue170006Ev, symObjAddr: 0x1A74C, symBinAddr: 0x10001B6CC, symSize: 0x24 }
  - { offsetInCU: 0x7564F, offset: 0x7564F, size: 0x8, addend: 0x0, symName: __ZNSt3__122__compressed_pair_elemIPN6spdlog7details11Y_formatterINS2_13scoped_padderEEELi0ELb0EE5__getB8ue170006Ev, symObjAddr: 0x1A770, symBinAddr: 0x10001B6F0, symSize: 0x14 }
  - { offsetInCU: 0x75675, offset: 0x75675, size: 0x8, addend: 0x0, symName: __ZNSt3__117__compressed_pairIPN6spdlog7details11Y_formatterINS2_13scoped_padderEEENS_14default_deleteIS5_EEE6secondB8ue170006Ev, symObjAddr: 0x1A784, symBinAddr: 0x10001B704, symSize: 0x24 }
  - { offsetInCU: 0x7569B, offset: 0x7569B, size: 0x8, addend: 0x0, symName: __ZNSt3__122__compressed_pair_elemINS_14default_deleteIN6spdlog7details11Y_formatterINS3_13scoped_padderEEEEELi1ELb1EE5__getB8ue170006Ev, symObjAddr: 0x1A7A8, symBinAddr: 0x10001B728, symSize: 0x14 }
  - { offsetInCU: 0x756C1, offset: 0x756C1, size: 0x8, addend: 0x0, symName: __ZNSt3__117__compressed_pairIPN6spdlog7details14flag_formatterENS_14default_deleteIS3_EEEC2B8ue170006IPNS2_11Y_formatterINS2_13scoped_padderEEENS5_ISB_EEEEOT_OT0_, symObjAddr: 0x1A7BC, symBinAddr: 0x10001B73C, symSize: 0x44 }
  - { offsetInCU: 0x75719, offset: 0x75719, size: 0x8, addend: 0x0, symName: __ZNSt3__122__compressed_pair_elemIPN6spdlog7details14flag_formatterELi0ELb0EEC2B8ue170006IPNS2_11Y_formatterINS2_13scoped_padderEEEvEEOT_, symObjAddr: 0x1A800, symBinAddr: 0x10001B780, symSize: 0x24 }
  - { offsetInCU: 0x7575B, offset: 0x7575B, size: 0x8, addend: 0x0, symName: __ZNSt3__122__compressed_pair_elemINS_14default_deleteIN6spdlog7details14flag_formatterEEELi1ELb1EEC2B8ue170006INS1_INS3_11Y_formatterINS3_13scoped_padderEEEEEvEEOT_, symObjAddr: 0x1A824, symBinAddr: 0x10001B7A4, symSize: 0x38 }
  - { offsetInCU: 0x7579D, offset: 0x7579D, size: 0x8, addend: 0x0, symName: __ZNSt3__114default_deleteIN6spdlog7details14flag_formatterEEC2B8ue170006INS2_11Y_formatterINS2_13scoped_padderEEEEERKNS0_IT_EEPNS_9enable_ifIXsr14is_convertibleIPS9_PS3_EE5valueEvE4typeE, symObjAddr: 0x1A85C, symBinAddr: 0x10001B7DC, symSize: 0x1C }
  - { offsetInCU: 0x757E6, offset: 0x757E6, size: 0x8, addend: 0x0, symName: __ZNSt3__110unique_ptrIN6spdlog7details11Y_formatterINS2_13scoped_padderEEENS_14default_deleteIS5_EEED2B8ue170006Ev, symObjAddr: 0x1A878, symBinAddr: 0x10001B7F8, symSize: 0x30 }
  - { offsetInCU: 0x75810, offset: 0x75810, size: 0x8, addend: 0x0, symName: __ZNSt3__110unique_ptrIN6spdlog7details11Y_formatterINS2_13scoped_padderEEENS_14default_deleteIS5_EEE5resetB8ue170006EPS5_, symObjAddr: 0x1A8A8, symBinAddr: 0x10001B828, symSize: 0x78 }
  - { offsetInCU: 0x75854, offset: 0x75854, size: 0x8, addend: 0x0, symName: __ZNKSt3__114default_deleteIN6spdlog7details11Y_formatterINS2_13scoped_padderEEEEclB8ue170006EPS5_, symObjAddr: 0x1A920, symBinAddr: 0x10001B8A0, symSize: 0x4C }
  - { offsetInCU: 0x75888, offset: 0x75888, size: 0x8, addend: 0x0, symName: __ZN6spdlog7details11D_formatterINS0_13scoped_padderEEC1ENS0_12padding_infoE, symObjAddr: 0x1A96C, symBinAddr: 0x10001B8EC, symSize: 0x3C }
  - { offsetInCU: 0x758C1, offset: 0x758C1, size: 0x8, addend: 0x0, symName: __ZNSt3__110unique_ptrIN6spdlog7details11D_formatterINS2_13scoped_padderEEENS_14default_deleteIS5_EEEC1B8ue170006ILb1EvEEPS5_, symObjAddr: 0x1A9A8, symBinAddr: 0x10001B928, symSize: 0x34 }
  - { offsetInCU: 0x75904, offset: 0x75904, size: 0x8, addend: 0x0, symName: __ZN6spdlog7details11D_formatterINS0_13scoped_padderEEC2ENS0_12padding_infoE, symObjAddr: 0x1A9DC, symBinAddr: 0x10001B95C, symSize: 0x5C }
  - { offsetInCU: 0x7593D, offset: 0x7593D, size: 0x8, addend: 0x0, symName: __ZN6spdlog7details11D_formatterINS0_13scoped_padderEED1Ev, symObjAddr: 0x1AA38, symBinAddr: 0x10001B9B8, symSize: 0x2C }
  - { offsetInCU: 0x7596A, offset: 0x7596A, size: 0x8, addend: 0x0, symName: __ZN6spdlog7details11D_formatterINS0_13scoped_padderEED0Ev, symObjAddr: 0x1AA64, symBinAddr: 0x10001B9E4, symSize: 0x30 }
  - { offsetInCU: 0x75997, offset: 0x75997, size: 0x8, addend: 0x0, symName: __ZN6spdlog7details11D_formatterINS0_13scoped_padderEE6formatERKNS0_7log_msgERK2tmRN3fmt3v1019basic_memory_bufferIcLm250ENSt3__19allocatorIcEEEE, symObjAddr: 0x1AA94, symBinAddr: 0x10001BA14, symSize: 0xEC }
  - { offsetInCU: 0x75A05, offset: 0x75A05, size: 0x8, addend: 0x0, symName: __ZN6spdlog7details11D_formatterINS0_13scoped_padderEED2Ev, symObjAddr: 0x1AB80, symBinAddr: 0x10001BB00, symSize: 0x2C }
  - { offsetInCU: 0x75A32, offset: 0x75A32, size: 0x8, addend: 0x0, symName: __ZNSt3__110unique_ptrIN6spdlog7details11D_formatterINS2_13scoped_padderEEENS_14default_deleteIS5_EEEC2B8ue170006ILb1EvEEPS5_, symObjAddr: 0x1ABAC, symBinAddr: 0x10001BB2C, symSize: 0x44 }
  - { offsetInCU: 0x75A75, offset: 0x75A75, size: 0x8, addend: 0x0, symName: __ZNSt3__117__compressed_pairIPN6spdlog7details11D_formatterINS2_13scoped_padderEEENS_14default_deleteIS5_EEEC1B8ue170006IRS6_NS_16__value_init_tagEEEOT_OT0_, symObjAddr: 0x1ABF0, symBinAddr: 0x10001BB70, symSize: 0x3C }
  - { offsetInCU: 0x75ACD, offset: 0x75ACD, size: 0x8, addend: 0x0, symName: __ZNSt3__117__compressed_pairIPN6spdlog7details11D_formatterINS2_13scoped_padderEEENS_14default_deleteIS5_EEEC2B8ue170006IRS6_NS_16__value_init_tagEEEOT_OT0_, symObjAddr: 0x1AC2C, symBinAddr: 0x10001BBAC, symSize: 0x40 }
  - { offsetInCU: 0x75B25, offset: 0x75B25, size: 0x8, addend: 0x0, symName: __ZNSt3__122__compressed_pair_elemIPN6spdlog7details11D_formatterINS2_13scoped_padderEEELi0ELb0EEC2B8ue170006IRS6_vEEOT_, symObjAddr: 0x1AC6C, symBinAddr: 0x10001BBEC, symSize: 0x24 }
  - { offsetInCU: 0x75B67, offset: 0x75B67, size: 0x8, addend: 0x0, symName: __ZNSt3__122__compressed_pair_elemINS_14default_deleteIN6spdlog7details11D_formatterINS3_13scoped_padderEEEEELi1ELb1EEC2B8ue170006ENS_16__value_init_tagE, symObjAddr: 0x1AC90, symBinAddr: 0x10001BC10, symSize: 0x14 }
  - { offsetInCU: 0x75B9C, offset: 0x75B9C, size: 0x8, addend: 0x0, symName: __ZNSt3__110unique_ptrIN6spdlog7details14flag_formatterENS_14default_deleteIS3_EEEC2B8ue170006INS2_11D_formatterINS2_13scoped_padderEEENS4_ISA_EEvvEEONS0_IT_T0_EE, symObjAddr: 0x1ACA4, symBinAddr: 0x10001BC24, symSize: 0x60 }
  - { offsetInCU: 0x75BE8, offset: 0x75BE8, size: 0x8, addend: 0x0, symName: __ZNSt3__110unique_ptrIN6spdlog7details11D_formatterINS2_13scoped_padderEEENS_14default_deleteIS5_EEE7releaseB8ue170006Ev, symObjAddr: 0x1AD04, symBinAddr: 0x10001BC84, symSize: 0x44 }
  - { offsetInCU: 0x75C1D, offset: 0x75C1D, size: 0x8, addend: 0x0, symName: __ZNSt3__110unique_ptrIN6spdlog7details11D_formatterINS2_13scoped_padderEEENS_14default_deleteIS5_EEE11get_deleterB8ue170006Ev, symObjAddr: 0x1AD48, symBinAddr: 0x10001BCC8, symSize: 0x24 }
  - { offsetInCU: 0x75C4F, offset: 0x75C4F, size: 0x8, addend: 0x0, symName: __ZNSt3__117__compressed_pairIPN6spdlog7details14flag_formatterENS_14default_deleteIS3_EEEC1B8ue170006IPNS2_11D_formatterINS2_13scoped_padderEEENS5_ISB_EEEEOT_OT0_, symObjAddr: 0x1AD6C, symBinAddr: 0x10001BCEC, symSize: 0x3C }
  - { offsetInCU: 0x75CA7, offset: 0x75CA7, size: 0x8, addend: 0x0, symName: __ZNSt3__117__compressed_pairIPN6spdlog7details11D_formatterINS2_13scoped_padderEEENS_14default_deleteIS5_EEE5firstB8ue170006Ev, symObjAddr: 0x1ADA8, symBinAddr: 0x10001BD28, symSize: 0x24 }
  - { offsetInCU: 0x75CCD, offset: 0x75CCD, size: 0x8, addend: 0x0, symName: __ZNSt3__122__compressed_pair_elemIPN6spdlog7details11D_formatterINS2_13scoped_padderEEELi0ELb0EE5__getB8ue170006Ev, symObjAddr: 0x1ADCC, symBinAddr: 0x10001BD4C, symSize: 0x14 }
  - { offsetInCU: 0x75CF3, offset: 0x75CF3, size: 0x8, addend: 0x0, symName: __ZNSt3__117__compressed_pairIPN6spdlog7details11D_formatterINS2_13scoped_padderEEENS_14default_deleteIS5_EEE6secondB8ue170006Ev, symObjAddr: 0x1ADE0, symBinAddr: 0x10001BD60, symSize: 0x24 }
  - { offsetInCU: 0x75D19, offset: 0x75D19, size: 0x8, addend: 0x0, symName: __ZNSt3__122__compressed_pair_elemINS_14default_deleteIN6spdlog7details11D_formatterINS3_13scoped_padderEEEEELi1ELb1EE5__getB8ue170006Ev, symObjAddr: 0x1AE04, symBinAddr: 0x10001BD84, symSize: 0x14 }
  - { offsetInCU: 0x75D3F, offset: 0x75D3F, size: 0x8, addend: 0x0, symName: __ZNSt3__117__compressed_pairIPN6spdlog7details14flag_formatterENS_14default_deleteIS3_EEEC2B8ue170006IPNS2_11D_formatterINS2_13scoped_padderEEENS5_ISB_EEEEOT_OT0_, symObjAddr: 0x1AE18, symBinAddr: 0x10001BD98, symSize: 0x44 }
  - { offsetInCU: 0x75D97, offset: 0x75D97, size: 0x8, addend: 0x0, symName: __ZNSt3__122__compressed_pair_elemIPN6spdlog7details14flag_formatterELi0ELb0EEC2B8ue170006IPNS2_11D_formatterINS2_13scoped_padderEEEvEEOT_, symObjAddr: 0x1AE5C, symBinAddr: 0x10001BDDC, symSize: 0x24 }
  - { offsetInCU: 0x75DD9, offset: 0x75DD9, size: 0x8, addend: 0x0, symName: __ZNSt3__122__compressed_pair_elemINS_14default_deleteIN6spdlog7details14flag_formatterEEELi1ELb1EEC2B8ue170006INS1_INS3_11D_formatterINS3_13scoped_padderEEEEEvEEOT_, symObjAddr: 0x1AE80, symBinAddr: 0x10001BE00, symSize: 0x38 }
  - { offsetInCU: 0x75E1B, offset: 0x75E1B, size: 0x8, addend: 0x0, symName: __ZNSt3__114default_deleteIN6spdlog7details14flag_formatterEEC2B8ue170006INS2_11D_formatterINS2_13scoped_padderEEEEERKNS0_IT_EEPNS_9enable_ifIXsr14is_convertibleIPS9_PS3_EE5valueEvE4typeE, symObjAddr: 0x1AEB8, symBinAddr: 0x10001BE38, symSize: 0x1C }
  - { offsetInCU: 0x75E64, offset: 0x75E64, size: 0x8, addend: 0x0, symName: __ZNSt3__110unique_ptrIN6spdlog7details11D_formatterINS2_13scoped_padderEEENS_14default_deleteIS5_EEED2B8ue170006Ev, symObjAddr: 0x1AED4, symBinAddr: 0x10001BE54, symSize: 0x30 }
  - { offsetInCU: 0x75E8E, offset: 0x75E8E, size: 0x8, addend: 0x0, symName: __ZNSt3__110unique_ptrIN6spdlog7details11D_formatterINS2_13scoped_padderEEENS_14default_deleteIS5_EEE5resetB8ue170006EPS5_, symObjAddr: 0x1AF04, symBinAddr: 0x10001BE84, symSize: 0x78 }
  - { offsetInCU: 0x75ED2, offset: 0x75ED2, size: 0x8, addend: 0x0, symName: __ZNKSt3__114default_deleteIN6spdlog7details11D_formatterINS2_13scoped_padderEEEEclB8ue170006EPS5_, symObjAddr: 0x1AF7C, symBinAddr: 0x10001BEFC, symSize: 0x4C }
  - { offsetInCU: 0x75F06, offset: 0x75F06, size: 0x8, addend: 0x0, symName: __ZN6spdlog7details11m_formatterINS0_13scoped_padderEEC1ENS0_12padding_infoE, symObjAddr: 0x1AFC8, symBinAddr: 0x10001BF48, symSize: 0x3C }
  - { offsetInCU: 0x75F3F, offset: 0x75F3F, size: 0x8, addend: 0x0, symName: __ZNSt3__110unique_ptrIN6spdlog7details11m_formatterINS2_13scoped_padderEEENS_14default_deleteIS5_EEEC1B8ue170006ILb1EvEEPS5_, symObjAddr: 0x1B004, symBinAddr: 0x10001BF84, symSize: 0x34 }
  - { offsetInCU: 0x75F82, offset: 0x75F82, size: 0x8, addend: 0x0, symName: __ZN6spdlog7details11m_formatterINS0_13scoped_padderEEC2ENS0_12padding_infoE, symObjAddr: 0x1B038, symBinAddr: 0x10001BFB8, symSize: 0x5C }
  - { offsetInCU: 0x75FBB, offset: 0x75FBB, size: 0x8, addend: 0x0, symName: __ZN6spdlog7details11m_formatterINS0_13scoped_padderEED1Ev, symObjAddr: 0x1B094, symBinAddr: 0x10001C014, symSize: 0x2C }
  - { offsetInCU: 0x75FE8, offset: 0x75FE8, size: 0x8, addend: 0x0, symName: __ZN6spdlog7details11m_formatterINS0_13scoped_padderEED0Ev, symObjAddr: 0x1B0C0, symBinAddr: 0x10001C040, symSize: 0x30 }
  - { offsetInCU: 0x76015, offset: 0x76015, size: 0x8, addend: 0x0, symName: __ZN6spdlog7details11m_formatterINS0_13scoped_padderEE6formatERKNS0_7log_msgERK2tmRN3fmt3v1019basic_memory_bufferIcLm250ENSt3__19allocatorIcEEEE, symObjAddr: 0x1B0F0, symBinAddr: 0x10001C070, symSize: 0x84 }
  - { offsetInCU: 0x76083, offset: 0x76083, size: 0x8, addend: 0x0, symName: __ZN6spdlog7details11m_formatterINS0_13scoped_padderEED2Ev, symObjAddr: 0x1B174, symBinAddr: 0x10001C0F4, symSize: 0x2C }
  - { offsetInCU: 0x760B0, offset: 0x760B0, size: 0x8, addend: 0x0, symName: __ZNSt3__110unique_ptrIN6spdlog7details11m_formatterINS2_13scoped_padderEEENS_14default_deleteIS5_EEEC2B8ue170006ILb1EvEEPS5_, symObjAddr: 0x1B1A0, symBinAddr: 0x10001C120, symSize: 0x44 }
  - { offsetInCU: 0x760F3, offset: 0x760F3, size: 0x8, addend: 0x0, symName: __ZNSt3__117__compressed_pairIPN6spdlog7details11m_formatterINS2_13scoped_padderEEENS_14default_deleteIS5_EEEC1B8ue170006IRS6_NS_16__value_init_tagEEEOT_OT0_, symObjAddr: 0x1B1E4, symBinAddr: 0x10001C164, symSize: 0x3C }
  - { offsetInCU: 0x7614B, offset: 0x7614B, size: 0x8, addend: 0x0, symName: __ZNSt3__117__compressed_pairIPN6spdlog7details11m_formatterINS2_13scoped_padderEEENS_14default_deleteIS5_EEEC2B8ue170006IRS6_NS_16__value_init_tagEEEOT_OT0_, symObjAddr: 0x1B220, symBinAddr: 0x10001C1A0, symSize: 0x40 }
  - { offsetInCU: 0x761A3, offset: 0x761A3, size: 0x8, addend: 0x0, symName: __ZNSt3__122__compressed_pair_elemIPN6spdlog7details11m_formatterINS2_13scoped_padderEEELi0ELb0EEC2B8ue170006IRS6_vEEOT_, symObjAddr: 0x1B260, symBinAddr: 0x10001C1E0, symSize: 0x24 }
  - { offsetInCU: 0x761E5, offset: 0x761E5, size: 0x8, addend: 0x0, symName: __ZNSt3__122__compressed_pair_elemINS_14default_deleteIN6spdlog7details11m_formatterINS3_13scoped_padderEEEEELi1ELb1EEC2B8ue170006ENS_16__value_init_tagE, symObjAddr: 0x1B284, symBinAddr: 0x10001C204, symSize: 0x14 }
  - { offsetInCU: 0x7621A, offset: 0x7621A, size: 0x8, addend: 0x0, symName: __ZNSt3__110unique_ptrIN6spdlog7details14flag_formatterENS_14default_deleteIS3_EEEC2B8ue170006INS2_11m_formatterINS2_13scoped_padderEEENS4_ISA_EEvvEEONS0_IT_T0_EE, symObjAddr: 0x1B298, symBinAddr: 0x10001C218, symSize: 0x60 }
  - { offsetInCU: 0x76266, offset: 0x76266, size: 0x8, addend: 0x0, symName: __ZNSt3__110unique_ptrIN6spdlog7details11m_formatterINS2_13scoped_padderEEENS_14default_deleteIS5_EEE7releaseB8ue170006Ev, symObjAddr: 0x1B2F8, symBinAddr: 0x10001C278, symSize: 0x44 }
  - { offsetInCU: 0x7629B, offset: 0x7629B, size: 0x8, addend: 0x0, symName: __ZNSt3__110unique_ptrIN6spdlog7details11m_formatterINS2_13scoped_padderEEENS_14default_deleteIS5_EEE11get_deleterB8ue170006Ev, symObjAddr: 0x1B33C, symBinAddr: 0x10001C2BC, symSize: 0x24 }
  - { offsetInCU: 0x762CD, offset: 0x762CD, size: 0x8, addend: 0x0, symName: __ZNSt3__117__compressed_pairIPN6spdlog7details14flag_formatterENS_14default_deleteIS3_EEEC1B8ue170006IPNS2_11m_formatterINS2_13scoped_padderEEENS5_ISB_EEEEOT_OT0_, symObjAddr: 0x1B360, symBinAddr: 0x10001C2E0, symSize: 0x3C }
  - { offsetInCU: 0x76325, offset: 0x76325, size: 0x8, addend: 0x0, symName: __ZNSt3__117__compressed_pairIPN6spdlog7details11m_formatterINS2_13scoped_padderEEENS_14default_deleteIS5_EEE5firstB8ue170006Ev, symObjAddr: 0x1B39C, symBinAddr: 0x10001C31C, symSize: 0x24 }
  - { offsetInCU: 0x7634B, offset: 0x7634B, size: 0x8, addend: 0x0, symName: __ZNSt3__122__compressed_pair_elemIPN6spdlog7details11m_formatterINS2_13scoped_padderEEELi0ELb0EE5__getB8ue170006Ev, symObjAddr: 0x1B3C0, symBinAddr: 0x10001C340, symSize: 0x14 }
  - { offsetInCU: 0x76371, offset: 0x76371, size: 0x8, addend: 0x0, symName: __ZNSt3__117__compressed_pairIPN6spdlog7details11m_formatterINS2_13scoped_padderEEENS_14default_deleteIS5_EEE6secondB8ue170006Ev, symObjAddr: 0x1B3D4, symBinAddr: 0x10001C354, symSize: 0x24 }
  - { offsetInCU: 0x76397, offset: 0x76397, size: 0x8, addend: 0x0, symName: __ZNSt3__122__compressed_pair_elemINS_14default_deleteIN6spdlog7details11m_formatterINS3_13scoped_padderEEEEELi1ELb1EE5__getB8ue170006Ev, symObjAddr: 0x1B3F8, symBinAddr: 0x10001C378, symSize: 0x14 }
  - { offsetInCU: 0x763BD, offset: 0x763BD, size: 0x8, addend: 0x0, symName: __ZNSt3__117__compressed_pairIPN6spdlog7details14flag_formatterENS_14default_deleteIS3_EEEC2B8ue170006IPNS2_11m_formatterINS2_13scoped_padderEEENS5_ISB_EEEEOT_OT0_, symObjAddr: 0x1B40C, symBinAddr: 0x10001C38C, symSize: 0x44 }
  - { offsetInCU: 0x76415, offset: 0x76415, size: 0x8, addend: 0x0, symName: __ZNSt3__122__compressed_pair_elemIPN6spdlog7details14flag_formatterELi0ELb0EEC2B8ue170006IPNS2_11m_formatterINS2_13scoped_padderEEEvEEOT_, symObjAddr: 0x1B450, symBinAddr: 0x10001C3D0, symSize: 0x24 }
  - { offsetInCU: 0x76457, offset: 0x76457, size: 0x8, addend: 0x0, symName: __ZNSt3__122__compressed_pair_elemINS_14default_deleteIN6spdlog7details14flag_formatterEEELi1ELb1EEC2B8ue170006INS1_INS3_11m_formatterINS3_13scoped_padderEEEEEvEEOT_, symObjAddr: 0x1B474, symBinAddr: 0x10001C3F4, symSize: 0x38 }
  - { offsetInCU: 0x76499, offset: 0x76499, size: 0x8, addend: 0x0, symName: __ZNSt3__114default_deleteIN6spdlog7details14flag_formatterEEC2B8ue170006INS2_11m_formatterINS2_13scoped_padderEEEEERKNS0_IT_EEPNS_9enable_ifIXsr14is_convertibleIPS9_PS3_EE5valueEvE4typeE, symObjAddr: 0x1B4AC, symBinAddr: 0x10001C42C, symSize: 0x1C }
  - { offsetInCU: 0x764E2, offset: 0x764E2, size: 0x8, addend: 0x0, symName: __ZNSt3__110unique_ptrIN6spdlog7details11m_formatterINS2_13scoped_padderEEENS_14default_deleteIS5_EEED2B8ue170006Ev, symObjAddr: 0x1B4C8, symBinAddr: 0x10001C448, symSize: 0x30 }
  - { offsetInCU: 0x7650C, offset: 0x7650C, size: 0x8, addend: 0x0, symName: __ZNSt3__110unique_ptrIN6spdlog7details11m_formatterINS2_13scoped_padderEEENS_14default_deleteIS5_EEE5resetB8ue170006EPS5_, symObjAddr: 0x1B4F8, symBinAddr: 0x10001C478, symSize: 0x78 }
  - { offsetInCU: 0x76550, offset: 0x76550, size: 0x8, addend: 0x0, symName: __ZNKSt3__114default_deleteIN6spdlog7details11m_formatterINS2_13scoped_padderEEEEclB8ue170006EPS5_, symObjAddr: 0x1B570, symBinAddr: 0x10001C4F0, symSize: 0x4C }
  - { offsetInCU: 0x76584, offset: 0x76584, size: 0x8, addend: 0x0, symName: __ZN6spdlog7details11d_formatterINS0_13scoped_padderEEC1ENS0_12padding_infoE, symObjAddr: 0x1B5BC, symBinAddr: 0x10001C53C, symSize: 0x3C }
  - { offsetInCU: 0x765BD, offset: 0x765BD, size: 0x8, addend: 0x0, symName: __ZNSt3__110unique_ptrIN6spdlog7details11d_formatterINS2_13scoped_padderEEENS_14default_deleteIS5_EEEC1B8ue170006ILb1EvEEPS5_, symObjAddr: 0x1B5F8, symBinAddr: 0x10001C578, symSize: 0x34 }
  - { offsetInCU: 0x76600, offset: 0x76600, size: 0x8, addend: 0x0, symName: __ZN6spdlog7details11d_formatterINS0_13scoped_padderEEC2ENS0_12padding_infoE, symObjAddr: 0x1B62C, symBinAddr: 0x10001C5AC, symSize: 0x5C }
  - { offsetInCU: 0x76639, offset: 0x76639, size: 0x8, addend: 0x0, symName: __ZN6spdlog7details11d_formatterINS0_13scoped_padderEED1Ev, symObjAddr: 0x1B688, symBinAddr: 0x10001C608, symSize: 0x2C }
  - { offsetInCU: 0x76666, offset: 0x76666, size: 0x8, addend: 0x0, symName: __ZN6spdlog7details11d_formatterINS0_13scoped_padderEED0Ev, symObjAddr: 0x1B6B4, symBinAddr: 0x10001C634, symSize: 0x30 }
  - { offsetInCU: 0x76693, offset: 0x76693, size: 0x8, addend: 0x0, symName: __ZN6spdlog7details11d_formatterINS0_13scoped_padderEE6formatERKNS0_7log_msgERK2tmRN3fmt3v1019basic_memory_bufferIcLm250ENSt3__19allocatorIcEEEE, symObjAddr: 0x1B6E4, symBinAddr: 0x10001C664, symSize: 0x80 }
  - { offsetInCU: 0x76701, offset: 0x76701, size: 0x8, addend: 0x0, symName: __ZN6spdlog7details11d_formatterINS0_13scoped_padderEED2Ev, symObjAddr: 0x1B764, symBinAddr: 0x10001C6E4, symSize: 0x2C }
  - { offsetInCU: 0x7672E, offset: 0x7672E, size: 0x8, addend: 0x0, symName: __ZNSt3__110unique_ptrIN6spdlog7details11d_formatterINS2_13scoped_padderEEENS_14default_deleteIS5_EEEC2B8ue170006ILb1EvEEPS5_, symObjAddr: 0x1B790, symBinAddr: 0x10001C710, symSize: 0x44 }
  - { offsetInCU: 0x76771, offset: 0x76771, size: 0x8, addend: 0x0, symName: __ZNSt3__117__compressed_pairIPN6spdlog7details11d_formatterINS2_13scoped_padderEEENS_14default_deleteIS5_EEEC1B8ue170006IRS6_NS_16__value_init_tagEEEOT_OT0_, symObjAddr: 0x1B7D4, symBinAddr: 0x10001C754, symSize: 0x3C }
  - { offsetInCU: 0x767C9, offset: 0x767C9, size: 0x8, addend: 0x0, symName: __ZNSt3__117__compressed_pairIPN6spdlog7details11d_formatterINS2_13scoped_padderEEENS_14default_deleteIS5_EEEC2B8ue170006IRS6_NS_16__value_init_tagEEEOT_OT0_, symObjAddr: 0x1B810, symBinAddr: 0x10001C790, symSize: 0x40 }
  - { offsetInCU: 0x76821, offset: 0x76821, size: 0x8, addend: 0x0, symName: __ZNSt3__122__compressed_pair_elemIPN6spdlog7details11d_formatterINS2_13scoped_padderEEELi0ELb0EEC2B8ue170006IRS6_vEEOT_, symObjAddr: 0x1B850, symBinAddr: 0x10001C7D0, symSize: 0x24 }
  - { offsetInCU: 0x76863, offset: 0x76863, size: 0x8, addend: 0x0, symName: __ZNSt3__122__compressed_pair_elemINS_14default_deleteIN6spdlog7details11d_formatterINS3_13scoped_padderEEEEELi1ELb1EEC2B8ue170006ENS_16__value_init_tagE, symObjAddr: 0x1B874, symBinAddr: 0x10001C7F4, symSize: 0x14 }
  - { offsetInCU: 0x76898, offset: 0x76898, size: 0x8, addend: 0x0, symName: __ZNSt3__110unique_ptrIN6spdlog7details14flag_formatterENS_14default_deleteIS3_EEEC2B8ue170006INS2_11d_formatterINS2_13scoped_padderEEENS4_ISA_EEvvEEONS0_IT_T0_EE, symObjAddr: 0x1B888, symBinAddr: 0x10001C808, symSize: 0x60 }
  - { offsetInCU: 0x768E4, offset: 0x768E4, size: 0x8, addend: 0x0, symName: __ZNSt3__110unique_ptrIN6spdlog7details11d_formatterINS2_13scoped_padderEEENS_14default_deleteIS5_EEE7releaseB8ue170006Ev, symObjAddr: 0x1B8E8, symBinAddr: 0x10001C868, symSize: 0x44 }
  - { offsetInCU: 0x76919, offset: 0x76919, size: 0x8, addend: 0x0, symName: __ZNSt3__110unique_ptrIN6spdlog7details11d_formatterINS2_13scoped_padderEEENS_14default_deleteIS5_EEE11get_deleterB8ue170006Ev, symObjAddr: 0x1B92C, symBinAddr: 0x10001C8AC, symSize: 0x24 }
  - { offsetInCU: 0x7694B, offset: 0x7694B, size: 0x8, addend: 0x0, symName: __ZNSt3__117__compressed_pairIPN6spdlog7details14flag_formatterENS_14default_deleteIS3_EEEC1B8ue170006IPNS2_11d_formatterINS2_13scoped_padderEEENS5_ISB_EEEEOT_OT0_, symObjAddr: 0x1B950, symBinAddr: 0x10001C8D0, symSize: 0x3C }
  - { offsetInCU: 0x769A3, offset: 0x769A3, size: 0x8, addend: 0x0, symName: __ZNSt3__117__compressed_pairIPN6spdlog7details11d_formatterINS2_13scoped_padderEEENS_14default_deleteIS5_EEE5firstB8ue170006Ev, symObjAddr: 0x1B98C, symBinAddr: 0x10001C90C, symSize: 0x24 }
  - { offsetInCU: 0x769C9, offset: 0x769C9, size: 0x8, addend: 0x0, symName: __ZNSt3__122__compressed_pair_elemIPN6spdlog7details11d_formatterINS2_13scoped_padderEEELi0ELb0EE5__getB8ue170006Ev, symObjAddr: 0x1B9B0, symBinAddr: 0x10001C930, symSize: 0x14 }
  - { offsetInCU: 0x769EF, offset: 0x769EF, size: 0x8, addend: 0x0, symName: __ZNSt3__117__compressed_pairIPN6spdlog7details11d_formatterINS2_13scoped_padderEEENS_14default_deleteIS5_EEE6secondB8ue170006Ev, symObjAddr: 0x1B9C4, symBinAddr: 0x10001C944, symSize: 0x24 }
  - { offsetInCU: 0x76A15, offset: 0x76A15, size: 0x8, addend: 0x0, symName: __ZNSt3__122__compressed_pair_elemINS_14default_deleteIN6spdlog7details11d_formatterINS3_13scoped_padderEEEEELi1ELb1EE5__getB8ue170006Ev, symObjAddr: 0x1B9E8, symBinAddr: 0x10001C968, symSize: 0x14 }
  - { offsetInCU: 0x76A3B, offset: 0x76A3B, size: 0x8, addend: 0x0, symName: __ZNSt3__117__compressed_pairIPN6spdlog7details14flag_formatterENS_14default_deleteIS3_EEEC2B8ue170006IPNS2_11d_formatterINS2_13scoped_padderEEENS5_ISB_EEEEOT_OT0_, symObjAddr: 0x1B9FC, symBinAddr: 0x10001C97C, symSize: 0x44 }
  - { offsetInCU: 0x76A93, offset: 0x76A93, size: 0x8, addend: 0x0, symName: __ZNSt3__122__compressed_pair_elemIPN6spdlog7details14flag_formatterELi0ELb0EEC2B8ue170006IPNS2_11d_formatterINS2_13scoped_padderEEEvEEOT_, symObjAddr: 0x1BA40, symBinAddr: 0x10001C9C0, symSize: 0x24 }
  - { offsetInCU: 0x76AD5, offset: 0x76AD5, size: 0x8, addend: 0x0, symName: __ZNSt3__122__compressed_pair_elemINS_14default_deleteIN6spdlog7details14flag_formatterEEELi1ELb1EEC2B8ue170006INS1_INS3_11d_formatterINS3_13scoped_padderEEEEEvEEOT_, symObjAddr: 0x1BA64, symBinAddr: 0x10001C9E4, symSize: 0x38 }
  - { offsetInCU: 0x76B17, offset: 0x76B17, size: 0x8, addend: 0x0, symName: __ZNSt3__114default_deleteIN6spdlog7details14flag_formatterEEC2B8ue170006INS2_11d_formatterINS2_13scoped_padderEEEEERKNS0_IT_EEPNS_9enable_ifIXsr14is_convertibleIPS9_PS3_EE5valueEvE4typeE, symObjAddr: 0x1BA9C, symBinAddr: 0x10001CA1C, symSize: 0x1C }
  - { offsetInCU: 0x76B60, offset: 0x76B60, size: 0x8, addend: 0x0, symName: __ZNSt3__110unique_ptrIN6spdlog7details11d_formatterINS2_13scoped_padderEEENS_14default_deleteIS5_EEED2B8ue170006Ev, symObjAddr: 0x1BAB8, symBinAddr: 0x10001CA38, symSize: 0x30 }
  - { offsetInCU: 0x76B8A, offset: 0x76B8A, size: 0x8, addend: 0x0, symName: __ZNSt3__110unique_ptrIN6spdlog7details11d_formatterINS2_13scoped_padderEEENS_14default_deleteIS5_EEE5resetB8ue170006EPS5_, symObjAddr: 0x1BAE8, symBinAddr: 0x10001CA68, symSize: 0x78 }
  - { offsetInCU: 0x76BCE, offset: 0x76BCE, size: 0x8, addend: 0x0, symName: __ZNKSt3__114default_deleteIN6spdlog7details11d_formatterINS2_13scoped_padderEEEEclB8ue170006EPS5_, symObjAddr: 0x1BB60, symBinAddr: 0x10001CAE0, symSize: 0x4C }
  - { offsetInCU: 0x76C02, offset: 0x76C02, size: 0x8, addend: 0x0, symName: __ZN6spdlog7details11H_formatterINS0_13scoped_padderEEC1ENS0_12padding_infoE, symObjAddr: 0x1BBAC, symBinAddr: 0x10001CB2C, symSize: 0x3C }
  - { offsetInCU: 0x76C3B, offset: 0x76C3B, size: 0x8, addend: 0x0, symName: __ZNSt3__110unique_ptrIN6spdlog7details11H_formatterINS2_13scoped_padderEEENS_14default_deleteIS5_EEEC1B8ue170006ILb1EvEEPS5_, symObjAddr: 0x1BBE8, symBinAddr: 0x10001CB68, symSize: 0x34 }
  - { offsetInCU: 0x76C7E, offset: 0x76C7E, size: 0x8, addend: 0x0, symName: __ZN6spdlog7details11H_formatterINS0_13scoped_padderEEC2ENS0_12padding_infoE, symObjAddr: 0x1BC1C, symBinAddr: 0x10001CB9C, symSize: 0x5C }
  - { offsetInCU: 0x76CB7, offset: 0x76CB7, size: 0x8, addend: 0x0, symName: __ZN6spdlog7details11H_formatterINS0_13scoped_padderEED1Ev, symObjAddr: 0x1BC78, symBinAddr: 0x10001CBF8, symSize: 0x2C }
  - { offsetInCU: 0x76CE4, offset: 0x76CE4, size: 0x8, addend: 0x0, symName: __ZN6spdlog7details11H_formatterINS0_13scoped_padderEED0Ev, symObjAddr: 0x1BCA4, symBinAddr: 0x10001CC24, symSize: 0x30 }
  - { offsetInCU: 0x76D11, offset: 0x76D11, size: 0x8, addend: 0x0, symName: __ZN6spdlog7details11H_formatterINS0_13scoped_padderEE6formatERKNS0_7log_msgERK2tmRN3fmt3v1019basic_memory_bufferIcLm250ENSt3__19allocatorIcEEEE, symObjAddr: 0x1BCD4, symBinAddr: 0x10001CC54, symSize: 0x80 }
  - { offsetInCU: 0x76D7F, offset: 0x76D7F, size: 0x8, addend: 0x0, symName: __ZN6spdlog7details11H_formatterINS0_13scoped_padderEED2Ev, symObjAddr: 0x1BD54, symBinAddr: 0x10001CCD4, symSize: 0x2C }
  - { offsetInCU: 0x76DAC, offset: 0x76DAC, size: 0x8, addend: 0x0, symName: __ZNSt3__110unique_ptrIN6spdlog7details11H_formatterINS2_13scoped_padderEEENS_14default_deleteIS5_EEEC2B8ue170006ILb1EvEEPS5_, symObjAddr: 0x1BD80, symBinAddr: 0x10001CD00, symSize: 0x44 }
  - { offsetInCU: 0x76DEF, offset: 0x76DEF, size: 0x8, addend: 0x0, symName: __ZNSt3__117__compressed_pairIPN6spdlog7details11H_formatterINS2_13scoped_padderEEENS_14default_deleteIS5_EEEC1B8ue170006IRS6_NS_16__value_init_tagEEEOT_OT0_, symObjAddr: 0x1BDC4, symBinAddr: 0x10001CD44, symSize: 0x3C }
  - { offsetInCU: 0x76E47, offset: 0x76E47, size: 0x8, addend: 0x0, symName: __ZNSt3__117__compressed_pairIPN6spdlog7details11H_formatterINS2_13scoped_padderEEENS_14default_deleteIS5_EEEC2B8ue170006IRS6_NS_16__value_init_tagEEEOT_OT0_, symObjAddr: 0x1BE00, symBinAddr: 0x10001CD80, symSize: 0x40 }
  - { offsetInCU: 0x76E9F, offset: 0x76E9F, size: 0x8, addend: 0x0, symName: __ZNSt3__122__compressed_pair_elemIPN6spdlog7details11H_formatterINS2_13scoped_padderEEELi0ELb0EEC2B8ue170006IRS6_vEEOT_, symObjAddr: 0x1BE40, symBinAddr: 0x10001CDC0, symSize: 0x24 }
  - { offsetInCU: 0x76EE1, offset: 0x76EE1, size: 0x8, addend: 0x0, symName: __ZNSt3__122__compressed_pair_elemINS_14default_deleteIN6spdlog7details11H_formatterINS3_13scoped_padderEEEEELi1ELb1EEC2B8ue170006ENS_16__value_init_tagE, symObjAddr: 0x1BE64, symBinAddr: 0x10001CDE4, symSize: 0x14 }
  - { offsetInCU: 0x76F16, offset: 0x76F16, size: 0x8, addend: 0x0, symName: __ZNSt3__110unique_ptrIN6spdlog7details14flag_formatterENS_14default_deleteIS3_EEEC2B8ue170006INS2_11H_formatterINS2_13scoped_padderEEENS4_ISA_EEvvEEONS0_IT_T0_EE, symObjAddr: 0x1BE78, symBinAddr: 0x10001CDF8, symSize: 0x60 }
  - { offsetInCU: 0x76F62, offset: 0x76F62, size: 0x8, addend: 0x0, symName: __ZNSt3__110unique_ptrIN6spdlog7details11H_formatterINS2_13scoped_padderEEENS_14default_deleteIS5_EEE7releaseB8ue170006Ev, symObjAddr: 0x1BED8, symBinAddr: 0x10001CE58, symSize: 0x44 }
  - { offsetInCU: 0x76F97, offset: 0x76F97, size: 0x8, addend: 0x0, symName: __ZNSt3__110unique_ptrIN6spdlog7details11H_formatterINS2_13scoped_padderEEENS_14default_deleteIS5_EEE11get_deleterB8ue170006Ev, symObjAddr: 0x1BF1C, symBinAddr: 0x10001CE9C, symSize: 0x24 }
  - { offsetInCU: 0x76FC9, offset: 0x76FC9, size: 0x8, addend: 0x0, symName: __ZNSt3__117__compressed_pairIPN6spdlog7details14flag_formatterENS_14default_deleteIS3_EEEC1B8ue170006IPNS2_11H_formatterINS2_13scoped_padderEEENS5_ISB_EEEEOT_OT0_, symObjAddr: 0x1BF40, symBinAddr: 0x10001CEC0, symSize: 0x3C }
  - { offsetInCU: 0x77021, offset: 0x77021, size: 0x8, addend: 0x0, symName: __ZNSt3__117__compressed_pairIPN6spdlog7details11H_formatterINS2_13scoped_padderEEENS_14default_deleteIS5_EEE5firstB8ue170006Ev, symObjAddr: 0x1BF7C, symBinAddr: 0x10001CEFC, symSize: 0x24 }
  - { offsetInCU: 0x77047, offset: 0x77047, size: 0x8, addend: 0x0, symName: __ZNSt3__122__compressed_pair_elemIPN6spdlog7details11H_formatterINS2_13scoped_padderEEELi0ELb0EE5__getB8ue170006Ev, symObjAddr: 0x1BFA0, symBinAddr: 0x10001CF20, symSize: 0x14 }
  - { offsetInCU: 0x7706D, offset: 0x7706D, size: 0x8, addend: 0x0, symName: __ZNSt3__117__compressed_pairIPN6spdlog7details11H_formatterINS2_13scoped_padderEEENS_14default_deleteIS5_EEE6secondB8ue170006Ev, symObjAddr: 0x1BFB4, symBinAddr: 0x10001CF34, symSize: 0x24 }
  - { offsetInCU: 0x77093, offset: 0x77093, size: 0x8, addend: 0x0, symName: __ZNSt3__122__compressed_pair_elemINS_14default_deleteIN6spdlog7details11H_formatterINS3_13scoped_padderEEEEELi1ELb1EE5__getB8ue170006Ev, symObjAddr: 0x1BFD8, symBinAddr: 0x10001CF58, symSize: 0x14 }
  - { offsetInCU: 0x770B9, offset: 0x770B9, size: 0x8, addend: 0x0, symName: __ZNSt3__117__compressed_pairIPN6spdlog7details14flag_formatterENS_14default_deleteIS3_EEEC2B8ue170006IPNS2_11H_formatterINS2_13scoped_padderEEENS5_ISB_EEEEOT_OT0_, symObjAddr: 0x1BFEC, symBinAddr: 0x10001CF6C, symSize: 0x44 }
  - { offsetInCU: 0x77111, offset: 0x77111, size: 0x8, addend: 0x0, symName: __ZNSt3__122__compressed_pair_elemIPN6spdlog7details14flag_formatterELi0ELb0EEC2B8ue170006IPNS2_11H_formatterINS2_13scoped_padderEEEvEEOT_, symObjAddr: 0x1C030, symBinAddr: 0x10001CFB0, symSize: 0x24 }
  - { offsetInCU: 0x77153, offset: 0x77153, size: 0x8, addend: 0x0, symName: __ZNSt3__122__compressed_pair_elemINS_14default_deleteIN6spdlog7details14flag_formatterEEELi1ELb1EEC2B8ue170006INS1_INS3_11H_formatterINS3_13scoped_padderEEEEEvEEOT_, symObjAddr: 0x1C054, symBinAddr: 0x10001CFD4, symSize: 0x38 }
  - { offsetInCU: 0x77195, offset: 0x77195, size: 0x8, addend: 0x0, symName: __ZNSt3__114default_deleteIN6spdlog7details14flag_formatterEEC2B8ue170006INS2_11H_formatterINS2_13scoped_padderEEEEERKNS0_IT_EEPNS_9enable_ifIXsr14is_convertibleIPS9_PS3_EE5valueEvE4typeE, symObjAddr: 0x1C08C, symBinAddr: 0x10001D00C, symSize: 0x1C }
  - { offsetInCU: 0x771DE, offset: 0x771DE, size: 0x8, addend: 0x0, symName: __ZNSt3__110unique_ptrIN6spdlog7details11H_formatterINS2_13scoped_padderEEENS_14default_deleteIS5_EEED2B8ue170006Ev, symObjAddr: 0x1C0A8, symBinAddr: 0x10001D028, symSize: 0x30 }
  - { offsetInCU: 0x77208, offset: 0x77208, size: 0x8, addend: 0x0, symName: __ZNSt3__110unique_ptrIN6spdlog7details11H_formatterINS2_13scoped_padderEEENS_14default_deleteIS5_EEE5resetB8ue170006EPS5_, symObjAddr: 0x1C0D8, symBinAddr: 0x10001D058, symSize: 0x78 }
  - { offsetInCU: 0x7724C, offset: 0x7724C, size: 0x8, addend: 0x0, symName: __ZNKSt3__114default_deleteIN6spdlog7details11H_formatterINS2_13scoped_padderEEEEclB8ue170006EPS5_, symObjAddr: 0x1C150, symBinAddr: 0x10001D0D0, symSize: 0x4C }
  - { offsetInCU: 0x77280, offset: 0x77280, size: 0x8, addend: 0x0, symName: __ZN6spdlog7details11I_formatterINS0_13scoped_padderEEC1ENS0_12padding_infoE, symObjAddr: 0x1C19C, symBinAddr: 0x10001D11C, symSize: 0x3C }
  - { offsetInCU: 0x772B9, offset: 0x772B9, size: 0x8, addend: 0x0, symName: __ZNSt3__110unique_ptrIN6spdlog7details11I_formatterINS2_13scoped_padderEEENS_14default_deleteIS5_EEEC1B8ue170006ILb1EvEEPS5_, symObjAddr: 0x1C1D8, symBinAddr: 0x10001D158, symSize: 0x34 }
  - { offsetInCU: 0x772FC, offset: 0x772FC, size: 0x8, addend: 0x0, symName: __ZN6spdlog7details11I_formatterINS0_13scoped_padderEEC2ENS0_12padding_infoE, symObjAddr: 0x1C20C, symBinAddr: 0x10001D18C, symSize: 0x5C }
  - { offsetInCU: 0x77335, offset: 0x77335, size: 0x8, addend: 0x0, symName: __ZN6spdlog7details11I_formatterINS0_13scoped_padderEED1Ev, symObjAddr: 0x1C268, symBinAddr: 0x10001D1E8, symSize: 0x2C }
  - { offsetInCU: 0x77362, offset: 0x77362, size: 0x8, addend: 0x0, symName: __ZN6spdlog7details11I_formatterINS0_13scoped_padderEED0Ev, symObjAddr: 0x1C294, symBinAddr: 0x10001D214, symSize: 0x30 }
  - { offsetInCU: 0x7738F, offset: 0x7738F, size: 0x8, addend: 0x0, symName: __ZN6spdlog7details11I_formatterINS0_13scoped_padderEE6formatERKNS0_7log_msgERK2tmRN3fmt3v1019basic_memory_bufferIcLm250ENSt3__19allocatorIcEEEE, symObjAddr: 0x1C2C4, symBinAddr: 0x10001D244, symSize: 0x8C }
  - { offsetInCU: 0x773FD, offset: 0x773FD, size: 0x8, addend: 0x0, symName: __ZN6spdlog7details11I_formatterINS0_13scoped_padderEED2Ev, symObjAddr: 0x1C350, symBinAddr: 0x10001D2D0, symSize: 0x2C }
  - { offsetInCU: 0x7742A, offset: 0x7742A, size: 0x8, addend: 0x0, symName: __ZNSt3__110unique_ptrIN6spdlog7details11I_formatterINS2_13scoped_padderEEENS_14default_deleteIS5_EEEC2B8ue170006ILb1EvEEPS5_, symObjAddr: 0x1C3CC, symBinAddr: 0x10001D34C, symSize: 0x44 }
  - { offsetInCU: 0x7746D, offset: 0x7746D, size: 0x8, addend: 0x0, symName: __ZNSt3__117__compressed_pairIPN6spdlog7details11I_formatterINS2_13scoped_padderEEENS_14default_deleteIS5_EEEC1B8ue170006IRS6_NS_16__value_init_tagEEEOT_OT0_, symObjAddr: 0x1C410, symBinAddr: 0x10001D390, symSize: 0x3C }
  - { offsetInCU: 0x774C5, offset: 0x774C5, size: 0x8, addend: 0x0, symName: __ZNSt3__117__compressed_pairIPN6spdlog7details11I_formatterINS2_13scoped_padderEEENS_14default_deleteIS5_EEEC2B8ue170006IRS6_NS_16__value_init_tagEEEOT_OT0_, symObjAddr: 0x1C44C, symBinAddr: 0x10001D3CC, symSize: 0x40 }
  - { offsetInCU: 0x7751D, offset: 0x7751D, size: 0x8, addend: 0x0, symName: __ZNSt3__122__compressed_pair_elemIPN6spdlog7details11I_formatterINS2_13scoped_padderEEELi0ELb0EEC2B8ue170006IRS6_vEEOT_, symObjAddr: 0x1C48C, symBinAddr: 0x10001D40C, symSize: 0x24 }
  - { offsetInCU: 0x7755F, offset: 0x7755F, size: 0x8, addend: 0x0, symName: __ZNSt3__122__compressed_pair_elemINS_14default_deleteIN6spdlog7details11I_formatterINS3_13scoped_padderEEEEELi1ELb1EEC2B8ue170006ENS_16__value_init_tagE, symObjAddr: 0x1C4B0, symBinAddr: 0x10001D430, symSize: 0x14 }
  - { offsetInCU: 0x77594, offset: 0x77594, size: 0x8, addend: 0x0, symName: __ZNSt3__110unique_ptrIN6spdlog7details14flag_formatterENS_14default_deleteIS3_EEEC2B8ue170006INS2_11I_formatterINS2_13scoped_padderEEENS4_ISA_EEvvEEONS0_IT_T0_EE, symObjAddr: 0x1C4C4, symBinAddr: 0x10001D444, symSize: 0x60 }
  - { offsetInCU: 0x775E0, offset: 0x775E0, size: 0x8, addend: 0x0, symName: __ZNSt3__110unique_ptrIN6spdlog7details11I_formatterINS2_13scoped_padderEEENS_14default_deleteIS5_EEE7releaseB8ue170006Ev, symObjAddr: 0x1C524, symBinAddr: 0x10001D4A4, symSize: 0x44 }
  - { offsetInCU: 0x77615, offset: 0x77615, size: 0x8, addend: 0x0, symName: __ZNSt3__110unique_ptrIN6spdlog7details11I_formatterINS2_13scoped_padderEEENS_14default_deleteIS5_EEE11get_deleterB8ue170006Ev, symObjAddr: 0x1C568, symBinAddr: 0x10001D4E8, symSize: 0x24 }
  - { offsetInCU: 0x77647, offset: 0x77647, size: 0x8, addend: 0x0, symName: __ZNSt3__117__compressed_pairIPN6spdlog7details14flag_formatterENS_14default_deleteIS3_EEEC1B8ue170006IPNS2_11I_formatterINS2_13scoped_padderEEENS5_ISB_EEEEOT_OT0_, symObjAddr: 0x1C58C, symBinAddr: 0x10001D50C, symSize: 0x3C }
  - { offsetInCU: 0x7769F, offset: 0x7769F, size: 0x8, addend: 0x0, symName: __ZNSt3__117__compressed_pairIPN6spdlog7details11I_formatterINS2_13scoped_padderEEENS_14default_deleteIS5_EEE5firstB8ue170006Ev, symObjAddr: 0x1C5C8, symBinAddr: 0x10001D548, symSize: 0x24 }
  - { offsetInCU: 0x776C5, offset: 0x776C5, size: 0x8, addend: 0x0, symName: __ZNSt3__122__compressed_pair_elemIPN6spdlog7details11I_formatterINS2_13scoped_padderEEELi0ELb0EE5__getB8ue170006Ev, symObjAddr: 0x1C5EC, symBinAddr: 0x10001D56C, symSize: 0x14 }
  - { offsetInCU: 0x776EB, offset: 0x776EB, size: 0x8, addend: 0x0, symName: __ZNSt3__117__compressed_pairIPN6spdlog7details11I_formatterINS2_13scoped_padderEEENS_14default_deleteIS5_EEE6secondB8ue170006Ev, symObjAddr: 0x1C600, symBinAddr: 0x10001D580, symSize: 0x24 }
  - { offsetInCU: 0x77711, offset: 0x77711, size: 0x8, addend: 0x0, symName: __ZNSt3__122__compressed_pair_elemINS_14default_deleteIN6spdlog7details11I_formatterINS3_13scoped_padderEEEEELi1ELb1EE5__getB8ue170006Ev, symObjAddr: 0x1C624, symBinAddr: 0x10001D5A4, symSize: 0x14 }
  - { offsetInCU: 0x77737, offset: 0x77737, size: 0x8, addend: 0x0, symName: __ZNSt3__117__compressed_pairIPN6spdlog7details14flag_formatterENS_14default_deleteIS3_EEEC2B8ue170006IPNS2_11I_formatterINS2_13scoped_padderEEENS5_ISB_EEEEOT_OT0_, symObjAddr: 0x1C638, symBinAddr: 0x10001D5B8, symSize: 0x44 }
  - { offsetInCU: 0x7778F, offset: 0x7778F, size: 0x8, addend: 0x0, symName: __ZNSt3__122__compressed_pair_elemIPN6spdlog7details14flag_formatterELi0ELb0EEC2B8ue170006IPNS2_11I_formatterINS2_13scoped_padderEEEvEEOT_, symObjAddr: 0x1C67C, symBinAddr: 0x10001D5FC, symSize: 0x24 }
  - { offsetInCU: 0x777D1, offset: 0x777D1, size: 0x8, addend: 0x0, symName: __ZNSt3__122__compressed_pair_elemINS_14default_deleteIN6spdlog7details14flag_formatterEEELi1ELb1EEC2B8ue170006INS1_INS3_11I_formatterINS3_13scoped_padderEEEEEvEEOT_, symObjAddr: 0x1C6A0, symBinAddr: 0x10001D620, symSize: 0x38 }
  - { offsetInCU: 0x77813, offset: 0x77813, size: 0x8, addend: 0x0, symName: __ZNSt3__114default_deleteIN6spdlog7details14flag_formatterEEC2B8ue170006INS2_11I_formatterINS2_13scoped_padderEEEEERKNS0_IT_EEPNS_9enable_ifIXsr14is_convertibleIPS9_PS3_EE5valueEvE4typeE, symObjAddr: 0x1C6D8, symBinAddr: 0x10001D658, symSize: 0x1C }
  - { offsetInCU: 0x7785C, offset: 0x7785C, size: 0x8, addend: 0x0, symName: __ZNSt3__110unique_ptrIN6spdlog7details11I_formatterINS2_13scoped_padderEEENS_14default_deleteIS5_EEED2B8ue170006Ev, symObjAddr: 0x1C6F4, symBinAddr: 0x10001D674, symSize: 0x30 }
  - { offsetInCU: 0x77886, offset: 0x77886, size: 0x8, addend: 0x0, symName: __ZNSt3__110unique_ptrIN6spdlog7details11I_formatterINS2_13scoped_padderEEENS_14default_deleteIS5_EEE5resetB8ue170006EPS5_, symObjAddr: 0x1C724, symBinAddr: 0x10001D6A4, symSize: 0x78 }
  - { offsetInCU: 0x778CA, offset: 0x778CA, size: 0x8, addend: 0x0, symName: __ZNKSt3__114default_deleteIN6spdlog7details11I_formatterINS2_13scoped_padderEEEEclB8ue170006EPS5_, symObjAddr: 0x1C79C, symBinAddr: 0x10001D71C, symSize: 0x4C }
  - { offsetInCU: 0x778FE, offset: 0x778FE, size: 0x8, addend: 0x0, symName: __ZN6spdlog7details11M_formatterINS0_13scoped_padderEEC1ENS0_12padding_infoE, symObjAddr: 0x1C7E8, symBinAddr: 0x10001D768, symSize: 0x3C }
  - { offsetInCU: 0x77937, offset: 0x77937, size: 0x8, addend: 0x0, symName: __ZNSt3__110unique_ptrIN6spdlog7details11M_formatterINS2_13scoped_padderEEENS_14default_deleteIS5_EEEC1B8ue170006ILb1EvEEPS5_, symObjAddr: 0x1C824, symBinAddr: 0x10001D7A4, symSize: 0x34 }
  - { offsetInCU: 0x7797A, offset: 0x7797A, size: 0x8, addend: 0x0, symName: __ZN6spdlog7details11M_formatterINS0_13scoped_padderEEC2ENS0_12padding_infoE, symObjAddr: 0x1C858, symBinAddr: 0x10001D7D8, symSize: 0x5C }
  - { offsetInCU: 0x779B3, offset: 0x779B3, size: 0x8, addend: 0x0, symName: __ZN6spdlog7details11M_formatterINS0_13scoped_padderEED1Ev, symObjAddr: 0x1C8B4, symBinAddr: 0x10001D834, symSize: 0x2C }
  - { offsetInCU: 0x779E0, offset: 0x779E0, size: 0x8, addend: 0x0, symName: __ZN6spdlog7details11M_formatterINS0_13scoped_padderEED0Ev, symObjAddr: 0x1C8E0, symBinAddr: 0x10001D860, symSize: 0x30 }
  - { offsetInCU: 0x77A0D, offset: 0x77A0D, size: 0x8, addend: 0x0, symName: __ZN6spdlog7details11M_formatterINS0_13scoped_padderEE6formatERKNS0_7log_msgERK2tmRN3fmt3v1019basic_memory_bufferIcLm250ENSt3__19allocatorIcEEEE, symObjAddr: 0x1C910, symBinAddr: 0x10001D890, symSize: 0x80 }
  - { offsetInCU: 0x77A7B, offset: 0x77A7B, size: 0x8, addend: 0x0, symName: __ZN6spdlog7details11M_formatterINS0_13scoped_padderEED2Ev, symObjAddr: 0x1C990, symBinAddr: 0x10001D910, symSize: 0x2C }
  - { offsetInCU: 0x77AA8, offset: 0x77AA8, size: 0x8, addend: 0x0, symName: __ZNSt3__110unique_ptrIN6spdlog7details11M_formatterINS2_13scoped_padderEEENS_14default_deleteIS5_EEEC2B8ue170006ILb1EvEEPS5_, symObjAddr: 0x1C9BC, symBinAddr: 0x10001D93C, symSize: 0x44 }
  - { offsetInCU: 0x77AEB, offset: 0x77AEB, size: 0x8, addend: 0x0, symName: __ZNSt3__117__compressed_pairIPN6spdlog7details11M_formatterINS2_13scoped_padderEEENS_14default_deleteIS5_EEEC1B8ue170006IRS6_NS_16__value_init_tagEEEOT_OT0_, symObjAddr: 0x1CA00, symBinAddr: 0x10001D980, symSize: 0x3C }
  - { offsetInCU: 0x77B43, offset: 0x77B43, size: 0x8, addend: 0x0, symName: __ZNSt3__117__compressed_pairIPN6spdlog7details11M_formatterINS2_13scoped_padderEEENS_14default_deleteIS5_EEEC2B8ue170006IRS6_NS_16__value_init_tagEEEOT_OT0_, symObjAddr: 0x1CA3C, symBinAddr: 0x10001D9BC, symSize: 0x40 }
  - { offsetInCU: 0x77B9B, offset: 0x77B9B, size: 0x8, addend: 0x0, symName: __ZNSt3__122__compressed_pair_elemIPN6spdlog7details11M_formatterINS2_13scoped_padderEEELi0ELb0EEC2B8ue170006IRS6_vEEOT_, symObjAddr: 0x1CA7C, symBinAddr: 0x10001D9FC, symSize: 0x24 }
  - { offsetInCU: 0x77BDD, offset: 0x77BDD, size: 0x8, addend: 0x0, symName: __ZNSt3__122__compressed_pair_elemINS_14default_deleteIN6spdlog7details11M_formatterINS3_13scoped_padderEEEEELi1ELb1EEC2B8ue170006ENS_16__value_init_tagE, symObjAddr: 0x1CAA0, symBinAddr: 0x10001DA20, symSize: 0x14 }
  - { offsetInCU: 0x77C12, offset: 0x77C12, size: 0x8, addend: 0x0, symName: __ZNSt3__110unique_ptrIN6spdlog7details14flag_formatterENS_14default_deleteIS3_EEEC2B8ue170006INS2_11M_formatterINS2_13scoped_padderEEENS4_ISA_EEvvEEONS0_IT_T0_EE, symObjAddr: 0x1CAB4, symBinAddr: 0x10001DA34, symSize: 0x60 }
  - { offsetInCU: 0x77C5E, offset: 0x77C5E, size: 0x8, addend: 0x0, symName: __ZNSt3__110unique_ptrIN6spdlog7details11M_formatterINS2_13scoped_padderEEENS_14default_deleteIS5_EEE7releaseB8ue170006Ev, symObjAddr: 0x1CB14, symBinAddr: 0x10001DA94, symSize: 0x44 }
  - { offsetInCU: 0x77C93, offset: 0x77C93, size: 0x8, addend: 0x0, symName: __ZNSt3__110unique_ptrIN6spdlog7details11M_formatterINS2_13scoped_padderEEENS_14default_deleteIS5_EEE11get_deleterB8ue170006Ev, symObjAddr: 0x1CB58, symBinAddr: 0x10001DAD8, symSize: 0x24 }
  - { offsetInCU: 0x77CC5, offset: 0x77CC5, size: 0x8, addend: 0x0, symName: __ZNSt3__117__compressed_pairIPN6spdlog7details14flag_formatterENS_14default_deleteIS3_EEEC1B8ue170006IPNS2_11M_formatterINS2_13scoped_padderEEENS5_ISB_EEEEOT_OT0_, symObjAddr: 0x1CB7C, symBinAddr: 0x10001DAFC, symSize: 0x3C }
  - { offsetInCU: 0x77D1D, offset: 0x77D1D, size: 0x8, addend: 0x0, symName: __ZNSt3__117__compressed_pairIPN6spdlog7details11M_formatterINS2_13scoped_padderEEENS_14default_deleteIS5_EEE5firstB8ue170006Ev, symObjAddr: 0x1CBB8, symBinAddr: 0x10001DB38, symSize: 0x24 }
  - { offsetInCU: 0x77D43, offset: 0x77D43, size: 0x8, addend: 0x0, symName: __ZNSt3__122__compressed_pair_elemIPN6spdlog7details11M_formatterINS2_13scoped_padderEEELi0ELb0EE5__getB8ue170006Ev, symObjAddr: 0x1CBDC, symBinAddr: 0x10001DB5C, symSize: 0x14 }
  - { offsetInCU: 0x77D69, offset: 0x77D69, size: 0x8, addend: 0x0, symName: __ZNSt3__117__compressed_pairIPN6spdlog7details11M_formatterINS2_13scoped_padderEEENS_14default_deleteIS5_EEE6secondB8ue170006Ev, symObjAddr: 0x1CBF0, symBinAddr: 0x10001DB70, symSize: 0x24 }
  - { offsetInCU: 0x77D8F, offset: 0x77D8F, size: 0x8, addend: 0x0, symName: __ZNSt3__122__compressed_pair_elemINS_14default_deleteIN6spdlog7details11M_formatterINS3_13scoped_padderEEEEELi1ELb1EE5__getB8ue170006Ev, symObjAddr: 0x1CC14, symBinAddr: 0x10001DB94, symSize: 0x14 }
  - { offsetInCU: 0x77DB5, offset: 0x77DB5, size: 0x8, addend: 0x0, symName: __ZNSt3__117__compressed_pairIPN6spdlog7details14flag_formatterENS_14default_deleteIS3_EEEC2B8ue170006IPNS2_11M_formatterINS2_13scoped_padderEEENS5_ISB_EEEEOT_OT0_, symObjAddr: 0x1CC28, symBinAddr: 0x10001DBA8, symSize: 0x44 }
  - { offsetInCU: 0x77E0D, offset: 0x77E0D, size: 0x8, addend: 0x0, symName: __ZNSt3__122__compressed_pair_elemIPN6spdlog7details14flag_formatterELi0ELb0EEC2B8ue170006IPNS2_11M_formatterINS2_13scoped_padderEEEvEEOT_, symObjAddr: 0x1CC6C, symBinAddr: 0x10001DBEC, symSize: 0x24 }
  - { offsetInCU: 0x77E4F, offset: 0x77E4F, size: 0x8, addend: 0x0, symName: __ZNSt3__122__compressed_pair_elemINS_14default_deleteIN6spdlog7details14flag_formatterEEELi1ELb1EEC2B8ue170006INS1_INS3_11M_formatterINS3_13scoped_padderEEEEEvEEOT_, symObjAddr: 0x1CC90, symBinAddr: 0x10001DC10, symSize: 0x38 }
  - { offsetInCU: 0x77E91, offset: 0x77E91, size: 0x8, addend: 0x0, symName: __ZNSt3__114default_deleteIN6spdlog7details14flag_formatterEEC2B8ue170006INS2_11M_formatterINS2_13scoped_padderEEEEERKNS0_IT_EEPNS_9enable_ifIXsr14is_convertibleIPS9_PS3_EE5valueEvE4typeE, symObjAddr: 0x1CCC8, symBinAddr: 0x10001DC48, symSize: 0x1C }
  - { offsetInCU: 0x77EDA, offset: 0x77EDA, size: 0x8, addend: 0x0, symName: __ZNSt3__110unique_ptrIN6spdlog7details11M_formatterINS2_13scoped_padderEEENS_14default_deleteIS5_EEED2B8ue170006Ev, symObjAddr: 0x1CCE4, symBinAddr: 0x10001DC64, symSize: 0x30 }
  - { offsetInCU: 0x77F04, offset: 0x77F04, size: 0x8, addend: 0x0, symName: __ZNSt3__110unique_ptrIN6spdlog7details11M_formatterINS2_13scoped_padderEEENS_14default_deleteIS5_EEE5resetB8ue170006EPS5_, symObjAddr: 0x1CD14, symBinAddr: 0x10001DC94, symSize: 0x78 }
  - { offsetInCU: 0x77F48, offset: 0x77F48, size: 0x8, addend: 0x0, symName: __ZNKSt3__114default_deleteIN6spdlog7details11M_formatterINS2_13scoped_padderEEEEclB8ue170006EPS5_, symObjAddr: 0x1CD8C, symBinAddr: 0x10001DD0C, symSize: 0x4C }
  - { offsetInCU: 0x77F7C, offset: 0x77F7C, size: 0x8, addend: 0x0, symName: __ZN6spdlog7details11S_formatterINS0_13scoped_padderEEC1ENS0_12padding_infoE, symObjAddr: 0x1CDD8, symBinAddr: 0x10001DD58, symSize: 0x3C }
  - { offsetInCU: 0x77FB5, offset: 0x77FB5, size: 0x8, addend: 0x0, symName: __ZNSt3__110unique_ptrIN6spdlog7details11S_formatterINS2_13scoped_padderEEENS_14default_deleteIS5_EEEC1B8ue170006ILb1EvEEPS5_, symObjAddr: 0x1CE14, symBinAddr: 0x10001DD94, symSize: 0x34 }
  - { offsetInCU: 0x77FF8, offset: 0x77FF8, size: 0x8, addend: 0x0, symName: __ZN6spdlog7details11S_formatterINS0_13scoped_padderEEC2ENS0_12padding_infoE, symObjAddr: 0x1CE48, symBinAddr: 0x10001DDC8, symSize: 0x5C }
  - { offsetInCU: 0x78031, offset: 0x78031, size: 0x8, addend: 0x0, symName: __ZN6spdlog7details11S_formatterINS0_13scoped_padderEED1Ev, symObjAddr: 0x1CEA4, symBinAddr: 0x10001DE24, symSize: 0x2C }
  - { offsetInCU: 0x7805E, offset: 0x7805E, size: 0x8, addend: 0x0, symName: __ZN6spdlog7details11S_formatterINS0_13scoped_padderEED0Ev, symObjAddr: 0x1CED0, symBinAddr: 0x10001DE50, symSize: 0x30 }
  - { offsetInCU: 0x7808B, offset: 0x7808B, size: 0x8, addend: 0x0, symName: __ZN6spdlog7details11S_formatterINS0_13scoped_padderEE6formatERKNS0_7log_msgERK2tmRN3fmt3v1019basic_memory_bufferIcLm250ENSt3__19allocatorIcEEEE, symObjAddr: 0x1CF00, symBinAddr: 0x10001DE80, symSize: 0x80 }
  - { offsetInCU: 0x780F9, offset: 0x780F9, size: 0x8, addend: 0x0, symName: __ZN6spdlog7details11S_formatterINS0_13scoped_padderEED2Ev, symObjAddr: 0x1CF80, symBinAddr: 0x10001DF00, symSize: 0x2C }
  - { offsetInCU: 0x78126, offset: 0x78126, size: 0x8, addend: 0x0, symName: __ZNSt3__110unique_ptrIN6spdlog7details11S_formatterINS2_13scoped_padderEEENS_14default_deleteIS5_EEEC2B8ue170006ILb1EvEEPS5_, symObjAddr: 0x1CFAC, symBinAddr: 0x10001DF2C, symSize: 0x44 }
  - { offsetInCU: 0x78169, offset: 0x78169, size: 0x8, addend: 0x0, symName: __ZNSt3__117__compressed_pairIPN6spdlog7details11S_formatterINS2_13scoped_padderEEENS_14default_deleteIS5_EEEC1B8ue170006IRS6_NS_16__value_init_tagEEEOT_OT0_, symObjAddr: 0x1CFF0, symBinAddr: 0x10001DF70, symSize: 0x3C }
  - { offsetInCU: 0x781C1, offset: 0x781C1, size: 0x8, addend: 0x0, symName: __ZNSt3__117__compressed_pairIPN6spdlog7details11S_formatterINS2_13scoped_padderEEENS_14default_deleteIS5_EEEC2B8ue170006IRS6_NS_16__value_init_tagEEEOT_OT0_, symObjAddr: 0x1D02C, symBinAddr: 0x10001DFAC, symSize: 0x40 }
  - { offsetInCU: 0x78219, offset: 0x78219, size: 0x8, addend: 0x0, symName: __ZNSt3__122__compressed_pair_elemIPN6spdlog7details11S_formatterINS2_13scoped_padderEEELi0ELb0EEC2B8ue170006IRS6_vEEOT_, symObjAddr: 0x1D06C, symBinAddr: 0x10001DFEC, symSize: 0x24 }
  - { offsetInCU: 0x7825B, offset: 0x7825B, size: 0x8, addend: 0x0, symName: __ZNSt3__122__compressed_pair_elemINS_14default_deleteIN6spdlog7details11S_formatterINS3_13scoped_padderEEEEELi1ELb1EEC2B8ue170006ENS_16__value_init_tagE, symObjAddr: 0x1D090, symBinAddr: 0x10001E010, symSize: 0x14 }
  - { offsetInCU: 0x78290, offset: 0x78290, size: 0x8, addend: 0x0, symName: __ZNSt3__110unique_ptrIN6spdlog7details14flag_formatterENS_14default_deleteIS3_EEEC2B8ue170006INS2_11S_formatterINS2_13scoped_padderEEENS4_ISA_EEvvEEONS0_IT_T0_EE, symObjAddr: 0x1D0A4, symBinAddr: 0x10001E024, symSize: 0x60 }
  - { offsetInCU: 0x782DC, offset: 0x782DC, size: 0x8, addend: 0x0, symName: __ZNSt3__110unique_ptrIN6spdlog7details11S_formatterINS2_13scoped_padderEEENS_14default_deleteIS5_EEE7releaseB8ue170006Ev, symObjAddr: 0x1D104, symBinAddr: 0x10001E084, symSize: 0x44 }
  - { offsetInCU: 0x78311, offset: 0x78311, size: 0x8, addend: 0x0, symName: __ZNSt3__110unique_ptrIN6spdlog7details11S_formatterINS2_13scoped_padderEEENS_14default_deleteIS5_EEE11get_deleterB8ue170006Ev, symObjAddr: 0x1D148, symBinAddr: 0x10001E0C8, symSize: 0x24 }
  - { offsetInCU: 0x78343, offset: 0x78343, size: 0x8, addend: 0x0, symName: __ZNSt3__117__compressed_pairIPN6spdlog7details14flag_formatterENS_14default_deleteIS3_EEEC1B8ue170006IPNS2_11S_formatterINS2_13scoped_padderEEENS5_ISB_EEEEOT_OT0_, symObjAddr: 0x1D16C, symBinAddr: 0x10001E0EC, symSize: 0x3C }
  - { offsetInCU: 0x7839B, offset: 0x7839B, size: 0x8, addend: 0x0, symName: __ZNSt3__117__compressed_pairIPN6spdlog7details11S_formatterINS2_13scoped_padderEEENS_14default_deleteIS5_EEE5firstB8ue170006Ev, symObjAddr: 0x1D1A8, symBinAddr: 0x10001E128, symSize: 0x24 }
  - { offsetInCU: 0x783C1, offset: 0x783C1, size: 0x8, addend: 0x0, symName: __ZNSt3__122__compressed_pair_elemIPN6spdlog7details11S_formatterINS2_13scoped_padderEEELi0ELb0EE5__getB8ue170006Ev, symObjAddr: 0x1D1CC, symBinAddr: 0x10001E14C, symSize: 0x14 }
  - { offsetInCU: 0x783E7, offset: 0x783E7, size: 0x8, addend: 0x0, symName: __ZNSt3__117__compressed_pairIPN6spdlog7details11S_formatterINS2_13scoped_padderEEENS_14default_deleteIS5_EEE6secondB8ue170006Ev, symObjAddr: 0x1D1E0, symBinAddr: 0x10001E160, symSize: 0x24 }
  - { offsetInCU: 0x7840D, offset: 0x7840D, size: 0x8, addend: 0x0, symName: __ZNSt3__122__compressed_pair_elemINS_14default_deleteIN6spdlog7details11S_formatterINS3_13scoped_padderEEEEELi1ELb1EE5__getB8ue170006Ev, symObjAddr: 0x1D204, symBinAddr: 0x10001E184, symSize: 0x14 }
